 xrCore

 Timestamp is 5b66fd05 (Sun Aug 05 16:35:01 2018)

 Preferred load address is 00900000

 Start         Length     Name                   Class
 0001:00000000 0002adbaH .text                   CODE
 0001:0002adc0 000005f1H .text$di                CODE
 0001:0002b3c0 0005f2c6H .text$mn                CODE
 0001:0008a690 0000637fH .text$x                 CODE
 0001:00090a10 0000035eH .text$yd                CODE
 0002:00000000 00000428H .idata$5                DATA
 0002:00000428 00000004H .CRT$XCA                DATA
 0002:0000042c 00000004H .CRT$XCL                DATA
 0002:00000430 00000040H .CRT$XCU                DATA
 0002:00000470 00000004H .CRT$XCZ                DATA
 0002:00000474 00000004H .CRT$XIA                DATA
 0002:00000478 00000004H .CRT$XIAA               DATA
 0002:0000047c 00000008H .CRT$XIC                DATA
 0002:00000484 00000004H .CRT$XIZ                DATA
 0002:00000488 00000004H .CRT$XLA                DATA
 0002:0000048c 00000004H .CRT$XLZ                DATA
 0002:00000490 0006ad90H .rdata                  DATA
 0002:0006b220 00000018H .rdata$T                DATA
 0002:0006b238 00000058H .rdata$debug            DATA
 0002:0006b290 00000aa4H .rdata$r                DATA
 0002:0006bd40 00000cc0H .rdata$sxdata           DATA
 0002:0006ca00 00000004H .rtc$IAA                DATA
 0002:0006ca04 00000004H .rtc$IZZ                DATA
 0002:0006ca08 00000004H .rtc$TAA                DATA
 0002:0006ca0c 00000004H .rtc$TZZ                DATA
 0002:0006ca10 0000ba24H .xdata$x                DATA
 0002:00078440 00008d1bH .edata                  DATA
 0002:0008115c 000000f0H .idata$2                DATA
 0002:0008124c 00000014H .idata$3                DATA
 0002:00081260 00000428H .idata$4                DATA
 0002:00081688 0000115cH .idata$6                DATA
 0003:00000000 00000260H .data                   DATA
 0003:00000260 0000043eH .data$r                 DATA
 0003:000006a0 000c2950H .bss                    DATA
 0004:00000000 00000001H .tls                    DATA
 0004:00000008 00080000H .tls$                   DATA
 0004:00080008 00000001H .tls$ZZZ                DATA
 0005:00000000 000000a0H .rsrc$01                DATA
 0005:000000a0 00000298H .rsrc$02                DATA

  Address         Publics by Value              Rva+Base       Lib:Object

 0000:00000000       ___guard_fids_count        00000000     <absolute>
 0000:00000000       __except_list              00000000     <absolute>
 0000:00000000       ___guard_fids_table        00000000     <absolute>
 0000:00000000       ___guard_flags             00000000     <absolute>
 0000:0000002c       __tls_array                0000002c     <absolute>
 0000:00000330       ___safe_se_handler_count   00000330     <absolute>
 0000:00009876       __fltused                  00009876     <absolute>
 0000:00009876       __ldused                   00009876     <absolute>
 0000:00000000       ___ImageBase               00900000     <linker-defined>
 0001:00000000       ?StringCopyWorkerA@@YGJPADIPBD@Z 00901000 f i dxerr:dxerr.obj
 0001:0000003d       ?StringCopyWorkerW@@YGJPAGIPBG@Z 0090103d f i dxerr:dxerr.obj
 0001:00000081       ?StringVPrintfWorkerA@@YGJPADIPBD0@Z 00901081 f i dxerr:dxerr.obj
 0001:000000cd       ?StringVPrintfWorkerW@@YGJPAGIPBGPAD@Z 009010cd f i dxerr:dxerr.obj
 0001:0000011a       ?StringLengthWorkerA@@YGJPBDIPAI@Z 0090111a f i dxerr:dxerr.obj
 0001:00000151       ?StringLengthWorkerW@@YGJPBGIPAI@Z 00901151 f i dxerr:dxerr.obj
 0001:0000018a       _DXGetErrorStringA@4       0090118a f   dxerr:dxerr.obj
 0001:00012337       _DXGetErrorStringW@4       00913337 f   dxerr:dxerr.obj
 0001:000242fc       _DXGetErrorDescriptionA@4  009252fc f   dxerr:dxerr.obj
 0001:00027615       _DXGetErrorDescriptionW@4  00928615 f   dxerr:dxerr.obj
 0001:0002a92e       ?StringCchCopyA@@YGJPADIPBD@Z 0092b92e f i dxerr:dxerr.obj
 0001:0002a94b       ?StringCchCopyW@@YGJPAGIPBG@Z 0092b94b f i dxerr:dxerr.obj
 0001:0002a968       ?StringCchPrintfA@@YAJPADIPBDZZ 0092b968 f i dxerr:dxerr.obj
 0001:0002a991       ?StringCchPrintfW@@YAJPAGIPBGZZ 0092b991 f i dxerr:dxerr.obj
 0001:0002a9ba       ?StringCchLengthA@@YGJPBDIPAI@Z 0092b9ba f i dxerr:dxerr.obj
 0001:0002a9dd       ?StringCchLengthW@@YGJPBGIPAI@Z 0092b9dd f i dxerr:dxerr.obj
 0001:0002aa00       _DXTraceW@20               0092ba00 f   dxerr:dxerr.obj
 0001:0002abde       _DXTraceA@20               0092bbde f   dxerr:dxerr.obj
 0001:0002b3c0       ?CalcEMA@@YAMAAMMMM@Z      0092c3c0 f   FTimer.obj
 0001:0002b420       ??0CStatTimer@@QAE@XZ      0092c420 f   FTimer.obj
 0001:0002b450       ?FrameStart@CStatTimer@@QAEXXZ 0092c450 f   FTimer.obj
 0001:0002b470       ?FrameEnd@CStatTimer@@QAEXXZ 0092c470 f   FTimer.obj
 0001:0002b560       ??0pauseMngr@@QAE@XZ       0092c560 f   FTimer.obj
 0001:0002b5e0       ?Pause@pauseMngr@@QAEXH@Z  0092c5e0 f   FTimer.obj
 0001:0002b620       ?Register@pauseMngr@@QAEXPAVCTimer_paused@@@Z 0092c620 f   FTimer.obj
 0001:0002b630       ?UnRegister@pauseMngr@@QAEXPAVCTimer_paused@@@Z 0092c630 f   FTimer.obj
 0001:0002b670       ??0?$xr_vector@PAVCTimer_paused@@V?$xalloc@PAVCTimer_paused@@@@@@QAE@XZ 0092c670 f i FTimer.obj
 0001:0002b6c0       ?reserve@?$vector@PAVCTimer_paused@@V?$xalloc@PAVCTimer_paused@@@@@std@@QAEXI@Z 0092c6c0 f i FTimer.obj
 0001:0002b6e0       ?begin@?$vector@PAVCTimer_paused@@V?$xalloc@PAVCTimer_paused@@@@@std@@QAE?AV?$_Vector_iterator@V?$_Vector_val@U?$_Simple_types@PAVCTimer_paused@@@std@@@std@@@2@XZ 0092c6e0 f i FTimer.obj
 0001:0002b6f0       ?end@?$vector@PAVCTimer_paused@@V?$xalloc@PAVCTimer_paused@@@@@std@@QAE?AV?$_Vector_iterator@V?$_Vector_val@U?$_Simple_types@PAVCTimer_paused@@@std@@@std@@@2@XZ 0092c6f0 f i FTimer.obj
 0001:0002b700       ?push_back@?$vector@PAVCTimer_paused@@V?$xalloc@PAVCTimer_paused@@@@@std@@QAEXABQAVCTimer_paused@@@Z 0092c700 f i FTimer.obj
 0001:0002b7a0       ?erase@?$vector@PAVCTimer_paused@@V?$xalloc@PAVCTimer_paused@@@@@std@@QAE?AV?$_Vector_iterator@V?$_Vector_val@U?$_Simple_types@PAVCTimer_paused@@@std@@@std@@@2@V?$_Vector_const_iterator@V?$_Vector_val@U?$_Simple_types@PAVCTimer_paused@@@std@@@std@@@2@@Z 0092c7a0 f i FTimer.obj
 0001:0002b7e0       ??9?$_Vector_const_iterator@V?$_Vector_val@U?$_Simple_types@PAVCTimer_paused@@@std@@@std@@@std@@QBE_NABV01@@Z 0092c7e0 f i FTimer.obj
 0001:0002b7f0       ??D?$_Vector_iterator@V?$_Vector_val@U?$_Simple_types@PAVCTimer_paused@@@std@@@std@@@std@@QBEAAPAVCTimer_paused@@XZ 0092c7f0 f i FTimer.obj
 0001:0002b800       ??E?$_Vector_iterator@V?$_Vector_val@U?$_Simple_types@PAVCTimer_paused@@@std@@@std@@@std@@QAEAAV01@XZ 0092c800 f i FTimer.obj
 0001:0002b810       ??0?$vector@PAVCTimer_paused@@V?$xalloc@PAVCTimer_paused@@@@@std@@QAE@XZ 0092c810 f i FTimer.obj
 0001:0002b830       ?_Make_iter@?$vector@PAVCTimer_paused@@V?$xalloc@PAVCTimer_paused@@@@@std@@QBE?AV?$_Vector_iterator@V?$_Vector_val@U?$_Simple_types@PAVCTimer_paused@@@std@@@std@@@2@V?$_Vector_const_iterator@V?$_Vector_val@U?$_Simple_types@PAVCTimer_paused@@@std@@@std@@@2@@Z 0092c830 f i FTimer.obj
 0001:0002b840       ?_Inside@?$vector@PAVCTimer_paused@@V?$xalloc@PAVCTimer_paused@@@@@std@@IBE_NPBQAVCTimer_paused@@@Z 0092c840 f i FTimer.obj
 0001:0002b860       ?_Reallocate@?$vector@PAVCTimer_paused@@V?$xalloc@PAVCTimer_paused@@@@@std@@IAEXI@Z 0092c860 f i FTimer.obj
 0001:0002b910       ?_Reserve@?$vector@PAVCTimer_paused@@V?$xalloc@PAVCTimer_paused@@@@@std@@IAEXI@Z 0092c910 f i FTimer.obj
 0001:0002b980       ?_Orphan_range@?$vector@PAVCTimer_paused@@V?$xalloc@PAVCTimer_paused@@@@@std@@IBEXPAPAVCTimer_paused@@0@Z 0092c980 f i FTimer.obj
 0001:0002b990       ??D?$_Vector_const_iterator@V?$_Vector_val@U?$_Simple_types@PAVCTimer_paused@@@std@@@std@@@std@@QBEABQAVCTimer_paused@@XZ 0092c990 f i FTimer.obj
 0001:0002b9a0       ??E?$_Vector_const_iterator@V?$_Vector_val@U?$_Simple_types@PAVCTimer_paused@@@std@@@std@@@std@@QAEAAV01@XZ 0092c9a0 f i FTimer.obj
 0001:0002b9b0       ??8?$_Vector_const_iterator@V?$_Vector_val@U?$_Simple_types@PAVCTimer_paused@@@std@@@std@@@std@@QBE_NABV01@@Z 0092c9b0 f i FTimer.obj
 0001:0002b9c0       ??0?$_Vector_iterator@V?$_Vector_val@U?$_Simple_types@PAVCTimer_paused@@@std@@@std@@@std@@QAE@PAPAVCTimer_paused@@PBU_Container_base0@1@@Z 0092c9c0 f i FTimer.obj
 0001:0002b9d0       ?_Unused_capacity@?$vector@PAVCTimer_paused@@V?$xalloc@PAVCTimer_paused@@@@@std@@QBEIXZ 0092c9d0 f i FTimer.obj
 0001:0002b9e0       ?_Grow_to@?$vector@PAVCTimer_paused@@V?$xalloc@PAVCTimer_paused@@@@@std@@IBEII@Z 0092c9e0 f i FTimer.obj
 0001:0002ba20       ?_Compat@?$_Vector_const_iterator@V?$_Vector_val@U?$_Simple_types@PAVCTimer_paused@@@std@@@std@@@std@@QBEXABV12@@Z 0092ca20 f i FTimer.obj
 0001:0002ba30       ??$find@V?$_Vector_iterator@V?$_Vector_val@U?$_Simple_types@PAVCTimer_paused@@@std@@@std@@@std@@PAVCTimer_paused@@@std@@YA?AV?$_Vector_iterator@V?$_Vector_val@U?$_Simple_types@PAVCTimer_paused@@@std@@@std@@@0@V10@0ABQAVCTimer_paused@@@Z 0092ca30 f i FTimer.obj
 0001:0002ba60       ??$addressof@QAVCTimer_paused@@@std@@YAPBQAVCTimer_paused@@ABQAV1@@Z 0092ca60 f i FTimer.obj
 0001:0002ba70       ??$_Move@PAPAVCTimer_paused@@PAPAV1@@std@@YAPAPAVCTimer_paused@@PAPAV1@00@Z 0092ca70 f i FTimer.obj
 0001:0002baa0       ??$_Umove@PAPAVCTimer_paused@@@?$vector@PAVCTimer_paused@@V?$xalloc@PAVCTimer_paused@@@@@std@@IAEPAPAVCTimer_paused@@PAPAV2@00@Z 0092caa0 f i FTimer.obj
 0001:0002bad0       ??$_Unchecked@V?$_Vector_val@U?$_Simple_types@PAVCTimer_paused@@@std@@@std@@@std@@YAPAPAVCTimer_paused@@V?$_Vector_iterator@V?$_Vector_val@U?$_Simple_types@PAVCTimer_paused@@@std@@@std@@@0@@Z 0092cad0 f i FTimer.obj
 0001:0002bae0       ??$_Find@PAPAVCTimer_paused@@PAV1@@std@@YAPAPAVCTimer_paused@@PAPAV1@0ABQAV1@@Z 0092cae0 f i FTimer.obj
 0001:0002bb00       ??$_Rechecked@V?$_Vector_val@U?$_Simple_types@PAVCTimer_paused@@@std@@@std@@@std@@YAAAV?$_Vector_iterator@V?$_Vector_val@U?$_Simple_types@PAVCTimer_paused@@@std@@@std@@@0@AAV10@PAPAVCTimer_paused@@@Z 0092cb00 f i FTimer.obj
 0001:0002bb10       ??$_Move@PAPAVCTimer_paused@@PAPAV1@@std@@YAPAPAVCTimer_paused@@PAPAV1@00U_Scalar_ptr_iterator_tag@0@@Z 0092cb10 f i FTimer.obj
 0001:0002bb40       ??$_Uninitialized_move@PAPAVCTimer_paused@@PAPAV1@U?$_Wrap_alloc@V?$xalloc@PAVCTimer_paused@@@@@std@@@std@@YAPAPAVCTimer_paused@@PAPAV1@00AAU?$_Wrap_alloc@V?$xalloc@PAVCTimer_paused@@@@@0@@Z 0092cb40 f i FTimer.obj
 0001:0002bb60       ?_Rechecked@?$_Vector_iterator@V?$_Vector_val@U?$_Simple_types@PAVCTimer_paused@@@std@@@std@@@std@@QAEAAV12@PAPAVCTimer_paused@@@Z 0092cb60 f i FTimer.obj
 0001:0002bb70       ?_Unchecked@?$_Vector_iterator@V?$_Vector_val@U?$_Simple_types@PAVCTimer_paused@@@std@@@std@@@std@@QBEPAPAVCTimer_paused@@XZ 0092cb70 f i FTimer.obj
 0001:0002bb80       ??$_Find@PAPAVCTimer_paused@@PAV1@@std@@YAPAPAVCTimer_paused@@PAPAV1@0ABQAV1@U?$integral_constant@_N$0A@@0@@Z 0092cb80 f i FTimer.obj
 0001:0002bba0       ??$_Uninit_move@PAPAVCTimer_paused@@PAPAV1@U?$_Wrap_alloc@V?$xalloc@PAVCTimer_paused@@@@@std@@@std@@YAPAPAVCTimer_paused@@PAPAV1@00AAU?$_Wrap_alloc@V?$xalloc@PAVCTimer_paused@@@@@0@@Z 0092cba0 f i FTimer.obj
 0001:0002bbc0       ??$_Val_type@PAPAVCTimer_paused@@@std@@YAPAPAVCTimer_paused@@PAPAV1@@Z 0092cbc0 f i FTimer.obj
 0001:0002bbd0       ??$_Uninit_move@PAPAVCTimer_paused@@PAPAV1@V?$xalloc@PAVCTimer_paused@@@@PAV1@@std@@YAPAPAVCTimer_paused@@PAPAV1@00AAU?$_Wrap_alloc@V?$xalloc@PAVCTimer_paused@@@@@0@0U_Scalar_ptr_iterator_tag@0@@Z 0092cbd0 f i FTimer.obj
 0001:0002bbf0       ??$_Uninit_move@PAPAVCTimer_paused@@PAPAV1@V?$xalloc@PAVCTimer_paused@@@@PAV1@@std@@YAPAPAVCTimer_paused@@PAPAV1@00AAU?$_Wrap_alloc@V?$xalloc@PAVCTimer_paused@@@@@0@0U_Nonscalar_ptr_iterator_tag@0@@Z 0092cbf0 f i FTimer.obj
 0001:0002bc60       ??$construct@PAVCTimer_paused@@PAV1@@?$_Wrap_alloc@V?$xalloc@PAVCTimer_paused@@@@@std@@QAEXPAPAVCTimer_paused@@$$QAPAV2@@Z 0092cc60 f i FTimer.obj
 0001:0002bcb0       ??$forward@PAVCTimer_paused@@@std@@YA$$QAPAVCTimer_paused@@AAPAV1@@Z 0092ccb0 f i FTimer.obj
 0001:0002bcc0       ??$construct@PAVCTimer_paused@@PAV1@@?$allocator_traits@V?$xalloc@PAVCTimer_paused@@@@@std@@SAXAAV?$xalloc@PAVCTimer_paused@@@@PAPAVCTimer_paused@@$$QAPAV3@@Z 0092ccc0 f i FTimer.obj
 0001:0002bd00       ??$_Fn@V?$xalloc@PAVCTimer_paused@@@@PAVCTimer_paused@@PAV2@@_Alloc_construct@std@@SAXHAAV?$xalloc@PAVCTimer_paused@@@@PAPAVCTimer_paused@@$$QAPAV3@@Z 0092cd00 f i FTimer.obj
 0001:0002bd50       ??$_Destroy@PAVCTimer_paused@@@std@@YAXPAPAVCTimer_paused@@@Z 0092cd50 f i FTimer.obj
 0001:0002bd60       ?destroy@?$xalloc@PAVCTimer_paused@@@@QAEXPAPAVCTimer_paused@@@Z 0092cd60 f i FTimer.obj
 0001:0002bd70       ??$_Fn@V?$xalloc@PAVCTimer_paused@@@@PAVCTimer_paused@@@_Alloc_destroy@std@@SAXHAAV?$xalloc@PAVCTimer_paused@@@@PAPAVCTimer_paused@@@Z 0092cd70 f i FTimer.obj
 0001:0002bd80       ??$destroy@PAVCTimer_paused@@@?$allocator_traits@V?$xalloc@PAVCTimer_paused@@@@@std@@SAXAAV?$xalloc@PAVCTimer_paused@@@@PAPAVCTimer_paused@@@Z 0092cd80 f i FTimer.obj
 0001:0002bd90       ??$destroy@PAVCTimer_paused@@@?$_Wrap_alloc@V?$xalloc@PAVCTimer_paused@@@@@std@@QAEXPAPAVCTimer_paused@@@Z 0092cd90 f i FTimer.obj
 0001:0002bda0       ??$_Unchecked@PAPAVCTimer_paused@@@std@@YAPAPAVCTimer_paused@@PAPAV1@@Z 0092cda0 f i FTimer.obj
 0001:0002bdb0       ??$_Rechecked@PAPAVCTimer_paused@@PAPAV1@@std@@YAAAPAPAVCTimer_paused@@AAPAPAV1@PAPAV1@@Z 0092cdb0 f i FTimer.obj
 0001:0002bdc0       ?_Adopt@_Iterator_base0@std@@QAEXPBX@Z 0092cdc0 f i FTimer.obj
 0001:0002bdd0       ??0?$_Vector_const_iterator@V?$_Vector_val@U?$_Simple_types@PAVCTimer_paused@@@std@@@std@@@std@@QAE@PAPAVCTimer_paused@@PBU_Container_base0@1@@Z 0092cdd0 f i FTimer.obj
 0001:0002bde0       ?size@?$vector@PAVCTimer_paused@@V?$xalloc@PAVCTimer_paused@@@@@std@@QBEIXZ 0092cde0 f i FTimer.obj
 0001:0002bdf0       ??$xr_alloc@PAVCTimer_paused@@@@YAPAPAVCTimer_paused@@I@Z 0092cdf0 f i FTimer.obj
 0001:0002be10       ?allocate@?$xalloc@PAVCTimer_paused@@@@QBEPAPAVCTimer_paused@@IPBX@Z 0092ce10 f i FTimer.obj
 0001:0002be30       ?allocate@?$_Wrap_alloc@V?$xalloc@PAVCTimer_paused@@@@@std@@QAEPAPAVCTimer_paused@@I@Z 0092ce30 f i FTimer.obj
 0001:0002be50       ??0?$_Vector_val@U?$_Simple_types@PAVCTimer_paused@@@std@@@std@@QAE@XZ 0092ce50 f i FTimer.obj
 0001:0002be70       ??0?$_Vector_alloc@$0A@U?$_Vec_base_types@PAVCTimer_paused@@V?$xalloc@PAVCTimer_paused@@@@@std@@@std@@QAE@ABV?$xalloc@PAVCTimer_paused@@@@@Z 0092ce70 f i FTimer.obj
 0001:0002be90       ??$_Fn@V?$xalloc@PAVCTimer_paused@@@@PAVCTimer_paused@@ABQAV2@@_Alloc_construct@std@@SAXHAAV?$xalloc@PAVCTimer_paused@@@@PAPAVCTimer_paused@@ABQAV3@@Z 0092ce90 f i FTimer.obj
 0001:0002bee0       ??$construct@PAVCTimer_paused@@ABQAV1@@?$allocator_traits@V?$xalloc@PAVCTimer_paused@@@@@std@@SAXAAV?$xalloc@PAVCTimer_paused@@@@PAPAVCTimer_paused@@ABQAV3@@Z 0092cee0 f i FTimer.obj
 0001:0002bf20       ??$construct@PAVCTimer_paused@@ABQAV1@@?$_Wrap_alloc@V?$xalloc@PAVCTimer_paused@@@@@std@@QAEXPAPAVCTimer_paused@@ABQAV2@@Z 0092cf20 f i FTimer.obj
 0001:0002bf70       ??2@YAPAXIPAX@Z            0092cf70 f i FTimer.obj
 0001:0002bf80       ??3@YAXPAX0@Z              0092cf80 f i FTimer.obj
 0001:0002bf90       ??$forward@ABQAVCTimer_paused@@@std@@YAABQAVCTimer_paused@@ABQAV1@@Z 0092cf90 f i FTimer.obj
 0001:0002bfa0       ??$_Construct@PAVCTimer_paused@@ABQAV1@@std@@YAXPAPAVCTimer_paused@@ABQAV1@@Z 0092cfa0 f i FTimer.obj
 0001:0002bfe0       ?construct@?$xalloc@PAVCTimer_paused@@@@QAEXPAPAVCTimer_paused@@ABQAV2@@Z 0092cfe0 f i FTimer.obj
 0001:0002c030       ??$_Fn@V?$xalloc@PAVCTimer_paused@@@@PAVCTimer_paused@@AAPAV2@@_Alloc_construct@std@@SAXHAAV?$xalloc@PAVCTimer_paused@@@@PAPAVCTimer_paused@@AAPAV3@@Z 0092d030 f i FTimer.obj
 0001:0002c080       ??$construct@PAVCTimer_paused@@AAPAV1@@?$allocator_traits@V?$xalloc@PAVCTimer_paused@@@@@std@@SAXAAV?$xalloc@PAVCTimer_paused@@@@PAPAVCTimer_paused@@AAPAV3@@Z 0092d080 f i FTimer.obj
 0001:0002c0c0       ??$forward@AAPAVCTimer_paused@@@std@@YAAAPAVCTimer_paused@@AAPAV1@@Z 0092d0c0 f i FTimer.obj
 0001:0002c0d0       ??$construct@PAVCTimer_paused@@AAPAV1@@?$_Wrap_alloc@V?$xalloc@PAVCTimer_paused@@@@@std@@QAEXPAPAVCTimer_paused@@AAPAV2@@Z 0092d0d0 f i FTimer.obj
 0001:0002c120       ?_Xlen@?$vector@PAVCTimer_paused@@V?$xalloc@PAVCTimer_paused@@@@@std@@IBEXXZ 0092d120 f i FTimer.obj
 0001:0002c130       ?max_size@?$xalloc@PAVCTimer_paused@@@@QBEIXZ 0092d130 f i FTimer.obj
 0001:0002c140       ??$_Fn@V?$xalloc@PAVCTimer_paused@@@@@_Alloc_max_size@std@@SAIHABV?$xalloc@PAVCTimer_paused@@@@@Z 0092d140 f i FTimer.obj
 0001:0002c150       ?max_size@?$allocator_traits@V?$xalloc@PAVCTimer_paused@@@@@std@@SAIABV?$xalloc@PAVCTimer_paused@@@@@Z 0092d150 f i FTimer.obj
 0001:0002c160       ?max_size@?$_Wrap_alloc@V?$xalloc@PAVCTimer_paused@@@@@std@@QBEIXZ 0092d160 f i FTimer.obj
 0001:0002c170       ?max_size@?$vector@PAVCTimer_paused@@V?$xalloc@PAVCTimer_paused@@@@@std@@QBEIXZ 0092d170 f i FTimer.obj
 0001:0002c180       ?capacity@?$vector@PAVCTimer_paused@@V?$xalloc@PAVCTimer_paused@@@@@std@@QBEIXZ 0092d180 f i FTimer.obj
 0001:0002c190       ?GetElapsed_ticks@CTimerBase@@QBE_KXZ 0092d190 f i FTimer.obj
 0001:0002c1e0       ?Pause@CTimer_paused_ex@@QAEXH@Z 0092d1e0 f i FTimer.obj
 0001:0002c2a0       ??$_Destroy_range@U?$_Wrap_alloc@V?$xalloc@PAVCTimer_paused@@@@@std@@@std@@YAXPAPAVCTimer_paused@@0AAU?$_Wrap_alloc@V?$xalloc@PAVCTimer_paused@@@@@0@U_Scalar_ptr_iterator_tag@0@@Z 0092d2a0 f i FTimer.obj
 0001:0002c2b0       ??$_Ptr_cat@PAVCTimer_paused@@PAV1@@std@@YA?AU_Scalar_ptr_iterator_tag@0@PAPAVCTimer_paused@@0@Z 0092d2b0 f i FTimer.obj
 0001:0002c2c0       ??$_Destroy_range@U?$_Wrap_alloc@V?$xalloc@PAVCTimer_paused@@@@@std@@@std@@YAXPAPAVCTimer_paused@@0AAU?$_Wrap_alloc@V?$xalloc@PAVCTimer_paused@@@@@0@@Z 0092d2c0 f i FTimer.obj
 0001:0002c2d0       ?_Destroy@?$vector@PAVCTimer_paused@@V?$xalloc@PAVCTimer_paused@@@@@std@@IAEXPAPAVCTimer_paused@@0@Z 0092d2d0 f i FTimer.obj
 0001:0002c2e0       ??$xr_free@PAVCTimer_paused@@@@YAXAAPAPAVCTimer_paused@@@Z 0092d2e0 f i FTimer.obj
 0001:0002c300       ?deallocate@?$xalloc@PAVCTimer_paused@@@@QBEXPAPAVCTimer_paused@@I@Z 0092d300 f i FTimer.obj
 0001:0002c320       ?deallocate@?$_Wrap_alloc@V?$xalloc@PAVCTimer_paused@@@@@std@@QAEXPAPAVCTimer_paused@@I@Z 0092d320 f i FTimer.obj
 0001:0002c340       ??0?$xalloc@PAVCTimer_paused@@@@QAE@XZ 0092d340 f i FTimer.obj
 0001:0002c350       ??0?$_Wrap_alloc@V?$xalloc@PAVCTimer_paused@@@@@std@@QAE@XZ 0092d350 f i FTimer.obj
 0001:0002c360       ?_Getal@?$_Vector_alloc@$0A@U?$_Vec_base_types@PAVCTimer_paused@@V?$xalloc@PAVCTimer_paused@@@@@std@@@std@@QBE?AU?$_Wrap_alloc@V?$xalloc@PAVCTimer_paused@@@@@2@XZ 0092d360 f i FTimer.obj
 0001:0002c370       ?_Tidy@?$vector@PAVCTimer_paused@@V?$xalloc@PAVCTimer_paused@@@@@std@@IAEXXZ 0092d370 f i FTimer.obj
 0001:0002c3a0       ??1?$vector@PAVCTimer_paused@@V?$xalloc@PAVCTimer_paused@@@@@std@@QAE@XZ 0092d3a0 f i FTimer.obj
 0001:0002c3d0       ??1?$xr_vector@PAVCTimer_paused@@V?$xalloc@PAVCTimer_paused@@@@@@QAE@XZ 0092d3d0 f i FTimer.obj
 0001:0002c430       ??1pauseMngr@@QAE@XZ       0092d430 f i FTimer.obj
 0001:0002c4a0       ?Start@CTimerBase@@QAEXXZ  0092d4a0 f i FTimer.obj
 0001:0002c4e0       ??0CTimerBase@@QAE@XZ      0092d4e0 f i FTimer.obj
 0001:0002c550       ??0CTimer@@QAE@XZ          0092d550 f i FTimer.obj
 0001:0002c5e0       ?check_ptr@CComplexVar@@IBE_NXZ 0092d5e0 f i ComplexVar.obj
 0001:0002c5f0       ??0CComplexVar@@QAE@ABV0@@Z 0092d5f0 f i ComplexVar.obj
 0001:0002c610       ??4CComplexVar@@QAEAAV0@ABV0@@Z 0092d610 f i ComplexVar.obj
 0001:0002c630       ??_GCComplexVar@@UAEPAXI@Z 0092d630 f i ComplexVar.obj
 0001:0002c670       ??_ECComplexVar@@UAEPAXI@Z 0092d670 f i ComplexVar.obj
 0001:0002c6e0       ??4CComplexVarInt@@UAEHH@Z 0092d6e0 f i ComplexVar.obj
 0001:0002c710       ??BCComplexVarInt@@QBEHXZ  0092d710 f i ComplexVar.obj
 0001:0002c720       ??0CComplexVarInt@@QAE@XZ  0092d720 f i ComplexVar.obj
 0001:0002c7b0       ??1CComplexVarInt@@UAE@XZ  0092d7b0 f i ComplexVar.obj
 0001:0002c7f0       ??0CComplexVarInt@@QAE@ABV0@@Z 0092d7f0 f i ComplexVar.obj
 0001:0002c850       ??4CComplexVarInt@@QAEAAV0@ABV0@@Z 0092d850 f i ComplexVar.obj
 0001:0002c870       ??_GCComplexVarInt@@UAEPAXI@Z 0092d870 f i ComplexVar.obj
 0001:0002c8d0       ??_ECComplexVarInt@@UAEPAXI@Z 0092d8d0 f i ComplexVar.obj
 0001:0002c980       ??4CComplexVarFloat@@UAEMM@Z 0092d980 f i ComplexVar.obj
 0001:0002c9b0       ??BCComplexVarFloat@@QBEMXZ 0092d9b0 f i ComplexVar.obj
 0001:0002c9d0       ??0CComplexVarFloat@@QAE@XZ 0092d9d0 f i ComplexVar.obj
 0001:0002ca60       ??1CComplexVarFloat@@UAE@XZ 0092da60 f i ComplexVar.obj
 0001:0002caa0       ??0CComplexVarFloat@@QAE@ABV0@@Z 0092daa0 f i ComplexVar.obj
 0001:0002cb00       ??4CComplexVarFloat@@QAEAAV0@ABV0@@Z 0092db00 f i ComplexVar.obj
 0001:0002cb20       ??_GCComplexVarFloat@@UAEPAXI@Z 0092db20 f i ComplexVar.obj
 0001:0002cb80       ??_ECComplexVarFloat@@UAEPAXI@Z 0092db80 f i ComplexVar.obj
 0001:0002cc30       ??0CComplexVar@@QAE@XZ     0092dc30 f   ComplexVar.obj
 0001:0002cc80       ??1CComplexVar@@UAE@XZ     0092dc80 f   ComplexVar.obj
 0001:0002cc90       ?get@CComplexVarInt@@UBEHXZ 0092dc90 f   ComplexVar.obj
 0001:0002ccc0       ?set@CComplexVarInt@@UAEXH@Z 0092dcc0 f   ComplexVar.obj
 0001:0002cdb0       ?get@CComplexVarFloat@@UBEMXZ 0092ddb0 f   ComplexVar.obj
 0001:0002ce10       ?set@CComplexVarFloat@@UAEXM@Z 0092de10 f   ComplexVar.obj
 0001:0002cf50       ??$xr_alloc@_J@@YAPA_JI@Z  0092df50 f i ComplexVar.obj
 0001:0002cf60       ??$xr_delete@_J@@YAXAAPA_J@Z 0092df60 f i ComplexVar.obj
 0001:0002cf80       ??$xr_alloc@O@@YAPAOI@Z    0092df80 f i ComplexVar.obj
 0001:0002cf90       ??$xr_free@O@@YAXAAPAO@Z   0092df90 f i ComplexVar.obj
 0001:0002cfb0       ??R?$xr_special_free@$0A@_J@@QAEXAAPA_J@Z 0092dfb0 f i ComplexVar.obj
 0001:0002cfd0       ?randF@CRandom@@QAEMMM@Z   0092dfd0 f i ComplexVar.obj
 0001:0002d000       _sqrtl                     0092e000 f i ComplexVar.obj
 0001:0002d010       ?sqrt@@YAOO@Z              0092e010 f i ComplexVar.obj
 0001:0002d020       ?maxF@CRandom@@QAEMXZ      0092e020 f i ComplexVar.obj
 0001:0002d030       ?randF@CRandom@@QAEMXZ     0092e030 f i ComplexVar.obj
 0001:0002d050       ?randF@CRandom@@QAEMM@Z    0092e050 f i ComplexVar.obj
 0001:0002d080       _powl                      0092e080 f i ComplexVar.obj
 0001:0002d090       ?pow@@YAOOO@Z              0092e090 f i ComplexVar.obj
 0001:0002d0a0       ?randI@CRandom@@QAEHHH@Z   0092e0a0 f i ComplexVar.obj
 0001:0002d0c0       ?randI@CRandom@@QAEHXZ     0092e0c0 f i ComplexVar.obj
 0001:0002d0e0       ?randI@CRandom@@QAEHH@Z    0092e0e0 f i ComplexVar.obj
 0001:0002d0f0       ?seed@CRandom@@QAEXH@Z     0092e0f0 f i ComplexVar.obj
 0001:0002d100       ??0CRandom@@QAE@XZ         0092e100 f i ComplexVar.obj
 0001:0002d110       ??_V@YAXPAX@Z              0092e110 f i ComplexVar.obj
 0001:0002d120       ??$xr_free@X@@YAXAAPAX@Z   0092e120 f i ComplexVar.obj
 0001:0002d150       ??3@YAXPAX@Z               0092e150 f i ComplexVar.obj
 0001:0002d170       ?copy_to_clipboard@os_clipboard@@YAXPBD@Z 0092e170 f   os_clipboard.obj
 0001:0002d1e0       ?paste_from_clipboard@os_clipboard@@YAXPADABI@Z 0092e1e0 f   os_clipboard.obj
 0001:0002d2b0       ?update_clipboard@os_clipboard@@YAXPBD@Z 0092e2b0 f   os_clipboard.obj
 0001:0002d370       ?xr_strlen@@YAIPBD@Z       0092e370 f i os_clipboard.obj
 0001:0002d380       _InterlockedExchange64     0092e380 f i stdafx.obj
 0001:0002d3c0       _hypot                     0092e3c0 f i stdafx.obj
 0001:0002d3f0       ??0_Wrap_int@std@@QAE@H@Z  0092e3f0 f i stdafx.obj
 0001:0002d400       ?max@?$numeric_limits@H@std@@SAHXZ 0092e400 f i stdafx.obj
 0001:0002d410       ?length@?$char_traits@D@std@@SAIPBD@Z 0092e410 f i stdafx.obj
 0001:0002d430       ?copy@?$char_traits@D@std@@SAPADPADPBDI@Z 0092e430 f i stdafx.obj
 0001:0002d450       ?move@?$char_traits@D@std@@SAPADPADPBDI@Z 0092e450 f i stdafx.obj
 0001:0002d470       ?assign@?$char_traits@D@std@@SAXAADABD@Z 0092e470 f i stdafx.obj
 0001:0002d480       ??0_Ignore@std@@QAE@XZ     0092e480 f i stdafx.obj
 0001:0002d490       ??0error_category@std@@QAE@XZ 0092e490 f i stdafx.obj
 0001:0002d4a0       ??1error_category@std@@UAE@XZ 0092e4a0 f i stdafx.obj
 0001:0002d4b0       ??8error_category@std@@QBE_NABV01@@Z 0092e4b0 f i stdafx.obj
 0001:0002d4c0       ??_Eerror_category@std@@UAEPAXI@Z 0092e4c0 f i * CIL library *:* CIL module *
 0001:0002d4c0       ??_Gerror_category@std@@UAEPAXI@Z 0092e4c0 f i stdafx.obj
 0001:0002d4f0       ?value@error_code@std@@QBEHXZ 0092e4f0 f i stdafx.obj
 0001:0002d500       ?category@error_code@std@@QBEABVerror_category@2@XZ 0092e500 f i stdafx.obj
 0001:0002d510       ??0error_condition@std@@QAE@HABVerror_category@1@@Z 0092e510 f i stdafx.obj
 0001:0002d530       ?value@error_condition@std@@QBEHXZ 0092e530 f i stdafx.obj
 0001:0002d540       ?category@error_condition@std@@QBEABVerror_category@2@XZ 0092e540 f i stdafx.obj
 0001:0002d550       ??8error_condition@std@@QBE_NABV01@@Z 0092e550 f i stdafx.obj
 0001:0002d570       ?default_error_condition@error_category@std@@UBE?AVerror_condition@2@H@Z 0092e570 f i stdafx.obj
 0001:0002d580       ?equivalent@error_category@std@@UBE_NHABVerror_condition@2@@Z 0092e580 f i stdafx.obj
 0001:0002d5c0       ?equivalent@error_category@std@@UBE_NABVerror_code@2@H@Z 0092e5c0 f i stdafx.obj
 0001:0002d5e0       ??0_Generic_error_category@std@@QAE@XZ 0092e5e0 f i stdafx.obj
 0001:0002d630       ?name@_Generic_error_category@std@@UBEPBDXZ 0092e630 f i stdafx.obj
 0001:0002d640       ?message@_Generic_error_category@std@@UBE?AV?$basic_string@DU?$char_traits@D@std@@V?$allocator@D@2@@2@H@Z 0092e640 f i stdafx.obj
 0001:0002d6e0       ??_G_Generic_error_category@std@@UAEPAXI@Z 0092e6e0 f i stdafx.obj
 0001:0002d6e0       ??_E_Generic_error_category@std@@UAEPAXI@Z 0092e6e0 f i * CIL library *:* CIL module *
 0001:0002d740       ??1_Generic_error_category@std@@UAE@XZ 0092e740 f i stdafx.obj
 0001:0002d780       ??0_Iostream_error_category@std@@QAE@XZ 0092e780 f i stdafx.obj
 0001:0002d7f0       ?name@_Iostream_error_category@std@@UBEPBDXZ 0092e7f0 f i stdafx.obj
 0001:0002d800       ?message@_Iostream_error_category@std@@UBE?AV?$basic_string@DU?$char_traits@D@std@@V?$allocator@D@2@@2@H@Z 0092e800 f i stdafx.obj
 0001:0002d880       ??_G_Iostream_error_category@std@@UAEPAXI@Z 0092e880 f i stdafx.obj
 0001:0002d880       ??_E_Iostream_error_category@std@@UAEPAXI@Z 0092e880 f i * CIL library *:* CIL module *
 0001:0002d8e0       ??1_Iostream_error_category@std@@UAE@XZ 0092e8e0 f i stdafx.obj
 0001:0002d920       ??0_System_error_category@std@@QAE@XZ 0092e920 f i stdafx.obj
 0001:0002d990       ?name@_System_error_category@std@@UBEPBDXZ 0092e990 f i stdafx.obj
 0001:0002d9a0       ?message@_System_error_category@std@@UBE?AV?$basic_string@DU?$char_traits@D@std@@V?$allocator@D@2@@2@H@Z 0092e9a0 f i stdafx.obj
 0001:0002da40       ?default_error_condition@_System_error_category@std@@UBE?AVerror_condition@2@H@Z 0092ea40 f i stdafx.obj
 0001:0002da70       ??_G_System_error_category@std@@UAEPAXI@Z 0092ea70 f i stdafx.obj
 0001:0002da70       ??_E_System_error_category@std@@UAEPAXI@Z 0092ea70 f i * CIL library *:* CIL module *
 0001:0002dad0       ??1_System_error_category@std@@UAE@XZ 0092ead0 f i stdafx.obj
 0001:0002db10       ?generic_category@std@@YAABVerror_category@1@XZ 0092eb10 f i stdafx.obj
 0001:0002db20       ?system_category@std@@YAABVerror_category@1@XZ 0092eb20 f i stdafx.obj
 0001:0002db30       ?get_crashhandler@xrDebug@@QAEP6AXXZXZ 0092eb30 f i stdafx.obj
 0001:0002db40       ?set_crashhandler@xrDebug@@QAEXP6AXXZ@Z 0092eb40 f i stdafx.obj
 0001:0002db50       ?get_on_dialog@xrDebug@@QAEP6AX_N@ZXZ 0092eb50 f i stdafx.obj
 0001:0002db60       ?set_on_dialog@xrDebug@@QAEXP6AX_N@Z@Z 0092eb60 f i stdafx.obj
 0001:0002db70       ??4xrDebug@@QAEAAV0@ABV0@@Z 0092eb70 f i stdafx.obj
 0001:0002db90       ?iFloor@@YAHM@Z            0092eb90 f i stdafx.obj
 0001:0002dbf0       ?iCeil@@YAHM@Z             0092ebf0 f i stdafx.obj
 0001:0002dc50       ??4xr_token@@QAEAAU0@ABU0@@Z 0092ec50 f i stdafx.obj
 0001:0002dc70       ??4xr_token2@@QAEAAU0@ABU0@@Z 0092ec70 f i stdafx.obj
 0001:0002dc90       ?xr_strcmp@@YAHPBD0@Z      0092ec90 f i stdafx.obj
 0001:0002dcc0       ?angle_normalize_always@@YAMM@Z 0092ecc0 f i stdafx.obj
 0001:0002dd90       ?angle_normalize@@YAMM@Z   0092ed90 f i stdafx.obj
 0001:0002de70       ??4xrCriticalSection@@QAEAAV0@ABV0@@Z 0092ee70 f i stdafx.obj
 0001:0002de90       ?mem_counter_set@xrMemory@@QAEXI@Z 0092ee90 f i stdafx.obj
 0001:0002dea0       ?mem_counter_get@xrMemory@@QAEIXZ 0092eea0 f i stdafx.obj
 0001:0002deb0       ??4xrMemory@@QAEAAV0@ABV0@@Z 0092eeb0 f i stdafx.obj
 0001:0002ded0       ??2@YAPAXI@Z               0092eed0 f i stdafx.obj
 0001:0002def0       ??4smem_value@@QAEAAU0@ABU0@@Z 0092eef0 f i stdafx.obj
 0001:0002df10       ??0smem_container@@QAE@XZ  0092ef10 f i stdafx.obj
 0001:0002df80       ??0smem_container@@QAE@ABV0@@Z 0092ef80 f i stdafx.obj
 0001:0002dff0       ??4smem_container@@QAEAAV0@ABV0@@Z 0092eff0 f i stdafx.obj
 0001:0002e020       ??1?$xr_vector@PAUsmem_value@@V?$xalloc@PAUsmem_value@@@@@@QAE@XZ 0092f020 f i stdafx.obj
 0001:0002e080       ??0?$xr_vector@PAUsmem_value@@V?$xalloc@PAUsmem_value@@@@@@QAE@ABV0@@Z 0092f080 f i stdafx.obj
 0001:0002e0d0       ??4?$xr_vector@PAUsmem_value@@V?$xalloc@PAUsmem_value@@@@@@QAEAAV0@ABV0@@Z 0092f0d0 f i stdafx.obj
 0001:0002e0f0       ??4str_value@@QAEAAU0@ABU0@@Z 0092f0f0 f i stdafx.obj
 0001:0002e110       ??Rstr_value_cmp@@QBE_NPBUstr_value@@0@Z 0092f110 f i stdafx.obj
 0001:0002e130       ??4str_value_cmp@@QAEAAU0@ABU0@@Z 0092f130 f i stdafx.obj
 0001:0002e140       ??0str_container@@QAE@XZ   0092f140 f i stdafx.obj
 0001:0002e1b0       ??0str_container@@QAE@ABV0@@Z 0092f1b0 f i stdafx.obj
 0001:0002e220       ??4str_container@@QAEAAV0@ABV0@@Z 0092f220 f i stdafx.obj
 0001:0002e270       ??0?$xr_multiset@PAUstr_value@@Ustr_value_cmp@@V?$xalloc@PAUstr_value@@@@@@QAE@XZ 0092f270 f i stdafx.obj
 0001:0002e2c0       ??1?$xr_multiset@PAUstr_value@@Ustr_value_cmp@@V?$xalloc@PAUstr_value@@@@@@QAE@XZ 0092f2c0 f i stdafx.obj
 0001:0002e320       ??0?$xr_multiset@PAUstr_value@@Ustr_value_cmp@@V?$xalloc@PAUstr_value@@@@@@QAE@ABV0@@Z 0092f320 f i stdafx.obj
 0001:0002e370       ??4?$xr_multiset@PAUstr_value@@Ustr_value_cmp@@V?$xalloc@PAUstr_value@@@@@@QAEAAV0@ABV0@@Z 0092f370 f i stdafx.obj
 0001:0002e3a0       ??1?$multiset@PAUstr_value@@Ustr_value_cmp@@V?$xalloc@PAUstr_value@@@@@std@@QAE@XZ 0092f3a0 f i stdafx.obj
 0001:0002e400       ?_dec@shared_str@@IAEXXZ   0092f400 f i stdafx.obj
 0001:0002e420       ?_set@shared_str@@QAEXPBD@Z 0092f420 f i stdafx.obj
 0001:0002e460       ?_set@shared_str@@QAEXABV1@@Z 0092f460 f i stdafx.obj
 0001:0002e490       ??0shared_str@@QAE@XZ      0092f490 f i stdafx.obj
 0001:0002e4a0       ??0shared_str@@QAE@PBD@Z   0092f4a0 f i stdafx.obj
 0001:0002e4f0       ??0shared_str@@QAE@ABV0@@Z 0092f4f0 f i stdafx.obj
 0001:0002e530       ??1shared_str@@QAE@XZ      0092f530 f i stdafx.obj
 0001:0002e550       ??4shared_str@@QAEAAV0@PBD@Z 0092f550 f i stdafx.obj
 0001:0002e590       ??4shared_str@@QAEAAV0@ABV0@@Z 0092f590 f i stdafx.obj
 0001:0002e5c0       ??Dshared_str@@QBEPBDXZ    0092f5c0 f i stdafx.obj
 0001:0002e5d0       ?size@shared_str@@QBEIXZ   0092f5d0 f i stdafx.obj
 0001:0002e5e0       ??0xr_resource@@QAE@XZ     0092f5e0 f i stdafx.obj
 0001:0002e5f0       ??4xr_resource@@QAEAAV0@ABV0@@Z 0092f5f0 f i stdafx.obj
 0001:0002e600       ??0xr_resource_flagged@@QAE@XZ 0092f600 f i stdafx.obj
 0001:0002e610       ??4xr_resource_flagged@@QAEAAV0@ABV0@@Z 0092f610 f i stdafx.obj
 0001:0002e630       ?set_name@xr_resource_named@@QAEPBDPBD@Z 0092f630 f i stdafx.obj
 0001:0002e680       ??0xr_resource_named@@QAE@XZ 0092f680 f i stdafx.obj
 0001:0002e700       ??1xr_resource_named@@QAE@XZ 0092f700 f i stdafx.obj
 0001:0002e750       ??0xr_resource_named@@QAE@ABV0@@Z 0092f750 f i stdafx.obj
 0001:0002e7c0       ??4xr_resource_named@@QAEAAV0@ABV0@@Z 0092f7c0 f i stdafx.obj
 0001:0002e800       ??1shared_value@@UAE@XZ    0092f800 f i stdafx.obj
 0001:0002e810       ??0shared_value@@QAE@XZ    0092f810 f i stdafx.obj
 0001:0002e820       ??0shared_value@@QAE@ABV0@@Z 0092f820 f i stdafx.obj
 0001:0002e840       ??4shared_value@@QAEAAV0@ABV0@@Z 0092f840 f i stdafx.obj
 0001:0002e850       ??_Gshared_value@@UAEPAXI@Z 0092f850 f i stdafx.obj
 0001:0002e880       ??_Eshared_value@@UAEPAXI@Z 0092f880 f i stdafx.obj
 0001:0002e8f0       ?size@string_tupples@detail@core@xray@@QBEIXZ 0092f8f0 f i stdafx.obj
 0001:0002ea40       ?concat@string_tupples@detail@core@xray@@QBEXQBD@Z 0092fa40 f i stdafx.obj
 0001:0002eaa0       ??4string_tupples@detail@core@xray@@QAEAAV0123@ABV0123@@Z 0092faa0 f i stdafx.obj
 0001:0002eb00       ??0xr_rtoken@@QAE@PBDH@Z   0092fb00 f i stdafx.obj
 0001:0002eb80       ?rename@xr_rtoken@@QAEXPBD@Z 0092fb80 f i stdafx.obj
 0001:0002ebc0       ?equal@xr_rtoken@@QAE_NPBD@Z 0092fbc0 f i stdafx.obj
 0001:0002ec10       ??1xr_rtoken@@QAE@XZ       0092fc10 f i stdafx.obj
 0001:0002ec60       ??0xr_rtoken@@QAE@ABU0@@Z  0092fc60 f i stdafx.obj
 0001:0002ecd0       ??4xr_rtoken@@QAEAAU0@ABU0@@Z 0092fcd0 f i stdafx.obj
 0001:0002ed00       ??0xr_shortcut@@QAE@EHHH@Z 0092fd00 f i stdafx.obj
 0001:0002ed40       ??0xr_shortcut@@QAE@XZ     0092fd40 f i stdafx.obj
 0001:0002ed50       ?similar@xr_shortcut@@QBE_NABU1@@Z 0092fd50 f i stdafx.obj
 0001:0002ed70       ??4xr_shortcut@@QAEAAU0@ABU0@@Z 0092fd70 f i stdafx.obj
 0001:0002ed80       ?limit32@@YAH_J@Z          0092fd80 f i stdafx.obj
 0001:0002eda0       ?size_in_mib@@YAO_K@Z      0092fda0 f i stdafx.obj
 0001:0002edc0       ??0IFileSystemResource@@QAE@XZ 0092fdc0 f i stdafx.obj
 0001:0002edd0       ??1IFileSystemResource@@UAE@XZ 0092fdd0 f i stdafx.obj
 0001:0002ee10       ??0IFileSystemResource@@QAE@ABV0@@Z 0092fe10 f i stdafx.obj
 0001:0002ee30       ??4IFileSystemResource@@QAEAAV0@ABV0@@Z 0092fe30 f i stdafx.obj
 0001:0002ee40       ??_GIFileSystemResource@@UAEPAXI@Z 0092fe40 f i stdafx.obj
 0001:0002eea0       ??_EIFileSystemResource@@UAEPAXI@Z 0092fea0 f i stdafx.obj
 0001:0002ef40       ??0IWriter@@QAE@XZ         0092ff40 f i stdafx.obj
 0001:0002efc0       ??1IWriter@@UAE@XZ         0092ffc0 f i stdafx.obj
 0001:0002f0e0       ?w_u64@IWriter@@QAEX_K@Z   009300e0 f i stdafx.obj
 0001:0002f0f0       ?w_u32@IWriter@@QAEXI@Z    009300f0 f i stdafx.obj
 0001:0002f100       ?w_u16@IWriter@@QAEXG@Z    00930100 f i stdafx.obj
 0001:0002f110       ?w_u8@IWriter@@QAEXE@Z     00930110 f i stdafx.obj
 0001:0002f120       ?w_s64@IWriter@@QAEX_J@Z   00930120 f i stdafx.obj
 0001:0002f130       ?w_s32@IWriter@@QAEXH@Z    00930130 f i stdafx.obj
 0001:0002f140       ?w_s16@IWriter@@QAEXF@Z    00930140 f i stdafx.obj
 0001:0002f150       ?w_s8@IWriter@@QAEXC@Z     00930150 f i stdafx.obj
 0001:0002f160       ?w_float@IWriter@@QAEXM@Z  00930160 f i stdafx.obj
 0001:0002f170       ?w_string@IWriter@@QAEXPBD@Z 00930170 f i stdafx.obj
 0001:0002f1c0       ?w_stringZ@IWriter@@QAEXPBD@Z 009301c0 f i stdafx.obj
 0001:0002f1f0       ?w_stringZ@IWriter@@QAEXABVshared_str@@@Z 009301f0 f i stdafx.obj
 0001:0002f240       ?w_stringZ@IWriter@@QAEXAAVshared_str@@@Z 00930240 f i stdafx.obj
 0001:0002f290       ?w_stringZ@IWriter@@QAEXABV?$basic_string@DU?$char_traits@D@std@@V?$xalloc@D@@@std@@@Z 00930290 f i stdafx.obj
 0001:0002f2e0       ?w_fcolor@IWriter@@QAEXABU?$_color@M@@@Z 009302e0 f i stdafx.obj
 0001:0002f2f0       ?w_fvector4@IWriter@@QAEXABU?$_vector4@M@@@Z 009302f0 f i stdafx.obj
 0001:0002f300       ?w_fvector3@IWriter@@QAEXABU?$_vector3@M@@@Z 00930300 f i stdafx.obj
 0001:0002f310       ?w_fvector2@IWriter@@QAEXABU?$_vector2@M@@@Z 00930310 f i stdafx.obj
 0001:0002f320       ?w_ivector4@IWriter@@QAEXABU?$_vector4@H@@@Z 00930320 f i stdafx.obj
 0001:0002f330       ?w_ivector3@IWriter@@QAEXABU?$_vector3@H@@@Z 00930330 f i stdafx.obj
 0001:0002f340       ?w_ivector2@IWriter@@QAEXABU?$_vector2@H@@@Z 00930340 f i stdafx.obj
 0001:0002f350       ?w_float_q16@IWriter@@QAEXMMM@Z 00930350 f i stdafx.obj
 0001:0002f3f0       ?w_float_q8@IWriter@@QAEXMMM@Z 009303f0 f i stdafx.obj
 0001:0002f490       ?w_angle16@IWriter@@QAEXM@Z 00930490 f i stdafx.obj
 0001:0002f5f0       ?w_angle8@IWriter@@QAEXM@Z 009305f0 f i stdafx.obj
 0001:0002f760       ?w_dir@IWriter@@QAEXABU?$_vector3@M@@@Z 00930760 f i stdafx.obj
 0001:0002f790       ?valid@IWriter@@UAE_NXZ    00930790 f i stdafx.obj
 0001:0002f7a0       ?flush@IWriter@@UAEHXZ     009307a0 f i stdafx.obj
 0001:0002f7b0       ??0IWriter@@QAE@ABV0@@Z    009307b0 f i stdafx.obj
 0001:0002f850       ??4IWriter@@QAEAAV0@ABV0@@Z 00930850 f i stdafx.obj
 0001:0002f8a0       ??_GIWriter@@UAEPAXI@Z     009308a0 f i stdafx.obj
 0001:0002f8d0       ??_EIWriter@@UAEPAXI@Z     009308d0 f i stdafx.obj
 0001:0002f940       ??0?$xr_stack@IV?$xr_vector@IV?$xalloc@I@@@@@@QAE@XZ 00930940 f i stdafx.obj
 0001:0002f990       ??1?$xr_stack@IV?$xr_vector@IV?$xalloc@I@@@@@@QAE@XZ 00930990 f i stdafx.obj
 0001:0002fa00       ??0?$xr_stack@IV?$xr_vector@IV?$xalloc@I@@@@@@QAE@ABV0@@Z 00930a00 f i stdafx.obj
 0001:0002fa50       ??4?$xr_stack@IV?$xr_vector@IV?$xalloc@I@@@@@@QAEAAV0@ABV0@@Z 00930a50 f i stdafx.obj
 0001:0002fa70       ??1?$xr_vector@IV?$xalloc@I@@@@QAE@XZ 00930a70 f i stdafx.obj
 0001:0002fad0       ??0?$xr_vector@IV?$xalloc@I@@@@QAE@ABV0@@Z 00930ad0 f i stdafx.obj
 0001:0002fb20       ??4?$xr_vector@IV?$xalloc@I@@@@QAEAAV0@ABV0@@Z 00930b20 f i stdafx.obj
 0001:0002fb40       ??0CMemoryWriter@@QAE@XZ   00930b40 f i stdafx.obj
 0001:0002fbf0       ?seek@CMemoryWriter@@UAEXI@Z 00930bf0 f i stdafx.obj
 0001:0002fc00       ?tell@CMemoryWriter@@UAEIXZ 00930c00 f i stdafx.obj
 0001:0002fc10       ?pointer@CMemoryWriter@@QAEPAEXZ 00930c10 f i stdafx.obj
 0001:0002fc20       ?size@CMemoryWriter@@QBEIXZ 00930c20 f i stdafx.obj
 0001:0002fc30       ?clear@CMemoryWriter@@QAEXXZ 00930c30 f i stdafx.obj
 0001:0002fc40       ?free@CMemoryWriter@@QAEXXZ 00930c40 f i stdafx.obj
 0001:0002fc60       ??0CMemoryWriter@@QAE@ABV0@@Z 00930c60 f i stdafx.obj
 0001:0002fcd0       ??4CMemoryWriter@@QAEAAV0@ABV0@@Z 00930cd0 f i stdafx.obj
 0001:0002fd30       ??_GCMemoryWriter@@UAEPAXI@Z 00930d30 f i stdafx.obj
 0001:0002fd60       ??_ECMemoryWriter@@UAEPAXI@Z 00930d60 f i stdafx.obj
 0001:0002fdd0       ?ZeroInit@IReader@@IAEXXZ  00930dd0 f i stdafx.obj
 0001:0002fe30       ??0IReader@@QAE@XZ         00930e30 f i stdafx.obj
 0001:0002fef0       ??0IReader@@QAE@PAX_J1@Z   00930ef0 f i stdafx.obj
 0001:0002ffe0       ?next_chunk@IReader@@QAE_JXZ 00930fe0 f i stdafx.obj
 0001:0002fff0       ?set_next_chunk@IReader@@QAEX_J@Z 00930ff0 f i stdafx.obj
 0001:00030030       ?header_offset@IReader@@QAE_JXZ 00931030 f i stdafx.obj
 0001:00030050       ?correction@IReader@@IAEII@Z 00931050 f i stdafx.obj
 0001:00030070       ?elapsed@IReader@@QBEHXZ   00931070 f i stdafx.obj
 0001:000300c0       ?tell@IReader@@QBEHXZ      009310c0 f i stdafx.obj
 0001:00030100       ?seek@IReader@@QAEXH@Z     00931100 f i stdafx.obj
 0001:00030130       ?length@IReader@@QBEHXZ    00931130 f i stdafx.obj
 0001:00030160       ?pointer@IReader@@QBEPAXXZ 00931160 f i stdafx.obj
 0001:00030170       ?advance@IReader@@QAEXH@Z  00931170 f i stdafx.obj
 0001:000301a0       ?elapsed64@IReader@@QBE_JXZ 009311a0 f i stdafx.obj
 0001:000301e0       ?tell64@IReader@@QBE_JXZ   009311e0 f i stdafx.obj
 0001:00030210       ?tell_mib@IReader@@QBEOXZ  00931210 f i stdafx.obj
 0001:00030240       ?seek64@IReader@@QAEX_J@Z  00931240 f i stdafx.obj
 0001:00030270       ?length64@IReader@@QBE_JXZ 00931270 f i stdafx.obj
 0001:00030280       ?length_mib@IReader@@QBEOXZ 00931280 f i stdafx.obj
 0001:000302b0       ?advance64@IReader@@QAEX_J@Z 009312b0 f i stdafx.obj
 0001:000302f0       ??0?$IReaderBase@VIReader@@@@QAE@ABV0@@Z 009312f0 f i stdafx.obj
 0001:00030350       ??0?$IReaderBase@VIReader@@@@QAE@XZ 00931350 f i stdafx.obj
 0001:000303a0       ??1?$IReaderBase@VIReader@@@@UAE@XZ 009313a0 f i stdafx.obj
 0001:00030410       ??4?$IReaderBase@VIReader@@@@QAEAAV0@ABV0@@Z 00931410 f i stdafx.obj
 0001:00030420       ??1IReader@@UAE@XZ         00931420 f i stdafx.obj
 0001:00030490       ??0IReader@@QAE@ABV0@@Z    00931490 f i stdafx.obj
 0001:00030560       ??4IReader@@QAEAAV0@ABV0@@Z 00931560 f i stdafx.obj
 0001:00030610       ??_GIReader@@UAEPAXI@Z     00931610 f i stdafx.obj
 0001:000306a0       ??_EIReader@@UAEPAXI@Z     009316a0 f i stdafx.obj
 0001:00030770       ??_G?$IReaderBase@VIReader@@@@UAEPAXI@Z 00931770 f i stdafx.obj
 0001:00030800       ??_E?$IReaderBase@VIReader@@@@UAEPAXI@Z 00931800 f i stdafx.obj
 0001:000308d0       ??0CVirtualFileRW@@QAE@ABV0@@Z 009318d0 f i stdafx.obj
 0001:00030930       ??4CVirtualFileRW@@QAEAAV0@ABV0@@Z 00931930 f i stdafx.obj
 0001:00030960       ??_GCVirtualFileRW@@UAEPAXI@Z 00931960 f i stdafx.obj
 0001:00030990       ??_ECVirtualFileRW@@UAEPAXI@Z 00931990 f i stdafx.obj
 0001:00030a00       ??0Item@CInifile@@QAE@XZ   00931a00 f i stdafx.obj
 0001:00030ab0       ?IsBOOL@CInifile@@SAHPBD@Z 00931ab0 f i stdafx.obj
 0001:00030b90       ?add_ref@CInifile@@UAEPAV1@XZ 00931b90 f i stdafx.obj
 0001:00030ba0       ?reload@CInifile@@QAEXXZ   00931ba0 f i stdafx.obj
 0001:00030bb0       ?fname@CInifile@@QAEPBDXZ  00931bb0 f i stdafx.obj
 0001:00030bc0       ?sections@CInifile@@QAEAAV?$xr_map@Vshared_str@@PAUSect@CInifile@@U?$less@Vshared_str@@@std@@V?$xalloc@U?$pair@Vshared_str@@PAUSect@CInifile@@@std@@@@@@XZ 00931bc0 f i stdafx.obj
 0001:00030bd0       ?r_clsid@CInifile@@QAE_KABVshared_str@@PBD@Z 00931bd0 f i stdafx.obj
 0001:00030c00       ?r_string@CInifile@@QAEPBDABVshared_str@@PBD@Z 00931c00 f i stdafx.obj
 0001:00030c30       ?r_string_wb@CInifile@@QAE?AVshared_str@@ABV2@PBD@Z 00931c30 f i stdafx.obj
 0001:00030c90       ?r_u8@CInifile@@QAEEABVshared_str@@PBD@Z 00931c90 f i stdafx.obj
 0001:00030cc0       ?r_u16@CInifile@@QAEGABVshared_str@@PBD@Z 00931cc0 f i stdafx.obj
 0001:00030cf0       ?r_u32@CInifile@@QAEIABVshared_str@@PBD@Z 00931cf0 f i stdafx.obj
 0001:00030d20       ?r_s8@CInifile@@QAECABVshared_str@@PBD@Z 00931d20 f i stdafx.obj
 0001:00030d50       ?r_s16@CInifile@@QAEFABVshared_str@@PBD@Z 00931d50 f i stdafx.obj
 0001:00030d80       ?r_s32@CInifile@@QAEHABVshared_str@@PBD@Z 00931d80 f i stdafx.obj
 0001:00030db0       ?r_float@CInifile@@QAEMABVshared_str@@PBD@Z 00931db0 f i stdafx.obj
 0001:00030de0       ?r_fcolor@CInifile@@QAE?AU?$_color@M@@ABVshared_str@@PBD@Z 00931de0 f i stdafx.obj
 0001:00030e20       ?r_color@CInifile@@QAEIABVshared_str@@PBD@Z 00931e20 f i stdafx.obj
 0001:00030e50       ?r_ivector2@CInifile@@QAE?AU?$_vector2@H@@ABVshared_str@@PBD@Z 00931e50 f i stdafx.obj
 0001:00030e90       ?r_ivector3@CInifile@@QAE?AU?$_vector3@H@@ABVshared_str@@PBD@Z 00931e90 f i stdafx.obj
 0001:00030ed0       ?r_ivector4@CInifile@@QAE?AU?$_vector4@H@@ABVshared_str@@PBD@Z 00931ed0 f i stdafx.obj
 0001:00030f10       ?r_fvector2@CInifile@@QAE?AU?$_vector2@M@@ABVshared_str@@PBD@Z 00931f10 f i stdafx.obj
 0001:00030f50       ?r_fvector3@CInifile@@QAE?AU?$_vector3@M@@ABVshared_str@@PBD@Z 00931f50 f i stdafx.obj
 0001:00030f90       ?r_fvector4@CInifile@@QAE?AU?$_vector4@M@@ABVshared_str@@PBD@Z 00931f90 f i stdafx.obj
 0001:00030fd0       ?r_bool@CInifile@@QAEHABVshared_str@@PBD@Z 00931fd0 f i stdafx.obj
 0001:00031000       ??1Item@CInifile@@QAE@XZ   00932000 f i stdafx.obj
 0001:00031070       ??0Item@CInifile@@QAE@ABU01@@Z 00932070 f i stdafx.obj
 0001:00031110       ??4Item@CInifile@@QAEAAU01@ABU01@@Z 00932110 f i stdafx.obj
 0001:00031170       ??0Sect@CInifile@@QAE@XZ   00932170 f i stdafx.obj
 0001:000311d0       ??1Sect@CInifile@@QAE@XZ   009321d0 f i stdafx.obj
 0001:00031270       ??0Sect@CInifile@@QAE@ABU01@@Z 00932270 f i stdafx.obj
 0001:000312f0       ??4Sect@CInifile@@QAEAAU01@ABU01@@Z 009322f0 f i stdafx.obj
 0001:00031330       ??0CInifile@@QAE@ABV0@@Z   00932330 f i stdafx.obj
 0001:000313d0       ??4CInifile@@QAEAAV0@ABV0@@Z 009323d0 f i stdafx.obj
 0001:00031480       ??_GCInifile@@UAEPAXI@Z    00932480 f i stdafx.obj
 0001:000314a0       ??_ECInifile@@UAEPAXI@Z    009324a0 f i stdafx.obj
 0001:00031500       ??1?$xr_vector@UItem@CInifile@@V?$xalloc@UItem@CInifile@@@@@@QAE@XZ 00932500 f i stdafx.obj
 0001:00031570       ??0?$xr_vector@UItem@CInifile@@V?$xalloc@UItem@CInifile@@@@@@QAE@ABV0@@Z 00932570 f i stdafx.obj
 0001:000315c0       ??4?$xr_vector@UItem@CInifile@@V?$xalloc@UItem@CInifile@@@@@@QAEAAV0@ABV0@@Z 009325c0 f i stdafx.obj
 0001:000315e0       ??0?$xr_map@Vshared_str@@PAUSect@CInifile@@U?$less@Vshared_str@@@std@@V?$xalloc@U?$pair@Vshared_str@@PAUSect@CInifile@@@std@@@@@@QAE@ABV0@@Z 009325e0 f i stdafx.obj
 0001:00031630       ??1?$xr_map@Vshared_str@@PAUSect@CInifile@@U?$less@Vshared_str@@@std@@V?$xalloc@U?$pair@Vshared_str@@PAUSect@CInifile@@@std@@@@@@QAE@XZ 00932630 f i stdafx.obj
 0001:00031690       ??0?$xr_map@Vshared_str@@V1@U?$less@Vshared_str@@@std@@V?$xalloc@U?$pair@Vshared_str@@V1@@std@@@@@@QAE@ABV0@@Z 00932690 f i stdafx.obj
 0001:000316e0       ??1?$xr_map@Vshared_str@@V1@U?$less@Vshared_str@@@std@@V?$xalloc@U?$pair@Vshared_str@@V1@@std@@@@@@QAE@XZ 009326e0 f i stdafx.obj
 0001:00031740       ??4?$xr_map@Vshared_str@@PAUSect@CInifile@@U?$less@Vshared_str@@@std@@V?$xalloc@U?$pair@Vshared_str@@PAUSect@CInifile@@@std@@@@@@QAEAAV0@ABV0@@Z 00932740 f i stdafx.obj
 0001:00031790       ??4?$xr_map@Vshared_str@@V1@U?$less@Vshared_str@@@std@@V?$xalloc@U?$pair@Vshared_str@@V1@@std@@@@@@QAEAAV0@ABV0@@Z 00932790 f i stdafx.obj
 0001:000317e0       ??1?$map@Vshared_str@@PAUSect@CInifile@@U?$less@Vshared_str@@@std@@V?$xalloc@U?$pair@Vshared_str@@PAUSect@CInifile@@@std@@@@@std@@QAE@XZ 009327e0 f i stdafx.obj
 0001:00031840       ??1?$map@Vshared_str@@V1@U?$less@Vshared_str@@@std@@V?$xalloc@U?$pair@Vshared_str@@V1@@std@@@@@std@@QAE@XZ 00932840 f i stdafx.obj
 0001:000318a0       ??4FS_Path@@QAEAAV0@ABV0@@Z 009328a0 f i stdafx.obj
 0001:000318c0       ??0FS_File@@QAE@XZ         009328c0 f i stdafx.obj
 0001:00031910       ??MFS_File@@QBE_NABU0@@Z   00932910 f i stdafx.obj
 0001:00031970       ??1FS_File@@QAE@XZ         00932970 f i stdafx.obj
 0001:000319d0       ??0FS_File@@QAE@ABU0@@Z    009329d0 f i stdafx.obj
 0001:00031a50       ??4FS_File@@QAEAAU0@ABU0@@Z 00932a50 f i stdafx.obj
 0001:00031a90       ?r_open@CLocatorAPI@@QAEPAVIReader@@PBD@Z 00932a90 f i stdafx.obj
 0001:00031aa0       ?w_open@CLocatorAPI@@QAEPAVIWriter@@PBD@Z 00932aa0 f i stdafx.obj
 0001:00031ab0       ?w_open_ex@CLocatorAPI@@QAEPAVIWriter@@PBD@Z 00932ab0 f i stdafx.obj
 0001:00031ac0       ?dir_delete@CLocatorAPI@@QAEHPBDH@Z 00932ac0 f i stdafx.obj
 0001:00031ae0       ?file_delete@CLocatorAPI@@QAEXPBD@Z 00932ae0 f i stdafx.obj
 0001:00031af0       ??0CLocatorAPI@@QAE@ABV0@@Z 00932af0 f i stdafx.obj
 0001:00031bf0       ??4CLocatorAPI@@QAEAAV0@ABV0@@Z 00932bf0 f i stdafx.obj
 0001:00031d40       ??0?$xr_map@PBDPAVFS_Path@@Upred_str@@V?$xalloc@U?$pair@PBDPAVFS_Path@@@std@@@@@@QAE@ABV0@@Z 00932d40 f i stdafx.obj
 0001:00031d90       ??1?$xr_map@PBDPAVFS_Path@@Upred_str@@V?$xalloc@U?$pair@PBDPAVFS_Path@@@std@@@@@@QAE@XZ 00932d90 f i stdafx.obj
 0001:00031df0       ??0?$xr_vector@U_finddata64i32_t@@V?$xalloc@U_finddata64i32_t@@@@@@QAE@ABV0@@Z 00932df0 f i stdafx.obj
 0001:00031e40       ??1?$xr_vector@U_finddata64i32_t@@V?$xalloc@U_finddata64i32_t@@@@@@QAE@XZ 00932e40 f i stdafx.obj
 0001:00031ea0       ??0?$xr_set@Ufile@CLocatorAPI@@Ufile_pred@2@V?$xalloc@Ufile@CLocatorAPI@@@@@@QAE@ABV0@@Z 00932ea0 f i stdafx.obj
 0001:00031ef0       ??1?$xr_set@Ufile@CLocatorAPI@@Ufile_pred@2@V?$xalloc@Ufile@CLocatorAPI@@@@@@QAE@XZ 00932ef0 f i stdafx.obj
 0001:00031f50       ??0?$xr_vector@Uarchive@CLocatorAPI@@V?$xalloc@Uarchive@CLocatorAPI@@@@@@QAE@ABV0@@Z 00932f50 f i stdafx.obj
 0001:00031fa0       ??1?$xr_vector@Uarchive@CLocatorAPI@@V?$xalloc@Uarchive@CLocatorAPI@@@@@@QAE@XZ 00932fa0 f i stdafx.obj
 0001:00032010       ??0?$xr_map@Vshared_str@@U_FILE_ACCESS_STAT@@U?$less@Vshared_str@@@std@@V?$xalloc@U?$pair@Vshared_str@@U_FILE_ACCESS_STAT@@@std@@@@@@QAE@ABV0@@Z 00933010 f i stdafx.obj
 0001:00032060       ??1?$xr_map@Vshared_str@@U_FILE_ACCESS_STAT@@U?$less@Vshared_str@@@std@@V?$xalloc@U?$pair@Vshared_str@@U_FILE_ACCESS_STAT@@@std@@@@@@QAE@XZ 00933060 f i stdafx.obj
 0001:000320c0       ??0?$xr_map@Vshared_str@@V?$xr_vector@PAVIReader@@V?$xalloc@PAVIReader@@@@@@U?$less@Vshared_str@@@std@@V?$xalloc@U?$pair@Vshared_str@@V?$xr_vector@PAVIReader@@V?$xalloc@PAVIReader@@@@@@@std@@@@@@QAE@ABV0@@Z 009330c0 f i stdafx.obj
 0001:00032110       ??1?$xr_map@Vshared_str@@V?$xr_vector@PAVIReader@@V?$xalloc@PAVIReader@@@@@@U?$less@Vshared_str@@@std@@V?$xalloc@U?$pair@Vshared_str@@V?$xr_vector@PAVIReader@@V?$xalloc@PAVIReader@@@@@@@std@@@@@@QAE@XZ 00933110 f i stdafx.obj
 0001:00032170       ??4?$xr_map@PBDPAVFS_Path@@Upred_str@@V?$xalloc@U?$pair@PBDPAVFS_Path@@@std@@@@@@QAEAAV0@ABV0@@Z 00933170 f i stdafx.obj
 0001:000321c0       ??4?$xr_vector@U_finddata64i32_t@@V?$xalloc@U_finddata64i32_t@@@@@@QAEAAV0@ABV0@@Z 009331c0 f i stdafx.obj
 0001:000321e0       ??4?$xr_set@Ufile@CLocatorAPI@@Ufile_pred@2@V?$xalloc@Ufile@CLocatorAPI@@@@@@QAEAAV0@ABV0@@Z 009331e0 f i stdafx.obj
 0001:00032230       ??4?$xr_vector@Uarchive@CLocatorAPI@@V?$xalloc@Uarchive@CLocatorAPI@@@@@@QAEAAV0@ABV0@@Z 00933230 f i stdafx.obj
 0001:00032250       ??4?$xr_map@Vshared_str@@U_FILE_ACCESS_STAT@@U?$less@Vshared_str@@@std@@V?$xalloc@U?$pair@Vshared_str@@U_FILE_ACCESS_STAT@@@std@@@@@@QAEAAV0@ABV0@@Z 00933250 f i stdafx.obj
 0001:000322a0       ??4?$xr_map@Vshared_str@@V?$xr_vector@PAVIReader@@V?$xalloc@PAVIReader@@@@@@U?$less@Vshared_str@@@std@@V?$xalloc@U?$pair@Vshared_str@@V?$xr_vector@PAVIReader@@V?$xalloc@PAVIReader@@@@@@@std@@@@@@QAEAAV0@ABV0@@Z 009332a0 f i stdafx.obj
 0001:000322f0       ??1?$map@PBDPAVFS_Path@@Upred_str@@V?$xalloc@U?$pair@PBDPAVFS_Path@@@std@@@@@std@@QAE@XZ 009332f0 f i stdafx.obj
 0001:00032350       ??1?$set@Ufile@CLocatorAPI@@Ufile_pred@2@V?$xalloc@Ufile@CLocatorAPI@@@@@std@@QAE@XZ 00933350 f i stdafx.obj
 0001:000323b0       ??1?$map@Vshared_str@@U_FILE_ACCESS_STAT@@U?$less@Vshared_str@@@std@@V?$xalloc@U?$pair@Vshared_str@@U_FILE_ACCESS_STAT@@@std@@@@@std@@QAE@XZ 009333b0 f i stdafx.obj
 0001:00032410       ??1?$map@Vshared_str@@V?$xr_vector@PAVIReader@@V?$xalloc@PAVIReader@@@@@@U?$less@Vshared_str@@@std@@V?$xalloc@U?$pair@Vshared_str@@V?$xr_vector@PAVIReader@@V?$xalloc@PAVIReader@@@@@@@std@@@@@std@@QAE@XZ 00933410 f i stdafx.obj
 0001:00032470       ?_initialize@EFS_Utils@@QAEXXZ 00933470 f i stdafx.obj
 0001:00032480       ?_destroy@EFS_Utils@@QAEXXZ 00933480 f i stdafx.obj
 0001:00032490       ??0EFS_Utils@@QAE@ABV0@@Z  00933490 f i stdafx.obj
 0001:000324f0       ??4EFS_Utils@@QAEAAV0@ABV0@@Z 009334f0 f i stdafx.obj
 0001:00032540       ??_GEFS_Utils@@UAEPAXI@Z   00933540 f i stdafx.obj
 0001:000325e0       ??_EEFS_Utils@@UAEPAXI@Z   009335e0 f i stdafx.obj
 0001:000326c0       ??0?$xr_map@V?$basic_string@DU?$char_traits@D@std@@V?$xalloc@D@@@std@@PAXU?$less@V?$basic_string@DU?$char_traits@D@std@@V?$xalloc@D@@@std@@@2@V?$xalloc@U?$pair@V?$basic_string@DU?$char_traits@D@std@@V?$xalloc@D@@@std@@PAX@std@@@@@@QAE@ABV0@@Z 009336c0 f i stdafx.obj
 0001:00032710       ??1?$xr_map@V?$basic_string@DU?$char_traits@D@std@@V?$xalloc@D@@@std@@PAXU?$less@V?$basic_string@DU?$char_traits@D@std@@V?$xalloc@D@@@std@@@2@V?$xalloc@U?$pair@V?$basic_string@DU?$char_traits@D@std@@V?$xalloc@D@@@std@@PAX@std@@@@@@QAE@XZ 00933710 f i stdafx.obj
 0001:00032770       ??4?$xr_map@V?$basic_string@DU?$char_traits@D@std@@V?$xalloc@D@@@std@@PAXU?$less@V?$basic_string@DU?$char_traits@D@std@@V?$xalloc@D@@@std@@@2@V?$xalloc@U?$pair@V?$basic_string@DU?$char_traits@D@std@@V?$xalloc@D@@@std@@PAX@std@@@@@@QAEAAV0@ABV0@@Z 00933770 f i stdafx.obj
 0001:000327c0       ??1?$map@V?$basic_string@DU?$char_traits@D@std@@V?$xalloc@D@@@std@@PAXU?$less@V?$basic_string@DU?$char_traits@D@std@@V?$xalloc@D@@@std@@@2@V?$xalloc@U?$pair@V?$basic_string@DU?$char_traits@D@std@@V?$xalloc@D@@@std@@PAX@std@@@@@std@@QAE@XZ 009337c0 f i stdafx.obj
 0001:00032820       ?Paused@pauseMngr@@QAEHXZ  00933820 f i stdafx.obj
 0001:00032830       ??0pauseMngr@@QAE@ABV0@@Z  00933830 f i stdafx.obj
 0001:00032890       ??4pauseMngr@@QAEAAV0@ABV0@@Z 00933890 f i stdafx.obj
 0001:000328b0       ??0?$xr_vector@PAVCTimer_paused@@V?$xalloc@PAVCTimer_paused@@@@@@QAE@ABV0@@Z 009338b0 f i stdafx.obj
 0001:00032900       ??4?$xr_vector@PAVCTimer_paused@@V?$xalloc@PAVCTimer_paused@@@@@@QAEAAV0@ABV0@@Z 00933900 f i stdafx.obj
 0001:00032920       ?GetElapsed_ms@CTimerBase@@QBEIXZ 00933920 f i stdafx.obj
 0001:00032990       ?GetElapsed_sec@CTimerBase@@QBEMXZ 00933990 f i stdafx.obj
 0001:00032a30       ?Dump@CTimerBase@@QBEXXZ   00933a30 f i stdafx.obj
 0001:00032a50       ??4CTimerBase@@QAEAAV0@ABV0@@Z 00933a50 f i stdafx.obj
 0001:00032a70       ?GetElapsed_ticks@CTimer@@ABE_KAB_K@Z 00933a70 f i stdafx.obj
 0001:00032ac0       ?Start@CTimer@@QAEXXZ      00933ac0 f i stdafx.obj
 0001:00032b20       ?time_factor@CTimer@@QBEABMXZ 00933b20 f i stdafx.obj
 0001:00032b30       ?time_factor@CTimer@@QAEXABM@Z 00933b30 f i stdafx.obj
 0001:00032bd0       ?GetElapsed_ticks@CTimer@@QBE_KXZ 00933bd0 f i stdafx.obj
 0001:00032c70       ?GetElapsed_ms@CTimer@@QBEIXZ 00933c70 f i stdafx.obj
 0001:00032ca0       ?GetElapsed_sec@CTimer@@QBEMXZ 00933ca0 f i stdafx.obj
 0001:00032d70       ?Dump@CTimer@@QBEXXZ       00933d70 f i stdafx.obj
 0001:00032da0       ??4CTimer@@QAEAAV0@ABV0@@Z 00933da0 f i stdafx.obj
 0001:00032dd0       ??0CTimer_paused_ex@@QAE@XZ 00933dd0 f i stdafx.obj
 0001:00032df0       ??1CTimer_paused_ex@@UAE@XZ 00933df0 f i stdafx.obj
 0001:00032e00       ?Paused@CTimer_paused_ex@@QBEHXZ 00933e00 f i stdafx.obj
 0001:00032e10       ??0CTimer_paused_ex@@QAE@ABV0@@Z 00933e10 f i stdafx.obj
 0001:00032e60       ??4CTimer_paused_ex@@QAEAAV0@ABV0@@Z 00933e60 f i stdafx.obj
 0001:00032eb0       ??_GCTimer_paused_ex@@UAEPAXI@Z 00933eb0 f i stdafx.obj
 0001:00032ee0       ??_ECTimer_paused_ex@@UAEPAXI@Z 00933ee0 f i stdafx.obj
 0001:00032f50       ??0CTimer_paused@@QAE@XZ   00933f50 f i stdafx.obj
 0001:00032fc0       ??1CTimer_paused@@UAE@XZ   00933fc0 f i stdafx.obj
 0001:00033050       ??0CTimer_paused@@QAE@ABV0@@Z 00934050 f i stdafx.obj
 0001:000330e0       ??4CTimer_paused@@QAEAAV0@ABV0@@Z 009340e0 f i stdafx.obj
 0001:00033130       ??_GCTimer_paused@@UAEPAXI@Z 00934130 f i stdafx.obj
 0001:00033160       ??_ECTimer_paused@@UAEPAXI@Z 00934160 f i stdafx.obj
 0001:000331d0       ?Begin@CStatTimer@@QAEXXZ  009341d0 f i stdafx.obj
 0001:00033230       ?End@CStatTimer@@QAEXXZ    00934230 f i stdafx.obj
 0001:00033250       ?GetElapsed_ticks@CStatTimer@@QBE_KXZ 00934250 f i stdafx.obj
 0001:00033260       ?GetElapsed_ms@CStatTimer@@QBEIXZ 00934260 f i stdafx.obj
 0001:00033290       ?GetElapsed_sec@CStatTimer@@QBEMXZ 00934290 f i stdafx.obj
 0001:000332f0       ??4CStatTimer@@QAEAAV0@ABV0@@Z 009342f0 f i stdafx.obj
 0001:00033310       ??4xrCore@@QAEAAV0@ABV0@@Z 00934310 f i stdafx.obj
 0001:00033330       ??0?$basic_string@DU?$char_traits@D@std@@V?$allocator@D@2@@std@@QAE@PBD@Z 00934330 f i stdafx.obj
 0001:00033380       ??1?$basic_string@DU?$char_traits@D@std@@V?$allocator@D@2@@std@@QAE@XZ 00934380 f i stdafx.obj
 0001:000333b0       ??0?$xr_vector@IV?$xalloc@I@@@@QAE@XZ 009343b0 f i stdafx.obj
 0001:00033400       ??0?$vector@IV?$xalloc@I@@@std@@QAE@ABV01@@Z 00934400 f i stdafx.obj
 0001:000334d0       ??1?$vector@IV?$xalloc@I@@@std@@QAE@XZ 009344d0 f i stdafx.obj
 0001:00033500       ??4?$vector@IV?$xalloc@I@@@std@@QAEAAV01@ABV01@@Z 00934500 f i stdafx.obj
 0001:00033630       ??0?$xr_vector@PAUsmem_value@@V?$xalloc@PAUsmem_value@@@@@@QAE@XZ 00934630 f i stdafx.obj
 0001:00033680       ??0?$vector@PAUsmem_value@@V?$xalloc@PAUsmem_value@@@@@std@@QAE@ABV01@@Z 00934680 f i stdafx.obj
 0001:00033750       ??1?$vector@PAUsmem_value@@V?$xalloc@PAUsmem_value@@@@@std@@QAE@XZ 00934750 f i stdafx.obj
 0001:00033780       ??4?$vector@PAUsmem_value@@V?$xalloc@PAUsmem_value@@@@@std@@QAEAAV01@ABV01@@Z 00934780 f i stdafx.obj
 0001:000338b0       ??0?$multiset@PAUstr_value@@Ustr_value_cmp@@V?$xalloc@PAUstr_value@@@@@std@@QAE@XZ 009348b0 f i stdafx.obj
 0001:00033900       ??0?$multiset@PAUstr_value@@Ustr_value_cmp@@V?$xalloc@PAUstr_value@@@@@std@@QAE@ABV01@@Z 00934900 f i stdafx.obj
 0001:00033950       ??4?$multiset@PAUstr_value@@Ustr_value_cmp@@V?$xalloc@PAUstr_value@@@@@std@@QAEAAV01@ABV01@@Z 00934950 f i stdafx.obj
 0001:00033980       ??1?$_Tree@V?$_Tset_traits@PAUstr_value@@Ustr_value_cmp@@V?$xalloc@PAUstr_value@@@@$00@std@@@std@@QAE@XZ 00934980 f i stdafx.obj
 0001:000339e0       ??0?$basic_string@DU?$char_traits@D@std@@V?$xalloc@D@@@std@@QAE@ABV01@@Z 009349e0 f i stdafx.obj
 0001:00033a10       ??0?$basic_string@DU?$char_traits@D@std@@V?$xalloc@D@@@std@@QAE@XZ 00934a10 f i stdafx.obj
 0001:00033a30       ??1?$basic_string@DU?$char_traits@D@std@@V?$xalloc@D@@@std@@QAE@XZ 00934a30 f i stdafx.obj
 0001:00033a60       ??4?$basic_string@DU?$char_traits@D@std@@V?$xalloc@D@@@std@@QAEAAV01@ABV01@@Z 00934a60 f i stdafx.obj
 0001:00033a80       ?c_str@?$basic_string@DU?$char_traits@D@std@@V?$xalloc@D@@@std@@QBEPBDXZ 00934a80 f i stdafx.obj
 0001:00033a90       ?size@?$basic_string@DU?$char_traits@D@std@@V?$xalloc@D@@@std@@QBEIXZ 00934a90 f i stdafx.obj
 0001:00033aa0       ??4?$pair@PBDI@std@@QAEAAU01@ABU01@@Z 00934aa0 f i stdafx.obj
 0001:00033ac0       ?zero@?$_flags@E@@QAEAAU1@XZ 00934ac0 f i stdafx.obj
 0001:00033ad0       ?assign@?$_flags@E@@QAEAAU1@E@Z 00934ad0 f i stdafx.obj
 0001:00033ae0       ?equal@?$_flags@E@@QBEHABU1@@Z 00934ae0 f i stdafx.obj
 0001:00033af0       ?empty@?$xr_stack@IV?$xr_vector@IV?$xalloc@I@@@@@@QBE_NXZ 00934af0 f i stdafx.obj
 0001:00033b00       ?impl@?$IReaderBase@VIReader@@@@QAEAAVIReader@@XZ 00934b00 f i stdafx.obj
 0001:00033b10       ?impl@?$IReaderBase@VIReader@@@@QBEABVIReader@@XZ 00934b10 f i stdafx.obj
 0001:00033b20       ?eof@?$IReaderBase@VIReader@@@@QBEHXZ 00934b20 f i stdafx.obj
 0001:00033b60       ?r@?$IReaderBase@VIReader@@@@QAEXPAXH@Z 00934b60 f i stdafx.obj
 0001:00033b80       ?r_vec3@?$IReaderBase@VIReader@@@@QAE?AU?$_vector3@M@@XZ 00934b80 f i stdafx.obj
 0001:00033ba0       ?r_vec4@?$IReaderBase@VIReader@@@@QAE?AU?$_vector4@M@@XZ 00934ba0 f i stdafx.obj
 0001:00033bc0       ?r_u64@?$IReaderBase@VIReader@@@@QAE_KXZ 00934bc0 f i stdafx.obj
 0001:00033be0       ?r_u32@?$IReaderBase@VIReader@@@@QAEIXZ 00934be0 f i stdafx.obj
 0001:00033c00       ?r_u16@?$IReaderBase@VIReader@@@@QAEGXZ 00934c00 f i stdafx.obj
 0001:00033c20       ?r_u8@?$IReaderBase@VIReader@@@@QAEEXZ 00934c20 f i stdafx.obj
 0001:00033c40       ?r_s64@?$IReaderBase@VIReader@@@@QAE_JXZ 00934c40 f i stdafx.obj
 0001:00033c70       ?r_s32@?$IReaderBase@VIReader@@@@QAEHXZ 00934c70 f i stdafx.obj
 0001:00033c90       ?r_s16@?$IReaderBase@VIReader@@@@QAEFXZ 00934c90 f i stdafx.obj
 0001:00033cb0       ?r_s8@?$IReaderBase@VIReader@@@@QAECXZ 00934cb0 f i stdafx.obj
 0001:00033cd0       ?r_float@?$IReaderBase@VIReader@@@@QAEMXZ 00934cd0 f i stdafx.obj
 0001:00033cf0       ?r_fvector4@?$IReaderBase@VIReader@@@@QAEXAAU?$_vector4@M@@@Z 00934cf0 f i stdafx.obj
 0001:00033d10       ?r_fvector3@?$IReaderBase@VIReader@@@@QAEXAAU?$_vector3@M@@@Z 00934d10 f i stdafx.obj
 0001:00033d30       ?r_fvector2@?$IReaderBase@VIReader@@@@QAEXAAU?$_vector2@M@@@Z 00934d30 f i stdafx.obj
 0001:00033d50       ?r_ivector4@?$IReaderBase@VIReader@@@@QAEXAAU?$_vector4@H@@@Z 00934d50 f i stdafx.obj
 0001:00033d70       ?r_ivector4@?$IReaderBase@VIReader@@@@QAEXAAU?$_vector3@H@@@Z 00934d70 f i stdafx.obj
 0001:00033d90       ?r_ivector4@?$IReaderBase@VIReader@@@@QAEXAAU?$_vector2@H@@@Z 00934d90 f i stdafx.obj
 0001:00033db0       ?r_fcolor@?$IReaderBase@VIReader@@@@QAEXAAU?$_color@M@@@Z 00934db0 f i stdafx.obj
 0001:00033dd0       ?r_float_q16@?$IReaderBase@VIReader@@@@QAEMMM@Z 00934dd0 f i stdafx.obj
 0001:00033e20       ?r_float_q8@?$IReaderBase@VIReader@@@@QAEMMM@Z 00934e20 f i stdafx.obj
 0001:00033e70       ?r_angle16@?$IReaderBase@VIReader@@@@QAEMXZ 00934e70 f i stdafx.obj
 0001:00033ec0       ?r_angle8@?$IReaderBase@VIReader@@@@QAEMXZ 00934ec0 f i stdafx.obj
 0001:00033f10       ?r_dir@?$IReaderBase@VIReader@@@@QAEXAAU?$_vector3@M@@@Z 00934f10 f i stdafx.obj
 0001:00033f40       ?r_sdir@?$IReaderBase@VIReader@@@@QAEXAAU?$_vector3@M@@@Z 00934f40 f i stdafx.obj
 0001:00033fb0       ?rewind@?$IReaderBase@VIReader@@@@QAEXXZ 00934fb0 f i stdafx.obj
 0001:00033fc0       ?find_chunk@?$IReaderBase@VIReader@@@@QAEIIPAH@Z 00934fc0 f i stdafx.obj
 0001:000341a0       ?r_chunk@?$IReaderBase@VIReader@@@@QAEHIPAX@Z 009351a0 f i stdafx.obj
 0001:000341e0       ?r_chunk_safe@?$IReaderBase@VIReader@@@@QAEHIPAXI@Z 009351e0 f i stdafx.obj
 0001:00034260       ??0?$xr_vector@UItem@CInifile@@V?$xalloc@UItem@CInifile@@@@@@QAE@XZ 00935260 f i stdafx.obj
 0001:000342b0       ??0?$vector@UItem@CInifile@@V?$xalloc@UItem@CInifile@@@@@std@@QAE@ABV01@@Z 009352b0 f i stdafx.obj
 0001:00034380       ??1?$vector@UItem@CInifile@@V?$xalloc@UItem@CInifile@@@@@std@@QAE@XZ 00935380 f i stdafx.obj
 0001:000343d0       ??4?$vector@UItem@CInifile@@V?$xalloc@UItem@CInifile@@@@@std@@QAEAAV01@ABV01@@Z 009353d0 f i stdafx.obj
 0001:00034520       ??0?$map@Vshared_str@@PAUSect@CInifile@@U?$less@Vshared_str@@@std@@V?$xalloc@U?$pair@Vshared_str@@PAUSect@CInifile@@@std@@@@@std@@QAE@ABV01@@Z 00935520 f i stdafx.obj
 0001:00034570       ??4?$map@Vshared_str@@PAUSect@CInifile@@U?$less@Vshared_str@@@std@@V?$xalloc@U?$pair@Vshared_str@@PAUSect@CInifile@@@std@@@@@std@@QAEAAV01@ABV01@@Z 00935570 f i stdafx.obj
 0001:000345c0       ??1?$_Tree@V?$_Tmap_traits@Vshared_str@@PAUSect@CInifile@@U?$less@Vshared_str@@@std@@V?$xalloc@U?$pair@Vshared_str@@PAUSect@CInifile@@@std@@@@$0A@@std@@@std@@QAE@XZ 009355c0 f i stdafx.obj
 0001:00034620       ??0?$map@Vshared_str@@V1@U?$less@Vshared_str@@@std@@V?$xalloc@U?$pair@Vshared_str@@V1@@std@@@@@std@@QAE@ABV01@@Z 00935620 f i stdafx.obj
 0001:00034670       ??4?$map@Vshared_str@@V1@U?$less@Vshared_str@@@std@@V?$xalloc@U?$pair@Vshared_str@@V1@@std@@@@@std@@QAEAAV01@ABV01@@Z 00935670 f i stdafx.obj
 0001:000346c0       ??1?$_Tree@V?$_Tmap_traits@Vshared_str@@V1@U?$less@Vshared_str@@@std@@V?$xalloc@U?$pair@Vshared_str@@V1@@std@@@@$0A@@std@@@std@@QAE@XZ 009356c0 f i stdafx.obj
 0001:00034720       ??0?$map@PBDPAVFS_Path@@Upred_str@@V?$xalloc@U?$pair@PBDPAVFS_Path@@@std@@@@@std@@QAE@ABV01@@Z 00935720 f i stdafx.obj
 0001:00034770       ??4?$map@PBDPAVFS_Path@@Upred_str@@V?$xalloc@U?$pair@PBDPAVFS_Path@@@std@@@@@std@@QAEAAV01@ABV01@@Z 00935770 f i stdafx.obj
 0001:000347c0       ??1?$_Tree@V?$_Tmap_traits@PBDPAVFS_Path@@Upred_str@@V?$xalloc@U?$pair@PBDPAVFS_Path@@@std@@@@$0A@@std@@@std@@QAE@XZ 009357c0 f i stdafx.obj
 0001:00034820       ??0?$set@Ufile@CLocatorAPI@@Ufile_pred@2@V?$xalloc@Ufile@CLocatorAPI@@@@@std@@QAE@ABV01@@Z 00935820 f i stdafx.obj
 0001:00034870       ??4?$set@Ufile@CLocatorAPI@@Ufile_pred@2@V?$xalloc@Ufile@CLocatorAPI@@@@@std@@QAEAAV01@ABV01@@Z 00935870 f i stdafx.obj
 0001:000348c0       ??1?$_Tree@V?$_Tset_traits@Ufile@CLocatorAPI@@Ufile_pred@2@V?$xalloc@Ufile@CLocatorAPI@@@@$0A@@std@@@std@@QAE@XZ 009358c0 f i stdafx.obj
 0001:00034920       ??0?$vector@Uarchive@CLocatorAPI@@V?$xalloc@Uarchive@CLocatorAPI@@@@@std@@QAE@ABV01@@Z 00935920 f i stdafx.obj
 0001:00034a00       ??1?$vector@Uarchive@CLocatorAPI@@V?$xalloc@Uarchive@CLocatorAPI@@@@@std@@QAE@XZ 00935a00 f i stdafx.obj
 0001:00034a40       ??4?$vector@Uarchive@CLocatorAPI@@V?$xalloc@Uarchive@CLocatorAPI@@@@@std@@QAEAAV01@ABV01@@Z 00935a40 f i stdafx.obj
 0001:00034be0       ??0?$vector@U_finddata64i32_t@@V?$xalloc@U_finddata64i32_t@@@@@std@@QAE@ABV01@@Z 00935be0 f i stdafx.obj
 0001:00034cc0       ??1?$vector@U_finddata64i32_t@@V?$xalloc@U_finddata64i32_t@@@@@std@@QAE@XZ 00935cc0 f i stdafx.obj
 0001:00034cf0       ??4?$vector@U_finddata64i32_t@@V?$xalloc@U_finddata64i32_t@@@@@std@@QAEAAV01@ABV01@@Z 00935cf0 f i stdafx.obj
 0001:00034e70       ??0?$map@Vshared_str@@U_FILE_ACCESS_STAT@@U?$less@Vshared_str@@@std@@V?$xalloc@U?$pair@Vshared_str@@U_FILE_ACCESS_STAT@@@std@@@@@std@@QAE@ABV01@@Z 00935e70 f i stdafx.obj
 0001:00034ec0       ??4?$map@Vshared_str@@U_FILE_ACCESS_STAT@@U?$less@Vshared_str@@@std@@V?$xalloc@U?$pair@Vshared_str@@U_FILE_ACCESS_STAT@@@std@@@@@std@@QAEAAV01@ABV01@@Z 00935ec0 f i stdafx.obj
 0001:00034f10       ??1?$_Tree@V?$_Tmap_traits@Vshared_str@@U_FILE_ACCESS_STAT@@U?$less@Vshared_str@@@std@@V?$xalloc@U?$pair@Vshared_str@@U_FILE_ACCESS_STAT@@@std@@@@$0A@@std@@@std@@QAE@XZ 00935f10 f i stdafx.obj
 0001:00034f70       ??0?$map@Vshared_str@@V?$xr_vector@PAVIReader@@V?$xalloc@PAVIReader@@@@@@U?$less@Vshared_str@@@std@@V?$xalloc@U?$pair@Vshared_str@@V?$xr_vector@PAVIReader@@V?$xalloc@PAVIReader@@@@@@@std@@@@@std@@QAE@ABV01@@Z 00935f70 f i stdafx.obj
 0001:00034fc0       ??4?$map@Vshared_str@@V?$xr_vector@PAVIReader@@V?$xalloc@PAVIReader@@@@@@U?$less@Vshared_str@@@std@@V?$xalloc@U?$pair@Vshared_str@@V?$xr_vector@PAVIReader@@V?$xalloc@PAVIReader@@@@@@@std@@@@@std@@QAEAAV01@ABV01@@Z 00935fc0 f i stdafx.obj
 0001:00035010       ??1?$_Tree@V?$_Tmap_traits@Vshared_str@@V?$xr_vector@PAVIReader@@V?$xalloc@PAVIReader@@@@@@U?$less@Vshared_str@@@std@@V?$xalloc@U?$pair@Vshared_str@@V?$xr_vector@PAVIReader@@V?$xalloc@PAVIReader@@@@@@@std@@@@$0A@@std@@@std@@QAE@XZ 00936010 f i stdafx.obj
 0001:00035070       ??0?$map@V?$basic_string@DU?$char_traits@D@std@@V?$xalloc@D@@@std@@PAXU?$less@V?$basic_string@DU?$char_traits@D@std@@V?$xalloc@D@@@std@@@2@V?$xalloc@U?$pair@V?$basic_string@DU?$char_traits@D@std@@V?$xalloc@D@@@std@@PAX@std@@@@@std@@QAE@ABV01@@Z 00936070 f i stdafx.obj
 0001:000350c0       ??4?$map@V?$basic_string@DU?$char_traits@D@std@@V?$xalloc@D@@@std@@PAXU?$less@V?$basic_string@DU?$char_traits@D@std@@V?$xalloc@D@@@std@@@2@V?$xalloc@U?$pair@V?$basic_string@DU?$char_traits@D@std@@V?$xalloc@D@@@std@@PAX@std@@@@@std@@QAEAAV01@ABV01@@Z 009360c0 f i stdafx.obj
 0001:00035110       ??1?$_Tree@V?$_Tmap_traits@V?$basic_string@DU?$char_traits@D@std@@V?$xalloc@D@@@std@@PAXU?$less@V?$basic_string@DU?$char_traits@D@std@@V?$xalloc@D@@@std@@@2@V?$xalloc@U?$pair@V?$basic_string@DU?$char_traits@D@std@@V?$xalloc@D@@@std@@PAX@std@@@@$0A@@std@@@std@@QAE@XZ 00936110 f i stdafx.obj
 0001:00035170       ??0?$vector@PAVCTimer_paused@@V?$xalloc@PAVCTimer_paused@@@@@std@@QAE@ABV01@@Z 00936170 f i stdafx.obj
 0001:00035240       ??4?$vector@PAVCTimer_paused@@V?$xalloc@PAVCTimer_paused@@@@@std@@QAEAAV01@ABV01@@Z 00936240 f i stdafx.obj
 0001:00035370       ??1?$_Tree_comp@$0A@V?$_Tset_traits@PAUstr_value@@Ustr_value_cmp@@V?$xalloc@PAUstr_value@@@@$00@std@@@std@@QAE@XZ 00936370 f i stdafx.obj
 0001:000353c0       ??1?$_Tree_comp@$0A@V?$_Tmap_traits@Vshared_str@@PAUSect@CInifile@@U?$less@Vshared_str@@@std@@V?$xalloc@U?$pair@Vshared_str@@PAUSect@CInifile@@@std@@@@$0A@@std@@@std@@QAE@XZ 009363c0 f i stdafx.obj
 0001:00035410       ??1?$_Tree_comp@$0A@V?$_Tmap_traits@Vshared_str@@V1@U?$less@Vshared_str@@@std@@V?$xalloc@U?$pair@Vshared_str@@V1@@std@@@@$0A@@std@@@std@@QAE@XZ 00936410 f i stdafx.obj
 0001:00035460       ??1?$_Tree_comp@$0A@V?$_Tmap_traits@PBDPAVFS_Path@@Upred_str@@V?$xalloc@U?$pair@PBDPAVFS_Path@@@std@@@@$0A@@std@@@std@@QAE@XZ 00936460 f i stdafx.obj
 0001:000354b0       ??1?$_Tree_comp@$0A@V?$_Tset_traits@Ufile@CLocatorAPI@@Ufile_pred@2@V?$xalloc@Ufile@CLocatorAPI@@@@$0A@@std@@@std@@QAE@XZ 009364b0 f i stdafx.obj
 0001:00035500       ??1?$_Tree_comp@$0A@V?$_Tmap_traits@Vshared_str@@U_FILE_ACCESS_STAT@@U?$less@Vshared_str@@@std@@V?$xalloc@U?$pair@Vshared_str@@U_FILE_ACCESS_STAT@@@std@@@@$0A@@std@@@std@@QAE@XZ 00936500 f i stdafx.obj
 0001:00035550       ??1?$_Tree_comp@$0A@V?$_Tmap_traits@Vshared_str@@V?$xr_vector@PAVIReader@@V?$xalloc@PAVIReader@@@@@@U?$less@Vshared_str@@@std@@V?$xalloc@U?$pair@Vshared_str@@V?$xr_vector@PAVIReader@@V?$xalloc@PAVIReader@@@@@@@std@@@@$0A@@std@@@std@@QAE@XZ 00936550 f i stdafx.obj
 0001:000355a0       ??1?$_Tree_comp@$0A@V?$_Tmap_traits@V?$basic_string@DU?$char_traits@D@std@@V?$xalloc@D@@@std@@PAXU?$less@V?$basic_string@DU?$char_traits@D@std@@V?$xalloc@D@@@std@@@2@V?$xalloc@U?$pair@V?$basic_string@DU?$char_traits@D@std@@V?$xalloc@D@@@std@@PAX@std@@@@$0A@@std@@@std@@QAE@XZ 009365a0 f i stdafx.obj
 0001:000355f0       ??1?$_Tree_buy@PAUstr_value@@V?$xalloc@PAUstr_value@@@@@std@@QAE@XZ 009365f0 f i stdafx.obj
 0001:00035640       ??1?$_Tree_buy@U?$pair@$$CBVshared_str@@PAUSect@CInifile@@@std@@V?$xalloc@U?$pair@Vshared_str@@PAUSect@CInifile@@@std@@@@@std@@QAE@XZ 00936640 f i stdafx.obj
 0001:00035690       ??1?$_Tree_buy@U?$pair@$$CBVshared_str@@V1@@std@@V?$xalloc@U?$pair@Vshared_str@@V1@@std@@@@@std@@QAE@XZ 00936690 f i stdafx.obj
 0001:000356e0       ??1?$_Tree_buy@U?$pair@QBDPAVFS_Path@@@std@@V?$xalloc@U?$pair@PBDPAVFS_Path@@@std@@@@@std@@QAE@XZ 009366e0 f i stdafx.obj
 0001:00035730       ??1?$_Tree_buy@Ufile@CLocatorAPI@@V?$xalloc@Ufile@CLocatorAPI@@@@@std@@QAE@XZ 00936730 f i stdafx.obj
 0001:00035780       ??1?$_Tree_buy@U?$pair@$$CBVshared_str@@U_FILE_ACCESS_STAT@@@std@@V?$xalloc@U?$pair@Vshared_str@@U_FILE_ACCESS_STAT@@@std@@@@@std@@QAE@XZ 00936780 f i stdafx.obj
 0001:000357d0       ??1?$_Tree_buy@U?$pair@$$CBVshared_str@@V?$xr_vector@PAVIReader@@V?$xalloc@PAVIReader@@@@@@@std@@V?$xalloc@U?$pair@Vshared_str@@V?$xr_vector@PAVIReader@@V?$xalloc@PAVIReader@@@@@@@std@@@@@std@@QAE@XZ 009367d0 f i stdafx.obj
 0001:00035820       ??1?$_Tree_buy@U?$pair@$$CBV?$basic_string@DU?$char_traits@D@std@@V?$xalloc@D@@@std@@PAX@std@@V?$xalloc@U?$pair@V?$basic_string@DU?$char_traits@D@std@@V?$xalloc@D@@@std@@PAX@std@@@@@std@@QAE@XZ 00936820 f i stdafx.obj
 0001:00035870       ?assign@?$basic_string@DU?$char_traits@D@std@@V?$allocator@D@2@@std@@QAEAAV12@ABV12@II@Z 00936870 f i stdafx.obj
 0001:00035930       ?assign@?$basic_string@DU?$char_traits@D@std@@V?$allocator@D@2@@std@@QAEAAV12@PBD@Z 00936930 f i stdafx.obj
 0001:00035970       ?size@?$basic_string@DU?$char_traits@D@std@@V?$allocator@D@2@@std@@QBEIXZ 00936970 f i stdafx.obj
 0001:00035980       ?_Tidy@?$basic_string@DU?$char_traits@D@std@@V?$allocator@D@2@@std@@QAEX_NI@Z 00936980 f i stdafx.obj
 0001:000359d0       ??0?$allocator@D@std@@QAE@XZ 009369d0 f i stdafx.obj
 0001:000359e0       ??0?$_String_alloc@$0A@U?$_String_base_types@DV?$allocator@D@std@@@std@@@std@@QAE@ABV?$allocator@D@1@@Z 009369e0 f i stdafx.obj
 0001:00035a00       ?_Getal@?$_String_alloc@$0A@U?$_String_base_types@DV?$allocator@D@std@@@std@@@std@@QBE?AU?$_Wrap_alloc@V?$allocator@D@std@@@2@XZ 00936a00 f i stdafx.obj
 0001:00035a10       ?_Myptr@?$_String_val@U?$_Simple_types@D@std@@@std@@QAEPADXZ 00936a10 f i stdafx.obj
 0001:00035a20       ?_Myptr@?$_String_val@U?$_Simple_types@D@std@@@std@@QBEPBDXZ 00936a20 f i stdafx.obj
 0001:00035a30       ?mul@?$_vector3@M@@QAEAAU1@M@Z 00936a30 f i stdafx.obj
 0001:00035a60       ?select_on_container_copy_construction@?$_Wrap_alloc@V?$xalloc@I@@@std@@QBE?AU12@XZ 00936a60 f i stdafx.obj
 0001:00035a70       ?deallocate@?$_Wrap_alloc@V?$xalloc@I@@@std@@QAEXPAII@Z 00936a70 f i stdafx.obj
 0001:00035a90       ??0?$vector@IV?$xalloc@I@@@std@@QAE@XZ 00936a90 f i stdafx.obj
 0001:00035ab0       ?capacity@?$vector@IV?$xalloc@I@@@std@@QBEIXZ 00936ab0 f i stdafx.obj
 0001:00035ac0       ?begin@?$vector@IV?$xalloc@I@@@std@@QBE?AV?$_Vector_const_iterator@V?$_Vector_val@U?$_Simple_types@I@std@@@std@@@2@XZ 00936ac0 f i stdafx.obj
 0001:00035ad0       ?end@?$vector@IV?$xalloc@I@@@std@@QBE?AV?$_Vector_const_iterator@V?$_Vector_val@U?$_Simple_types@I@std@@@std@@@2@XZ 00936ad0 f i stdafx.obj
 0001:00035ae0       ?size@?$vector@IV?$xalloc@I@@@std@@QBEIXZ 00936ae0 f i stdafx.obj
 0001:00035af0       ?empty@?$vector@IV?$xalloc@I@@@std@@QBE_NXZ 00936af0 f i stdafx.obj
 0001:00035b00       ?clear@?$vector@IV?$xalloc@I@@@std@@QAEXXZ 00936b00 f i stdafx.obj
 0001:00035b10       ?_Buy@?$vector@IV?$xalloc@I@@@std@@IAE_NI@Z 00936b10 f i stdafx.obj
 0001:00035b70       ?_Destroy@?$vector@IV?$xalloc@I@@@std@@IAEXPAI0@Z 00936b70 f i stdafx.obj
 0001:00035b80       ?_Tidy@?$vector@IV?$xalloc@I@@@std@@IAEXXZ 00936b80 f i stdafx.obj
 0001:00035bb0       ??0?$_Vector_alloc@$0A@U?$_Vec_base_types@IV?$xalloc@I@@@std@@@std@@QAE@ABV?$xalloc@I@@@Z 00936bb0 f i stdafx.obj
 0001:00035bd0       ?_Change_alloc@?$_Vector_alloc@$0A@U?$_Vec_base_types@IV?$xalloc@I@@@std@@@std@@QAEXABU?$_Wrap_alloc@V?$xalloc@I@@@2@@Z 00936bd0 f i stdafx.obj
 0001:00035be0       ?_Getal@?$_Vector_alloc@$0A@U?$_Vec_base_types@IV?$xalloc@I@@@std@@@std@@QBE?AU?$_Wrap_alloc@V?$xalloc@I@@@2@XZ 00936be0 f i stdafx.obj
 0001:00035bf0       ??0?$vector@PAUsmem_value@@V?$xalloc@PAUsmem_value@@@@@std@@QAE@XZ 00936bf0 f i stdafx.obj
 0001:00035c10       ?capacity@?$vector@PAUsmem_value@@V?$xalloc@PAUsmem_value@@@@@std@@QBEIXZ 00936c10 f i stdafx.obj
 0001:00035c20       ?begin@?$vector@PAUsmem_value@@V?$xalloc@PAUsmem_value@@@@@std@@QBE?AV?$_Vector_const_iterator@V?$_Vector_val@U?$_Simple_types@PAUsmem_value@@@std@@@std@@@2@XZ 00936c20 f i stdafx.obj
 0001:00035c30       ?end@?$vector@PAUsmem_value@@V?$xalloc@PAUsmem_value@@@@@std@@QBE?AV?$_Vector_const_iterator@V?$_Vector_val@U?$_Simple_types@PAUsmem_value@@@std@@@std@@@2@XZ 00936c30 f i stdafx.obj
 0001:00035c40       ?size@?$vector@PAUsmem_value@@V?$xalloc@PAUsmem_value@@@@@std@@QBEIXZ 00936c40 f i stdafx.obj
 0001:00035c50       ?empty@?$vector@PAUsmem_value@@V?$xalloc@PAUsmem_value@@@@@std@@QBE_NXZ 00936c50 f i stdafx.obj
 0001:00035c60       ?clear@?$vector@PAUsmem_value@@V?$xalloc@PAUsmem_value@@@@@std@@QAEXXZ 00936c60 f i stdafx.obj
 0001:00035c70       ?_Buy@?$vector@PAUsmem_value@@V?$xalloc@PAUsmem_value@@@@@std@@IAE_NI@Z 00936c70 f i stdafx.obj
 0001:00035cd0       ?_Destroy@?$vector@PAUsmem_value@@V?$xalloc@PAUsmem_value@@@@@std@@IAEXPAPAUsmem_value@@0@Z 00936cd0 f i stdafx.obj
 0001:00035ce0       ?_Tidy@?$vector@PAUsmem_value@@V?$xalloc@PAUsmem_value@@@@@std@@IAEXXZ 00936ce0 f i stdafx.obj
 0001:00035d10       ??0?$_Vector_alloc@$0A@U?$_Vec_base_types@PAUsmem_value@@V?$xalloc@PAUsmem_value@@@@@std@@@std@@QAE@ABV?$xalloc@PAUsmem_value@@@@@Z 00936d10 f i stdafx.obj
 0001:00035d30       ?_Change_alloc@?$_Vector_alloc@$0A@U?$_Vec_base_types@PAUsmem_value@@V?$xalloc@PAUsmem_value@@@@@std@@@std@@QAEXABU?$_Wrap_alloc@V?$xalloc@PAUsmem_value@@@@@2@@Z 00936d30 f i stdafx.obj
 0001:00035d40       ?_Getal@?$_Vector_alloc@$0A@U?$_Vec_base_types@PAUsmem_value@@V?$xalloc@PAUsmem_value@@@@@std@@@std@@QBE?AU?$_Wrap_alloc@V?$xalloc@PAUsmem_value@@@@@2@XZ 00936d40 f i stdafx.obj
 0001:00035d50       ?select_on_container_copy_construction@?$_Wrap_alloc@V?$xalloc@PAUsmem_value@@@@@std@@QBE?AU12@XZ 00936d50 f i stdafx.obj
 0001:00035d60       ?deallocate@?$_Wrap_alloc@V?$xalloc@PAUsmem_value@@@@@std@@QAEXPAPAUsmem_value@@I@Z 00936d60 f i stdafx.obj
 0001:00035d80       ??0?$_Tree@V?$_Tset_traits@PAUstr_value@@Ustr_value_cmp@@V?$xalloc@PAUstr_value@@@@$00@std@@@std@@QAE@ABUstr_value_cmp@@ABV?$xalloc@PAUstr_value@@@@@Z 00936d80 f i stdafx.obj
 0001:00035dd0       ??0?$_Tree@V?$_Tset_traits@PAUstr_value@@Ustr_value_cmp@@V?$xalloc@PAUstr_value@@@@$00@std@@@std@@QAE@ABV01@ABV?$xalloc@PAUstr_value@@@@@Z 00936dd0 f i stdafx.obj
 0001:00035e60       ??4?$_Tree@V?$_Tset_traits@PAUstr_value@@Ustr_value_cmp@@V?$xalloc@PAUstr_value@@@@$00@std@@@std@@QAEAAV01@ABV01@@Z 00936e60 f i stdafx.obj
 0001:00035e90       ?_Tidy@?$_Tree@V?$_Tset_traits@PAUstr_value@@Ustr_value_cmp@@V?$xalloc@PAUstr_value@@@@$00@std@@@std@@IAEXXZ 00936e90 f i stdafx.obj
 0001:00035eb0       ??0?$xalloc@PAUstr_value@@@@QAE@XZ 00936eb0 f i stdafx.obj
 0001:00035ec0       ??1?$_Tree_alloc@$0A@U?$_Tree_base_types@PAUstr_value@@V?$xalloc@PAUstr_value@@@@@std@@@std@@QAE@XZ 00936ec0 f i stdafx.obj
 0001:00035ee0       ?_Getal@?$_Tree_alloc@$0A@U?$_Tree_base_types@PAUstr_value@@V?$xalloc@PAUstr_value@@@@@std@@@std@@QBE?AU?$_Wrap_alloc@V?$xalloc@U?$_Tree_node@PAUstr_value@@PAX@std@@@@@2@XZ 00936ee0 f i stdafx.obj
 0001:00035ef0       ?select_on_container_copy_construction@?$_Wrap_alloc@V?$xalloc@U?$_Tree_node@PAUstr_value@@PAX@std@@@@@std@@QBE?AU12@XZ 00936ef0 f i stdafx.obj
 0001:00035f00       ?assign@?$basic_string@DU?$char_traits@D@std@@V?$xalloc@D@@@std@@QAEAAV12@ABV12@@Z 00936f00 f i stdafx.obj
 0001:00035f10       ?assign@?$basic_string@DU?$char_traits@D@std@@V?$xalloc@D@@@std@@QAEAAV12@ABV12@II@Z 00936f10 f i stdafx.obj
 0001:00036010       ?_Tidy@?$basic_string@DU?$char_traits@D@std@@V?$xalloc@D@@@std@@QAEX_NI@Z 00937010 f i stdafx.obj
 0001:00036060       ??0?$xalloc@D@@QAE@XZ      00937060 f i stdafx.obj
 0001:00036070       ??0?$_String_alloc@$0A@U?$_String_base_types@DV?$xalloc@D@@@std@@@std@@QAE@ABV?$xalloc@D@@@Z 00937070 f i stdafx.obj
 0001:00036090       ?_Change_alloc@?$_String_alloc@$0A@U?$_String_base_types@DV?$xalloc@D@@@std@@@std@@QAEXABU?$_Wrap_alloc@V?$xalloc@D@@@2@@Z 00937090 f i stdafx.obj
 0001:000360a0       ?_Getal@?$_String_alloc@$0A@U?$_String_base_types@DV?$xalloc@D@@@std@@@std@@QBE?AU?$_Wrap_alloc@V?$xalloc@D@@@2@XZ 009370a0 f i stdafx.obj
 0001:000360b0       ?select_on_container_copy_construction@?$_Wrap_alloc@V?$xalloc@D@@@std@@QBE?AU12@XZ 009370b0 f i stdafx.obj
 0001:000360c0       ??0?$vector@UItem@CInifile@@V?$xalloc@UItem@CInifile@@@@@std@@QAE@XZ 009370c0 f i stdafx.obj
 0001:000360e0       ?capacity@?$vector@UItem@CInifile@@V?$xalloc@UItem@CInifile@@@@@std@@QBEIXZ 009370e0 f i stdafx.obj
 0001:000360f0       ?begin@?$vector@UItem@CInifile@@V?$xalloc@UItem@CInifile@@@@@std@@QBE?AV?$_Vector_const_iterator@V?$_Vector_val@U?$_Simple_types@UItem@CInifile@@@std@@@std@@@2@XZ 009370f0 f i stdafx.obj
 0001:00036100       ?end@?$vector@UItem@CInifile@@V?$xalloc@UItem@CInifile@@@@@std@@QBE?AV?$_Vector_const_iterator@V?$_Vector_val@U?$_Simple_types@UItem@CInifile@@@std@@@std@@@2@XZ 00937100 f i stdafx.obj
 0001:00036110       ?size@?$vector@UItem@CInifile@@V?$xalloc@UItem@CInifile@@@@@std@@QBEIXZ 00937110 f i stdafx.obj
 0001:00036120       ?empty@?$vector@UItem@CInifile@@V?$xalloc@UItem@CInifile@@@@@std@@QBE_NXZ 00937120 f i stdafx.obj
 0001:00036130       ?clear@?$vector@UItem@CInifile@@V?$xalloc@UItem@CInifile@@@@@std@@QAEXXZ 00937130 f i stdafx.obj
 0001:00036150       ?_Buy@?$vector@UItem@CInifile@@V?$xalloc@UItem@CInifile@@@@@std@@IAE_NI@Z 00937150 f i stdafx.obj
 0001:000361b0       ?_Destroy@?$vector@UItem@CInifile@@V?$xalloc@UItem@CInifile@@@@@std@@IAEXPAUItem@CInifile@@0@Z 009371b0 f i stdafx.obj
 0001:000361d0       ?_Tidy@?$vector@UItem@CInifile@@V?$xalloc@UItem@CInifile@@@@@std@@IAEXXZ 009371d0 f i stdafx.obj
 0001:00036220       ??0?$_Vector_alloc@$0A@U?$_Vec_base_types@UItem@CInifile@@V?$xalloc@UItem@CInifile@@@@@std@@@std@@QAE@ABV?$xalloc@UItem@CInifile@@@@@Z 00937220 f i stdafx.obj
 0001:00036240       ?_Change_alloc@?$_Vector_alloc@$0A@U?$_Vec_base_types@UItem@CInifile@@V?$xalloc@UItem@CInifile@@@@@std@@@std@@QAEXABU?$_Wrap_alloc@V?$xalloc@UItem@CInifile@@@@@2@@Z 00937240 f i stdafx.obj
 0001:00036250       ?_Getal@?$_Vector_alloc@$0A@U?$_Vec_base_types@UItem@CInifile@@V?$xalloc@UItem@CInifile@@@@@std@@@std@@QBE?AU?$_Wrap_alloc@V?$xalloc@UItem@CInifile@@@@@2@XZ 00937250 f i stdafx.obj
 0001:00036260       ?select_on_container_copy_construction@?$_Wrap_alloc@V?$xalloc@UItem@CInifile@@@@@std@@QBE?AU12@XZ 00937260 f i stdafx.obj
 0001:00036270       ?deallocate@?$_Wrap_alloc@V?$xalloc@UItem@CInifile@@@@@std@@QAEXPAUItem@CInifile@@I@Z 00937270 f i stdafx.obj
 0001:00036290       ??0?$_Tree@V?$_Tmap_traits@Vshared_str@@PAUSect@CInifile@@U?$less@Vshared_str@@@std@@V?$xalloc@U?$pair@Vshared_str@@PAUSect@CInifile@@@std@@@@$0A@@std@@@std@@QAE@ABV01@ABV?$xalloc@U?$pair@Vshared_str@@PAUSect@CInifile@@@std@@@@@Z 00937290 f i stdafx.obj
 0001:00036320       ??4?$_Tree@V?$_Tmap_traits@Vshared_str@@PAUSect@CInifile@@U?$less@Vshared_str@@@std@@V?$xalloc@U?$pair@Vshared_str@@PAUSect@CInifile@@@std@@@@$0A@@std@@@std@@QAEAAV01@ABV01@@Z 00937320 f i stdafx.obj
 0001:00036370       ?_Tidy@?$_Tree@V?$_Tmap_traits@Vshared_str@@PAUSect@CInifile@@U?$less@Vshared_str@@@std@@V?$xalloc@U?$pair@Vshared_str@@PAUSect@CInifile@@@std@@@@$0A@@std@@@std@@IAEXXZ 00937370 f i stdafx.obj
 0001:00036390       ??1?$_Tree_alloc@$0A@U?$_Tree_base_types@U?$pair@$$CBVshared_str@@PAUSect@CInifile@@@std@@V?$xalloc@U?$pair@Vshared_str@@PAUSect@CInifile@@@std@@@@@std@@@std@@QAE@XZ 00937390 f i stdafx.obj
 0001:000363b0       ?_Getal@?$_Tree_alloc@$0A@U?$_Tree_base_types@U?$pair@$$CBVshared_str@@PAUSect@CInifile@@@std@@V?$xalloc@U?$pair@Vshared_str@@PAUSect@CInifile@@@std@@@@@std@@@std@@QBE?AU?$_Wrap_alloc@V?$xalloc@U?$_Tree_node@U?$pair@$$CBVshared_str@@PAUSect@CInifile@@@std@@PAX@std@@@@@2@XZ 009373b0 f i stdafx.obj
 0001:000363c0       ?select_on_container_copy_construction@?$_Wrap_alloc@V?$xalloc@U?$_Tree_node@U?$pair@$$CBVshared_str@@PAUSect@CInifile@@@std@@PAX@std@@@@@std@@QBE?AU12@XZ 009373c0 f i stdafx.obj
 0001:000363d0       ??0?$_Tree@V?$_Tmap_traits@Vshared_str@@V1@U?$less@Vshared_str@@@std@@V?$xalloc@U?$pair@Vshared_str@@V1@@std@@@@$0A@@std@@@std@@QAE@ABV01@ABV?$xalloc@U?$pair@Vshared_str@@V1@@std@@@@@Z 009373d0 f i stdafx.obj
 0001:00036460       ??4?$_Tree@V?$_Tmap_traits@Vshared_str@@V1@U?$less@Vshared_str@@@std@@V?$xalloc@U?$pair@Vshared_str@@V1@@std@@@@$0A@@std@@@std@@QAEAAV01@ABV01@@Z 00937460 f i stdafx.obj
 0001:000364b0       ?_Tidy@?$_Tree@V?$_Tmap_traits@Vshared_str@@V1@U?$less@Vshared_str@@@std@@V?$xalloc@U?$pair@Vshared_str@@V1@@std@@@@$0A@@std@@@std@@IAEXXZ 009374b0 f i stdafx.obj
 0001:000364d0       ??1?$_Tree_alloc@$0A@U?$_Tree_base_types@U?$pair@$$CBVshared_str@@V1@@std@@V?$xalloc@U?$pair@Vshared_str@@V1@@std@@@@@std@@@std@@QAE@XZ 009374d0 f i stdafx.obj
 0001:000364f0       ?_Getal@?$_Tree_alloc@$0A@U?$_Tree_base_types@U?$pair@$$CBVshared_str@@V1@@std@@V?$xalloc@U?$pair@Vshared_str@@V1@@std@@@@@std@@@std@@QBE?AU?$_Wrap_alloc@V?$xalloc@U?$_Tree_node@U?$pair@$$CBVshared_str@@V1@@std@@PAX@std@@@@@2@XZ 009374f0 f i stdafx.obj
 0001:00036500       ?select_on_container_copy_construction@?$_Wrap_alloc@V?$xalloc@U?$_Tree_node@U?$pair@$$CBVshared_str@@V1@@std@@PAX@std@@@@@std@@QBE?AU12@XZ 00937500 f i stdafx.obj
 0001:00036510       ??0?$_Tree@V?$_Tmap_traits@PBDPAVFS_Path@@Upred_str@@V?$xalloc@U?$pair@PBDPAVFS_Path@@@std@@@@$0A@@std@@@std@@QAE@ABV01@ABV?$xalloc@U?$pair@PBDPAVFS_Path@@@std@@@@@Z 00937510 f i stdafx.obj
 0001:000365a0       ??4?$_Tree@V?$_Tmap_traits@PBDPAVFS_Path@@Upred_str@@V?$xalloc@U?$pair@PBDPAVFS_Path@@@std@@@@$0A@@std@@@std@@QAEAAV01@ABV01@@Z 009375a0 f i stdafx.obj
 0001:000365f0       ?_Tidy@?$_Tree@V?$_Tmap_traits@PBDPAVFS_Path@@Upred_str@@V?$xalloc@U?$pair@PBDPAVFS_Path@@@std@@@@$0A@@std@@@std@@IAEXXZ 009375f0 f i stdafx.obj
 0001:00036610       ??1?$_Tree_alloc@$0A@U?$_Tree_base_types@U?$pair@QBDPAVFS_Path@@@std@@V?$xalloc@U?$pair@PBDPAVFS_Path@@@std@@@@@std@@@std@@QAE@XZ 00937610 f i stdafx.obj
 0001:00036630       ?_Getal@?$_Tree_alloc@$0A@U?$_Tree_base_types@U?$pair@QBDPAVFS_Path@@@std@@V?$xalloc@U?$pair@PBDPAVFS_Path@@@std@@@@@std@@@std@@QBE?AU?$_Wrap_alloc@V?$xalloc@U?$_Tree_node@U?$pair@QBDPAVFS_Path@@@std@@PAX@std@@@@@2@XZ 00937630 f i stdafx.obj
 0001:00036640       ?select_on_container_copy_construction@?$_Wrap_alloc@V?$xalloc@U?$_Tree_node@U?$pair@QBDPAVFS_Path@@@std@@PAX@std@@@@@std@@QBE?AU12@XZ 00937640 f i stdafx.obj
 0001:00036650       ??0?$_Tree@V?$_Tset_traits@Ufile@CLocatorAPI@@Ufile_pred@2@V?$xalloc@Ufile@CLocatorAPI@@@@$0A@@std@@@std@@QAE@ABV01@ABV?$xalloc@Ufile@CLocatorAPI@@@@@Z 00937650 f i stdafx.obj
 0001:000366e0       ??4?$_Tree@V?$_Tset_traits@Ufile@CLocatorAPI@@Ufile_pred@2@V?$xalloc@Ufile@CLocatorAPI@@@@$0A@@std@@@std@@QAEAAV01@ABV01@@Z 009376e0 f i stdafx.obj
 0001:00036730       ?_Tidy@?$_Tree@V?$_Tset_traits@Ufile@CLocatorAPI@@Ufile_pred@2@V?$xalloc@Ufile@CLocatorAPI@@@@$0A@@std@@@std@@IAEXXZ 00937730 f i stdafx.obj
 0001:00036750       ??1?$_Tree_alloc@$0A@U?$_Tree_base_types@Ufile@CLocatorAPI@@V?$xalloc@Ufile@CLocatorAPI@@@@@std@@@std@@QAE@XZ 00937750 f i stdafx.obj
 0001:00036770       ?_Getal@?$_Tree_alloc@$0A@U?$_Tree_base_types@Ufile@CLocatorAPI@@V?$xalloc@Ufile@CLocatorAPI@@@@@std@@@std@@QBE?AU?$_Wrap_alloc@V?$xalloc@U?$_Tree_node@Ufile@CLocatorAPI@@PAX@std@@@@@2@XZ 00937770 f i stdafx.obj
 0001:00036780       ?select_on_container_copy_construction@?$_Wrap_alloc@V?$xalloc@U?$_Tree_node@Ufile@CLocatorAPI@@PAX@std@@@@@std@@QBE?AU12@XZ 00937780 f i stdafx.obj
 0001:00036790       ?capacity@?$vector@Uarchive@CLocatorAPI@@V?$xalloc@Uarchive@CLocatorAPI@@@@@std@@QBEIXZ 00937790 f i stdafx.obj
 0001:000367b0       ?begin@?$vector@Uarchive@CLocatorAPI@@V?$xalloc@Uarchive@CLocatorAPI@@@@@std@@QBE?AV?$_Vector_const_iterator@V?$_Vector_val@U?$_Simple_types@Uarchive@CLocatorAPI@@@std@@@std@@@2@XZ 009377b0 f i stdafx.obj
 0001:000367c0       ?end@?$vector@Uarchive@CLocatorAPI@@V?$xalloc@Uarchive@CLocatorAPI@@@@@std@@QBE?AV?$_Vector_const_iterator@V?$_Vector_val@U?$_Simple_types@Uarchive@CLocatorAPI@@@std@@@std@@@2@XZ 009377c0 f i stdafx.obj
 0001:000367d0       ?size@?$vector@Uarchive@CLocatorAPI@@V?$xalloc@Uarchive@CLocatorAPI@@@@@std@@QBEIXZ 009377d0 f i stdafx.obj
 0001:000367f0       ?empty@?$vector@Uarchive@CLocatorAPI@@V?$xalloc@Uarchive@CLocatorAPI@@@@@std@@QBE_NXZ 009377f0 f i stdafx.obj
 0001:00036800       ?clear@?$vector@Uarchive@CLocatorAPI@@V?$xalloc@Uarchive@CLocatorAPI@@@@@std@@QAEXXZ 00937800 f i stdafx.obj
 0001:00036820       ?_Buy@?$vector@Uarchive@CLocatorAPI@@V?$xalloc@Uarchive@CLocatorAPI@@@@@std@@IAE_NI@Z 00937820 f i stdafx.obj
 0001:00036880       ?_Destroy@?$vector@Uarchive@CLocatorAPI@@V?$xalloc@Uarchive@CLocatorAPI@@@@@std@@IAEXPAUarchive@CLocatorAPI@@0@Z 00937880 f i stdafx.obj
 0001:000368f0       ?_Tidy@?$vector@Uarchive@CLocatorAPI@@V?$xalloc@Uarchive@CLocatorAPI@@@@@std@@IAEXXZ 009378f0 f i stdafx.obj
 0001:00036930       ??0?$_Vector_alloc@$0A@U?$_Vec_base_types@Uarchive@CLocatorAPI@@V?$xalloc@Uarchive@CLocatorAPI@@@@@std@@@std@@QAE@ABV?$xalloc@Uarchive@CLocatorAPI@@@@@Z 00937930 f i stdafx.obj
 0001:00036950       ?_Change_alloc@?$_Vector_alloc@$0A@U?$_Vec_base_types@Uarchive@CLocatorAPI@@V?$xalloc@Uarchive@CLocatorAPI@@@@@std@@@std@@QAEXABU?$_Wrap_alloc@V?$xalloc@Uarchive@CLocatorAPI@@@@@2@@Z 00937950 f i stdafx.obj
 0001:00036960       ?_Getal@?$_Vector_alloc@$0A@U?$_Vec_base_types@Uarchive@CLocatorAPI@@V?$xalloc@Uarchive@CLocatorAPI@@@@@std@@@std@@QBE?AU?$_Wrap_alloc@V?$xalloc@Uarchive@CLocatorAPI@@@@@2@XZ 00937960 f i stdafx.obj
 0001:00036970       ?select_on_container_copy_construction@?$_Wrap_alloc@V?$xalloc@Uarchive@CLocatorAPI@@@@@std@@QBE?AU12@XZ 00937970 f i stdafx.obj
 0001:00036980       ?deallocate@?$_Wrap_alloc@V?$xalloc@Uarchive@CLocatorAPI@@@@@std@@QAEXPAUarchive@CLocatorAPI@@I@Z 00937980 f i stdafx.obj
 0001:000369a0       ?capacity@?$vector@U_finddata64i32_t@@V?$xalloc@U_finddata64i32_t@@@@@std@@QBEIXZ 009379a0 f i stdafx.obj
 0001:000369c0       ?begin@?$vector@U_finddata64i32_t@@V?$xalloc@U_finddata64i32_t@@@@@std@@QBE?AV?$_Vector_const_iterator@V?$_Vector_val@U?$_Simple_types@U_finddata64i32_t@@@std@@@std@@@2@XZ 009379c0 f i stdafx.obj
 0001:000369d0       ?end@?$vector@U_finddata64i32_t@@V?$xalloc@U_finddata64i32_t@@@@@std@@QBE?AV?$_Vector_const_iterator@V?$_Vector_val@U?$_Simple_types@U_finddata64i32_t@@@std@@@std@@@2@XZ 009379d0 f i stdafx.obj
 0001:000369e0       ?size@?$vector@U_finddata64i32_t@@V?$xalloc@U_finddata64i32_t@@@@@std@@QBEIXZ 009379e0 f i stdafx.obj
 0001:00036a00       ?empty@?$vector@U_finddata64i32_t@@V?$xalloc@U_finddata64i32_t@@@@@std@@QBE_NXZ 00937a00 f i stdafx.obj
 0001:00036a10       ?clear@?$vector@U_finddata64i32_t@@V?$xalloc@U_finddata64i32_t@@@@@std@@QAEXXZ 00937a10 f i stdafx.obj
 0001:00036a20       ?_Buy@?$vector@U_finddata64i32_t@@V?$xalloc@U_finddata64i32_t@@@@@std@@IAE_NI@Z 00937a20 f i stdafx.obj
 0001:00036a80       ?_Destroy@?$vector@U_finddata64i32_t@@V?$xalloc@U_finddata64i32_t@@@@@std@@IAEXPAU_finddata64i32_t@@0@Z 00937a80 f i stdafx.obj
 0001:00036a90       ?_Tidy@?$vector@U_finddata64i32_t@@V?$xalloc@U_finddata64i32_t@@@@@std@@IAEXXZ 00937a90 f i stdafx.obj
 0001:00036ac0       ??0?$_Vector_alloc@$0A@U?$_Vec_base_types@U_finddata64i32_t@@V?$xalloc@U_finddata64i32_t@@@@@std@@@std@@QAE@ABV?$xalloc@U_finddata64i32_t@@@@@Z 00937ac0 f i stdafx.obj
 0001:00036ae0       ?_Change_alloc@?$_Vector_alloc@$0A@U?$_Vec_base_types@U_finddata64i32_t@@V?$xalloc@U_finddata64i32_t@@@@@std@@@std@@QAEXABU?$_Wrap_alloc@V?$xalloc@U_finddata64i32_t@@@@@2@@Z 00937ae0 f i stdafx.obj
 0001:00036af0       ?_Getal@?$_Vector_alloc@$0A@U?$_Vec_base_types@U_finddata64i32_t@@V?$xalloc@U_finddata64i32_t@@@@@std@@@std@@QBE?AU?$_Wrap_alloc@V?$xalloc@U_finddata64i32_t@@@@@2@XZ 00937af0 f i stdafx.obj
 0001:00036b00       ?select_on_container_copy_construction@?$_Wrap_alloc@V?$xalloc@U_finddata64i32_t@@@@@std@@QBE?AU12@XZ 00937b00 f i stdafx.obj
 0001:00036b10       ?deallocate@?$_Wrap_alloc@V?$xalloc@U_finddata64i32_t@@@@@std@@QAEXPAU_finddata64i32_t@@I@Z 00937b10 f i stdafx.obj
 0001:00036b30       ??0?$_Tree@V?$_Tmap_traits@Vshared_str@@U_FILE_ACCESS_STAT@@U?$less@Vshared_str@@@std@@V?$xalloc@U?$pair@Vshared_str@@U_FILE_ACCESS_STAT@@@std@@@@$0A@@std@@@std@@QAE@ABV01@ABV?$xalloc@U?$pair@Vshared_str@@U_FILE_ACCESS_STAT@@@std@@@@@Z 00937b30 f i stdafx.obj
 0001:00036bc0       ??4?$_Tree@V?$_Tmap_traits@Vshared_str@@U_FILE_ACCESS_STAT@@U?$less@Vshared_str@@@std@@V?$xalloc@U?$pair@Vshared_str@@U_FILE_ACCESS_STAT@@@std@@@@$0A@@std@@@std@@QAEAAV01@ABV01@@Z 00937bc0 f i stdafx.obj
 0001:00036c10       ?_Tidy@?$_Tree@V?$_Tmap_traits@Vshared_str@@U_FILE_ACCESS_STAT@@U?$less@Vshared_str@@@std@@V?$xalloc@U?$pair@Vshared_str@@U_FILE_ACCESS_STAT@@@std@@@@$0A@@std@@@std@@IAEXXZ 00937c10 f i stdafx.obj
 0001:00036c30       ??1?$_Tree_alloc@$0A@U?$_Tree_base_types@U?$pair@$$CBVshared_str@@U_FILE_ACCESS_STAT@@@std@@V?$xalloc@U?$pair@Vshared_str@@U_FILE_ACCESS_STAT@@@std@@@@@std@@@std@@QAE@XZ 00937c30 f i stdafx.obj
 0001:00036c50       ?_Getal@?$_Tree_alloc@$0A@U?$_Tree_base_types@U?$pair@$$CBVshared_str@@U_FILE_ACCESS_STAT@@@std@@V?$xalloc@U?$pair@Vshared_str@@U_FILE_ACCESS_STAT@@@std@@@@@std@@@std@@QBE?AU?$_Wrap_alloc@V?$xalloc@U?$_Tree_node@U?$pair@$$CBVshared_str@@U_FILE_ACCESS_STAT@@@std@@PAX@std@@@@@2@XZ 00937c50 f i stdafx.obj
 0001:00036c60       ?select_on_container_copy_construction@?$_Wrap_alloc@V?$xalloc@U?$_Tree_node@U?$pair@$$CBVshared_str@@U_FILE_ACCESS_STAT@@@std@@PAX@std@@@@@std@@QBE?AU12@XZ 00937c60 f i stdafx.obj
 0001:00036c70       ??0?$_Tree@V?$_Tmap_traits@Vshared_str@@V?$xr_vector@PAVIReader@@V?$xalloc@PAVIReader@@@@@@U?$less@Vshared_str@@@std@@V?$xalloc@U?$pair@Vshared_str@@V?$xr_vector@PAVIReader@@V?$xalloc@PAVIReader@@@@@@@std@@@@$0A@@std@@@std@@QAE@ABV01@ABV?$xalloc@U?$pair@Vshared_str@@V?$xr_vector@PAVIReader@@V?$xalloc@PAVIReader@@@@@@@std@@@@@Z 00937c70 f i stdafx.obj
 0001:00036d00       ??4?$_Tree@V?$_Tmap_traits@Vshared_str@@V?$xr_vector@PAVIReader@@V?$xalloc@PAVIReader@@@@@@U?$less@Vshared_str@@@std@@V?$xalloc@U?$pair@Vshared_str@@V?$xr_vector@PAVIReader@@V?$xalloc@PAVIReader@@@@@@@std@@@@$0A@@std@@@std@@QAEAAV01@ABV01@@Z 00937d00 f i stdafx.obj
 0001:00036d50       ?_Tidy@?$_Tree@V?$_Tmap_traits@Vshared_str@@V?$xr_vector@PAVIReader@@V?$xalloc@PAVIReader@@@@@@U?$less@Vshared_str@@@std@@V?$xalloc@U?$pair@Vshared_str@@V?$xr_vector@PAVIReader@@V?$xalloc@PAVIReader@@@@@@@std@@@@$0A@@std@@@std@@IAEXXZ 00937d50 f i stdafx.obj
 0001:00036d70       ??1?$_Tree_alloc@$0A@U?$_Tree_base_types@U?$pair@$$CBVshared_str@@V?$xr_vector@PAVIReader@@V?$xalloc@PAVIReader@@@@@@@std@@V?$xalloc@U?$pair@Vshared_str@@V?$xr_vector@PAVIReader@@V?$xalloc@PAVIReader@@@@@@@std@@@@@std@@@std@@QAE@XZ 00937d70 f i stdafx.obj
 0001:00036d90       ?_Getal@?$_Tree_alloc@$0A@U?$_Tree_base_types@U?$pair@$$CBVshared_str@@V?$xr_vector@PAVIReader@@V?$xalloc@PAVIReader@@@@@@@std@@V?$xalloc@U?$pair@Vshared_str@@V?$xr_vector@PAVIReader@@V?$xalloc@PAVIReader@@@@@@@std@@@@@std@@@std@@QBE?AU?$_Wrap_alloc@V?$xalloc@U?$_Tree_node@U?$pair@$$CBVshared_str@@V?$xr_vector@PAVIReader@@V?$xalloc@PAVIReader@@@@@@@std@@PAX@std@@@@@2@XZ 00937d90 f i stdafx.obj
 0001:00036da0       ?select_on_container_copy_construction@?$_Wrap_alloc@V?$xalloc@U?$_Tree_node@U?$pair@$$CBVshared_str@@V?$xr_vector@PAVIReader@@V?$xalloc@PAVIReader@@@@@@@std@@PAX@std@@@@@std@@QBE?AU12@XZ 00937da0 f i stdafx.obj
 0001:00036db0       ??0?$_Tree@V?$_Tmap_traits@V?$basic_string@DU?$char_traits@D@std@@V?$xalloc@D@@@std@@PAXU?$less@V?$basic_string@DU?$char_traits@D@std@@V?$xalloc@D@@@std@@@2@V?$xalloc@U?$pair@V?$basic_string@DU?$char_traits@D@std@@V?$xalloc@D@@@std@@PAX@std@@@@$0A@@std@@@std@@QAE@ABV01@ABV?$xalloc@U?$pair@V?$basic_string@DU?$char_traits@D@std@@V?$xalloc@D@@@std@@PAX@std@@@@@Z 00937db0 f i stdafx.obj
 0001:00036e40       ??4?$_Tree@V?$_Tmap_traits@V?$basic_string@DU?$char_traits@D@std@@V?$xalloc@D@@@std@@PAXU?$less@V?$basic_string@DU?$char_traits@D@std@@V?$xalloc@D@@@std@@@2@V?$xalloc@U?$pair@V?$basic_string@DU?$char_traits@D@std@@V?$xalloc@D@@@std@@PAX@std@@@@$0A@@std@@@std@@QAEAAV01@ABV01@@Z 00937e40 f i stdafx.obj
 0001:00036e90       ?_Tidy@?$_Tree@V?$_Tmap_traits@V?$basic_string@DU?$char_traits@D@std@@V?$xalloc@D@@@std@@PAXU?$less@V?$basic_string@DU?$char_traits@D@std@@V?$xalloc@D@@@std@@@2@V?$xalloc@U?$pair@V?$basic_string@DU?$char_traits@D@std@@V?$xalloc@D@@@std@@PAX@std@@@@$0A@@std@@@std@@IAEXXZ 00937e90 f i stdafx.obj
 0001:00036eb0       ??1?$_Tree_alloc@$0A@U?$_Tree_base_types@U?$pair@$$CBV?$basic_string@DU?$char_traits@D@std@@V?$xalloc@D@@@std@@PAX@std@@V?$xalloc@U?$pair@V?$basic_string@DU?$char_traits@D@std@@V?$xalloc@D@@@std@@PAX@std@@@@@std@@@std@@QAE@XZ 00937eb0 f i stdafx.obj
 0001:00036ed0       ?_Getal@?$_Tree_alloc@$0A@U?$_Tree_base_types@U?$pair@$$CBV?$basic_string@DU?$char_traits@D@std@@V?$xalloc@D@@@std@@PAX@std@@V?$xalloc@U?$pair@V?$basic_string@DU?$char_traits@D@std@@V?$xalloc@D@@@std@@PAX@std@@@@@std@@@std@@QBE?AU?$_Wrap_alloc@V?$xalloc@U?$_Tree_node@U?$pair@$$CBV?$basic_string@DU?$char_traits@D@std@@V?$xalloc@D@@@std@@PAX@std@@PAX@std@@@@@2@XZ 00937ed0 f i stdafx.obj
 0001:00036ee0       ?select_on_container_copy_construction@?$_Wrap_alloc@V?$xalloc@U?$_Tree_node@U?$pair@$$CBV?$basic_string@DU?$char_traits@D@std@@V?$xalloc@D@@@std@@PAX@std@@PAX@std@@@@@std@@QBE?AU12@XZ 00937ee0 f i stdafx.obj
 0001:00036ef0       ?begin@?$vector@PAVCTimer_paused@@V?$xalloc@PAVCTimer_paused@@@@@std@@QBE?AV?$_Vector_const_iterator@V?$_Vector_val@U?$_Simple_types@PAVCTimer_paused@@@std@@@std@@@2@XZ 00937ef0 f i stdafx.obj
 0001:00036f00       ?end@?$vector@PAVCTimer_paused@@V?$xalloc@PAVCTimer_paused@@@@@std@@QBE?AV?$_Vector_const_iterator@V?$_Vector_val@U?$_Simple_types@PAVCTimer_paused@@@std@@@std@@@2@XZ 00937f00 f i stdafx.obj
 0001:00036f10       ?empty@?$vector@PAVCTimer_paused@@V?$xalloc@PAVCTimer_paused@@@@@std@@QBE_NXZ 00937f10 f i stdafx.obj
 0001:00036f20       ?clear@?$vector@PAVCTimer_paused@@V?$xalloc@PAVCTimer_paused@@@@@std@@QAEXXZ 00937f20 f i stdafx.obj
 0001:00036f30       ?_Buy@?$vector@PAVCTimer_paused@@V?$xalloc@PAVCTimer_paused@@@@@std@@IAE_NI@Z 00937f30 f i stdafx.obj
 0001:00036f90       ?_Change_alloc@?$_Vector_alloc@$0A@U?$_Vec_base_types@PAVCTimer_paused@@V?$xalloc@PAVCTimer_paused@@@@@std@@@std@@QAEXABU?$_Wrap_alloc@V?$xalloc@PAVCTimer_paused@@@@@2@@Z 00937f90 f i stdafx.obj
 0001:00036fa0       ?select_on_container_copy_construction@?$_Wrap_alloc@V?$xalloc@PAVCTimer_paused@@@@@std@@QBE?AU12@XZ 00937fa0 f i stdafx.obj
 0001:00036fb0       ?assign@?$basic_string@DU?$char_traits@D@std@@V?$allocator@D@2@@std@@QAEAAV12@PBDI@Z 00937fb0 f i stdafx.obj
 0001:000370b0       ?erase@?$basic_string@DU?$char_traits@D@std@@V?$allocator@D@2@@std@@QAEAAV12@I@Z 009380b0 f i stdafx.obj
 0001:000370f0       ?erase@?$basic_string@DU?$char_traits@D@std@@V?$allocator@D@2@@std@@QAEAAV12@II@Z 009380f0 f i stdafx.obj
 0001:00037170       ?_Eos@?$basic_string@DU?$char_traits@D@std@@V?$allocator@D@2@@std@@QAEXI@Z 00938170 f i stdafx.obj
 0001:00037190       ?_Grow@?$basic_string@DU?$char_traits@D@std@@V?$allocator@D@2@@std@@QAE_NI_N@Z 00938190 f i stdafx.obj
 0001:000371e0       ?_Inside@?$basic_string@DU?$char_traits@D@std@@V?$allocator@D@2@@std@@QAE_NPBD@Z 009381e0 f i stdafx.obj
 0001:00037220       ?_Xlen@?$basic_string@DU?$char_traits@D@std@@V?$allocator@D@2@@std@@QBEXXZ 00938220 f i stdafx.obj
 0001:00037230       ?_Xran@?$basic_string@DU?$char_traits@D@std@@V?$allocator@D@2@@std@@QBEXXZ 00938230 f i stdafx.obj
 0001:00037240       ??0?$_Wrap_alloc@V?$allocator@D@std@@@std@@QAE@XZ 00938240 f i stdafx.obj
 0001:00037250       ?deallocate@?$_Wrap_alloc@V?$allocator@D@std@@@std@@QAEXPADI@Z 00938250 f i stdafx.obj
 0001:00037260       ??0?$_String_val@U?$_Simple_types@D@std@@@std@@QAE@XZ 00938260 f i stdafx.obj
 0001:00037280       ??0?$_Wrap_alloc@V?$xalloc@I@@@std@@QAE@XZ 00938280 f i stdafx.obj
 0001:00037290       ??0?$_Wrap_alloc@V?$xalloc@I@@@std@@QAE@ABV?$xalloc@I@@@Z 00938290 f i stdafx.obj
 0001:000372a0       ?allocate@?$_Wrap_alloc@V?$xalloc@I@@@std@@QAEPAII@Z 009382a0 f i stdafx.obj
 0001:000372c0       ??0?$xalloc@I@@QAE@XZ      009382c0 f i stdafx.obj
 0001:000372d0       ?deallocate@?$xalloc@I@@QBEXPAII@Z 009382d0 f i stdafx.obj
 0001:000372f0       ?select_on_container_copy_construction@?$allocator_traits@V?$xalloc@I@@@std@@SA?AV?$xalloc@I@@ABV3@@Z 009382f0 f i stdafx.obj
 0001:00037300       ??0?$_Vector_val@U?$_Simple_types@I@std@@@std@@QAE@XZ 00938300 f i stdafx.obj
 0001:00037320       ?max_size@?$vector@IV?$xalloc@I@@@std@@QBEIXZ 00938320 f i stdafx.obj
 0001:00037330       ?_Xlen@?$vector@IV?$xalloc@I@@@std@@IBEXXZ 00938330 f i stdafx.obj
 0001:00037340       ?max_size@?$vector@PAUsmem_value@@V?$xalloc@PAUsmem_value@@@@@std@@QBEIXZ 00938340 f i stdafx.obj
 0001:00037350       ?_Xlen@?$vector@PAUsmem_value@@V?$xalloc@PAUsmem_value@@@@@std@@IBEXXZ 00938350 f i stdafx.obj
 0001:00037360       ??0?$xalloc@PAUsmem_value@@@@QAE@XZ 00938360 f i stdafx.obj
 0001:00037370       ?deallocate@?$xalloc@PAUsmem_value@@@@QBEXPAPAUsmem_value@@I@Z 00938370 f i stdafx.obj
 0001:00037390       ??0?$_Wrap_alloc@V?$xalloc@PAUsmem_value@@@@@std@@QAE@XZ 00938390 f i stdafx.obj
 0001:000373a0       ??0?$_Wrap_alloc@V?$xalloc@PAUsmem_value@@@@@std@@QAE@ABV?$xalloc@PAUsmem_value@@@@@Z 009383a0 f i stdafx.obj
 0001:000373b0       ?allocate@?$_Wrap_alloc@V?$xalloc@PAUsmem_value@@@@@std@@QAEPAPAUsmem_value@@I@Z 009383b0 f i stdafx.obj
 0001:000373d0       ?select_on_container_copy_construction@?$allocator_traits@V?$xalloc@PAUsmem_value@@@@@std@@SA?AV?$xalloc@PAUsmem_value@@@@ABV3@@Z 009383d0 f i stdafx.obj
 0001:000373e0       ??0?$_Vector_val@U?$_Simple_types@PAUsmem_value@@@std@@@std@@QAE@XZ 009383e0 f i stdafx.obj
 0001:00037400       ?begin@?$_Tree@V?$_Tset_traits@PAUstr_value@@Ustr_value_cmp@@V?$xalloc@PAUstr_value@@@@$00@std@@@std@@QAE?AV?$_Tree_const_iterator@V?$_Tree_val@U?$_Tree_simple_types@PAUstr_value@@@std@@@std@@@2@XZ 00938400 f i stdafx.obj
 0001:00037410       ?end@?$_Tree@V?$_Tset_traits@PAUstr_value@@Ustr_value_cmp@@V?$xalloc@PAUstr_value@@@@$00@std@@@std@@QAE?AV?$_Tree_const_iterator@V?$_Tree_val@U?$_Tree_simple_types@PAUstr_value@@@std@@@std@@@2@XZ 00938410 f i stdafx.obj
 0001:00037420       ?key_comp@?$_Tree@V?$_Tset_traits@PAUstr_value@@Ustr_value_cmp@@V?$xalloc@PAUstr_value@@@@$00@std@@@std@@QBE?AUstr_value_cmp@@XZ 00938420 f i stdafx.obj
 0001:00037430       ?erase@?$_Tree@V?$_Tset_traits@PAUstr_value@@Ustr_value_cmp@@V?$xalloc@PAUstr_value@@@@$00@std@@@std@@QAE?AV?$_Tree_const_iterator@V?$_Tree_val@U?$_Tree_simple_types@PAUstr_value@@@std@@@std@@@2@V32@0@Z 00938430 f i stdafx.obj
 0001:000374e0       ?clear@?$_Tree@V?$_Tset_traits@PAUstr_value@@Ustr_value_cmp@@V?$xalloc@PAUstr_value@@@@$00@std@@@std@@QAEXXZ 009384e0 f i stdafx.obj
 0001:00037530       ??0?$_Tree_comp@$0A@V?$_Tset_traits@PAUstr_value@@Ustr_value_cmp@@V?$xalloc@PAUstr_value@@@@$00@std@@@std@@QAE@ABUstr_value_cmp@@ABV?$xalloc@PAUstr_value@@@@@Z 00938530 f i stdafx.obj
 0001:00037580       ?_Getcomp@?$_Tree_comp@$0A@V?$_Tset_traits@PAUstr_value@@Ustr_value_cmp@@V?$xalloc@PAUstr_value@@@@$00@std@@@std@@QBE?AUstr_value_cmp@@XZ 00938580 f i stdafx.obj
 0001:00037590       ?_Setcomp@?$_Tree_comp@$0A@V?$_Tset_traits@PAUstr_value@@Ustr_value_cmp@@V?$xalloc@PAUstr_value@@@@$00@std@@@std@@QAEXABUstr_value_cmp@@@Z 00938590 f i stdafx.obj
 0001:000375a0       ?_Change_alloc@?$_Tree_alloc@$0A@U?$_Tree_base_types@PAUstr_value@@V?$xalloc@PAUstr_value@@@@@std@@@std@@QAEXABU?$_Wrap_alloc@V?$xalloc@U?$_Tree_node@PAUstr_value@@PAX@std@@@@@2@@Z 009385a0 f i stdafx.obj
 0001:000375b0       ?_Freeheadnode@?$_Tree_alloc@$0A@U?$_Tree_base_types@PAUstr_value@@V?$xalloc@PAUstr_value@@@@@std@@@std@@QAEXPAU?$_Tree_node@PAUstr_value@@PAX@2@@Z 009385b0 f i stdafx.obj
 0001:000375d0       ??0?$_Wrap_alloc@V?$xalloc@U?$_Tree_node@PAUstr_value@@PAX@std@@@@@std@@QAE@XZ 009385d0 f i stdafx.obj
 0001:000375e0       ??0?$_Wrap_alloc@V?$xalloc@U?$_Tree_node@PAUstr_value@@PAX@std@@@@@std@@QAE@ABV?$xalloc@U?$_Tree_node@PAUstr_value@@PAX@std@@@@@Z 009385e0 f i stdafx.obj
 0001:000375f0       ?select_on_container_copy_construction@?$allocator_traits@V?$xalloc@U?$_Tree_node@PAUstr_value@@PAX@std@@@@@std@@SA?AV?$xalloc@U?$_Tree_node@PAUstr_value@@PAX@std@@@@ABV3@@Z 009385f0 f i stdafx.obj
 0001:00037600       ?erase@?$basic_string@DU?$char_traits@D@std@@V?$xalloc@D@@@std@@QAEAAV12@I@Z 00938600 f i stdafx.obj
 0001:00037640       ?erase@?$basic_string@DU?$char_traits@D@std@@V?$xalloc@D@@@std@@QAEAAV12@II@Z 00938640 f i stdafx.obj
 0001:000376e0       ?_Eos@?$basic_string@DU?$char_traits@D@std@@V?$xalloc@D@@@std@@QAEXI@Z 009386e0 f i stdafx.obj
 0001:00037700       ?_Grow@?$basic_string@DU?$char_traits@D@std@@V?$xalloc@D@@@std@@QAE_NI_N@Z 00938700 f i stdafx.obj
 0001:000377b0       ?_Xran@?$basic_string@DU?$char_traits@D@std@@V?$xalloc@D@@@std@@QBEXXZ 009387b0 f i stdafx.obj
 0001:000377c0       ??0?$_Wrap_alloc@V?$xalloc@D@@@std@@QAE@XZ 009387c0 f i stdafx.obj
 0001:000377d0       ??0?$_Wrap_alloc@V?$xalloc@D@@@std@@QAE@ABV?$xalloc@D@@@Z 009387d0 f i stdafx.obj
 0001:000377e0       ?deallocate@?$_Wrap_alloc@V?$xalloc@D@@@std@@QAEXPADI@Z 009387e0 f i stdafx.obj
 0001:00037800       ?select_on_container_copy_construction@?$allocator_traits@V?$xalloc@D@@@std@@SA?AV?$xalloc@D@@ABV3@@Z 00938800 f i stdafx.obj
 0001:00037810       ?max_size@?$vector@UItem@CInifile@@V?$xalloc@UItem@CInifile@@@@@std@@QBEIXZ 00938810 f i stdafx.obj
 0001:00037820       ?_Xlen@?$vector@UItem@CInifile@@V?$xalloc@UItem@CInifile@@@@@std@@IBEXXZ 00938820 f i stdafx.obj
 0001:00037830       ??0?$xalloc@UItem@CInifile@@@@QAE@XZ 00938830 f i stdafx.obj
 0001:00037840       ?deallocate@?$xalloc@UItem@CInifile@@@@QBEXPAUItem@CInifile@@I@Z 00938840 f i stdafx.obj
 0001:00037860       ??0?$_Wrap_alloc@V?$xalloc@UItem@CInifile@@@@@std@@QAE@XZ 00938860 f i stdafx.obj
 0001:00037870       ??0?$_Wrap_alloc@V?$xalloc@UItem@CInifile@@@@@std@@QAE@ABV?$xalloc@UItem@CInifile@@@@@Z 00938870 f i stdafx.obj
 0001:00037880       ?allocate@?$_Wrap_alloc@V?$xalloc@UItem@CInifile@@@@@std@@QAEPAUItem@CInifile@@I@Z 00938880 f i stdafx.obj
 0001:000378a0       ?select_on_container_copy_construction@?$allocator_traits@V?$xalloc@UItem@CInifile@@@@@std@@SA?AV?$xalloc@UItem@CInifile@@@@ABV3@@Z 009388a0 f i stdafx.obj
 0001:000378b0       ??0?$_Vector_val@U?$_Simple_types@UItem@CInifile@@@std@@@std@@QAE@XZ 009388b0 f i stdafx.obj
 0001:000378d0       ?begin@?$_Tree@V?$_Tmap_traits@Vshared_str@@PAUSect@CInifile@@U?$less@Vshared_str@@@std@@V?$xalloc@U?$pair@Vshared_str@@PAUSect@CInifile@@@std@@@@$0A@@std@@@std@@QAE?AV?$_Tree_iterator@V?$_Tree_val@U?$_Tree_simple_types@U?$pair@$$CBVshared_str@@PAUSect@CInifile@@@std@@@std@@@std@@@2@XZ 009388d0 f i stdafx.obj
 0001:000378e0       ?end@?$_Tree@V?$_Tmap_traits@Vshared_str@@PAUSect@CInifile@@U?$less@Vshared_str@@@std@@V?$xalloc@U?$pair@Vshared_str@@PAUSect@CInifile@@@std@@@@$0A@@std@@@std@@QAE?AV?$_Tree_iterator@V?$_Tree_val@U?$_Tree_simple_types@U?$pair@$$CBVshared_str@@PAUSect@CInifile@@@std@@@std@@@std@@@2@XZ 009388e0 f i stdafx.obj
 0001:000378f0       ?key_comp@?$_Tree@V?$_Tmap_traits@Vshared_str@@PAUSect@CInifile@@U?$less@Vshared_str@@@std@@V?$xalloc@U?$pair@Vshared_str@@PAUSect@CInifile@@@std@@@@$0A@@std@@@std@@QBE?AU?$less@Vshared_str@@@2@XZ 009388f0 f i stdafx.obj
 0001:00037900       ?erase@?$_Tree@V?$_Tmap_traits@Vshared_str@@PAUSect@CInifile@@U?$less@Vshared_str@@@std@@V?$xalloc@U?$pair@Vshared_str@@PAUSect@CInifile@@@std@@@@$0A@@std@@@std@@QAE?AV?$_Tree_iterator@V?$_Tree_val@U?$_Tree_simple_types@U?$pair@$$CBVshared_str@@PAUSect@CInifile@@@std@@@std@@@std@@@2@V?$_Tree_const_iterator@V?$_Tree_val@U?$_Tree_simple_types@U?$pair@$$CBVshared_str@@PAUSect@CInifile@@@std@@@std@@@std@@@2@0@Z 00938900 f i stdafx.obj
 0001:000379c0       ?clear@?$_Tree@V?$_Tmap_traits@Vshared_str@@PAUSect@CInifile@@U?$less@Vshared_str@@@std@@V?$xalloc@U?$pair@Vshared_str@@PAUSect@CInifile@@@std@@@@$0A@@std@@@std@@QAEXXZ 009389c0 f i stdafx.obj
 0001:000379f0       ??0?$_Tree_comp@$0A@V?$_Tmap_traits@Vshared_str@@PAUSect@CInifile@@U?$less@Vshared_str@@@std@@V?$xalloc@U?$pair@Vshared_str@@PAUSect@CInifile@@@std@@@@$0A@@std@@@std@@QAE@ABU?$less@Vshared_str@@@1@ABV?$xalloc@U?$pair@Vshared_str@@PAUSect@CInifile@@@std@@@@@Z 009389f0 f i stdafx.obj
 0001:00037a40       ?_Getcomp@?$_Tree_comp@$0A@V?$_Tmap_traits@Vshared_str@@PAUSect@CInifile@@U?$less@Vshared_str@@@std@@V?$xalloc@U?$pair@Vshared_str@@PAUSect@CInifile@@@std@@@@$0A@@std@@@std@@QBE?AU?$less@Vshared_str@@@2@XZ 00938a40 f i stdafx.obj
 0001:00037a50       ?_Setcomp@?$_Tree_comp@$0A@V?$_Tmap_traits@Vshared_str@@PAUSect@CInifile@@U?$less@Vshared_str@@@std@@V?$xalloc@U?$pair@Vshared_str@@PAUSect@CInifile@@@std@@@@$0A@@std@@@std@@QAEXABU?$less@Vshared_str@@@2@@Z 00938a50 f i stdafx.obj
 0001:00037a60       ?_Change_alloc@?$_Tree_alloc@$0A@U?$_Tree_base_types@U?$pair@$$CBVshared_str@@PAUSect@CInifile@@@std@@V?$xalloc@U?$pair@Vshared_str@@PAUSect@CInifile@@@std@@@@@std@@@std@@QAEXABU?$_Wrap_alloc@V?$xalloc@U?$_Tree_node@U?$pair@$$CBVshared_str@@PAUSect@CInifile@@@std@@PAX@std@@@@@2@@Z 00938a60 f i stdafx.obj
 0001:00037a70       ?_Freeheadnode@?$_Tree_alloc@$0A@U?$_Tree_base_types@U?$pair@$$CBVshared_str@@PAUSect@CInifile@@@std@@V?$xalloc@U?$pair@Vshared_str@@PAUSect@CInifile@@@std@@@@@std@@@std@@QAEXPAU?$_Tree_node@U?$pair@$$CBVshared_str@@PAUSect@CInifile@@@std@@PAX@2@@Z 00938a70 f i stdafx.obj
 0001:00037a90       ??0?$_Wrap_alloc@V?$xalloc@U?$_Tree_node@U?$pair@$$CBVshared_str@@PAUSect@CInifile@@@std@@PAX@std@@@@@std@@QAE@XZ 00938a90 f i stdafx.obj
 0001:00037aa0       ??0?$_Wrap_alloc@V?$xalloc@U?$_Tree_node@U?$pair@$$CBVshared_str@@PAUSect@CInifile@@@std@@PAX@std@@@@@std@@QAE@ABV?$xalloc@U?$_Tree_node@U?$pair@$$CBVshared_str@@PAUSect@CInifile@@@std@@PAX@std@@@@@Z 00938aa0 f i stdafx.obj
 0001:00037ab0       ?select_on_container_copy_construction@?$allocator_traits@V?$xalloc@U?$_Tree_node@U?$pair@$$CBVshared_str@@PAUSect@CInifile@@@std@@PAX@std@@@@@std@@SA?AV?$xalloc@U?$_Tree_node@U?$pair@$$CBVshared_str@@PAUSect@CInifile@@@std@@PAX@std@@@@ABV3@@Z 00938ab0 f i stdafx.obj
 0001:00037ac0       ?begin@?$_Tree@V?$_Tmap_traits@Vshared_str@@V1@U?$less@Vshared_str@@@std@@V?$xalloc@U?$pair@Vshared_str@@V1@@std@@@@$0A@@std@@@std@@QAE?AV?$_Tree_iterator@V?$_Tree_val@U?$_Tree_simple_types@U?$pair@$$CBVshared_str@@V1@@std@@@std@@@std@@@2@XZ 00938ac0 f i stdafx.obj
 0001:00037ad0       ?end@?$_Tree@V?$_Tmap_traits@Vshared_str@@V1@U?$less@Vshared_str@@@std@@V?$xalloc@U?$pair@Vshared_str@@V1@@std@@@@$0A@@std@@@std@@QAE?AV?$_Tree_iterator@V?$_Tree_val@U?$_Tree_simple_types@U?$pair@$$CBVshared_str@@V1@@std@@@std@@@std@@@2@XZ 00938ad0 f i stdafx.obj
 0001:00037ae0       ?key_comp@?$_Tree@V?$_Tmap_traits@Vshared_str@@V1@U?$less@Vshared_str@@@std@@V?$xalloc@U?$pair@Vshared_str@@V1@@std@@@@$0A@@std@@@std@@QBE?AU?$less@Vshared_str@@@2@XZ 00938ae0 f i stdafx.obj
 0001:00037af0       ?erase@?$_Tree@V?$_Tmap_traits@Vshared_str@@V1@U?$less@Vshared_str@@@std@@V?$xalloc@U?$pair@Vshared_str@@V1@@std@@@@$0A@@std@@@std@@QAE?AV?$_Tree_iterator@V?$_Tree_val@U?$_Tree_simple_types@U?$pair@$$CBVshared_str@@V1@@std@@@std@@@std@@@2@V?$_Tree_const_iterator@V?$_Tree_val@U?$_Tree_simple_types@U?$pair@$$CBVshared_str@@V1@@std@@@std@@@std@@@2@0@Z 00938af0 f i stdafx.obj
 0001:00037bb0       ?clear@?$_Tree@V?$_Tmap_traits@Vshared_str@@V1@U?$less@Vshared_str@@@std@@V?$xalloc@U?$pair@Vshared_str@@V1@@std@@@@$0A@@std@@@std@@QAEXXZ 00938bb0 f i stdafx.obj
 0001:00037be0       ??0?$_Tree_comp@$0A@V?$_Tmap_traits@Vshared_str@@V1@U?$less@Vshared_str@@@std@@V?$xalloc@U?$pair@Vshared_str@@V1@@std@@@@$0A@@std@@@std@@QAE@ABU?$less@Vshared_str@@@1@ABV?$xalloc@U?$pair@Vshared_str@@V1@@std@@@@@Z 00938be0 f i stdafx.obj
 0001:00037c30       ?_Getcomp@?$_Tree_comp@$0A@V?$_Tmap_traits@Vshared_str@@V1@U?$less@Vshared_str@@@std@@V?$xalloc@U?$pair@Vshared_str@@V1@@std@@@@$0A@@std@@@std@@QBE?AU?$less@Vshared_str@@@2@XZ 00938c30 f i stdafx.obj
 0001:00037c40       ?_Setcomp@?$_Tree_comp@$0A@V?$_Tmap_traits@Vshared_str@@V1@U?$less@Vshared_str@@@std@@V?$xalloc@U?$pair@Vshared_str@@V1@@std@@@@$0A@@std@@@std@@QAEXABU?$less@Vshared_str@@@2@@Z 00938c40 f i stdafx.obj
 0001:00037c50       ?_Change_alloc@?$_Tree_alloc@$0A@U?$_Tree_base_types@U?$pair@$$CBVshared_str@@V1@@std@@V?$xalloc@U?$pair@Vshared_str@@V1@@std@@@@@std@@@std@@QAEXABU?$_Wrap_alloc@V?$xalloc@U?$_Tree_node@U?$pair@$$CBVshared_str@@V1@@std@@PAX@std@@@@@2@@Z 00938c50 f i stdafx.obj
 0001:00037c60       ?_Freeheadnode@?$_Tree_alloc@$0A@U?$_Tree_base_types@U?$pair@$$CBVshared_str@@V1@@std@@V?$xalloc@U?$pair@Vshared_str@@V1@@std@@@@@std@@@std@@QAEXPAU?$_Tree_node@U?$pair@$$CBVshared_str@@V1@@std@@PAX@2@@Z 00938c60 f i stdafx.obj
 0001:00037c80       ??0?$_Wrap_alloc@V?$xalloc@U?$_Tree_node@U?$pair@$$CBVshared_str@@V1@@std@@PAX@std@@@@@std@@QAE@XZ 00938c80 f i stdafx.obj
 0001:00037c90       ??0?$_Wrap_alloc@V?$xalloc@U?$_Tree_node@U?$pair@$$CBVshared_str@@V1@@std@@PAX@std@@@@@std@@QAE@ABV?$xalloc@U?$_Tree_node@U?$pair@$$CBVshared_str@@V1@@std@@PAX@std@@@@@Z 00938c90 f i stdafx.obj
 0001:00037ca0       ?select_on_container_copy_construction@?$allocator_traits@V?$xalloc@U?$_Tree_node@U?$pair@$$CBVshared_str@@V1@@std@@PAX@std@@@@@std@@SA?AV?$xalloc@U?$_Tree_node@U?$pair@$$CBVshared_str@@V1@@std@@PAX@std@@@@ABV3@@Z 00938ca0 f i stdafx.obj
 0001:00037cb0       ?begin@?$_Tree@V?$_Tmap_traits@PBDPAVFS_Path@@Upred_str@@V?$xalloc@U?$pair@PBDPAVFS_Path@@@std@@@@$0A@@std@@@std@@QAE?AV?$_Tree_iterator@V?$_Tree_val@U?$_Tree_simple_types@U?$pair@QBDPAVFS_Path@@@std@@@std@@@std@@@2@XZ 00938cb0 f i stdafx.obj
 0001:00037cc0       ?end@?$_Tree@V?$_Tmap_traits@PBDPAVFS_Path@@Upred_str@@V?$xalloc@U?$pair@PBDPAVFS_Path@@@std@@@@$0A@@std@@@std@@QAE?AV?$_Tree_iterator@V?$_Tree_val@U?$_Tree_simple_types@U?$pair@QBDPAVFS_Path@@@std@@@std@@@std@@@2@XZ 00938cc0 f i stdafx.obj
 0001:00037cd0       ?key_comp@?$_Tree@V?$_Tmap_traits@PBDPAVFS_Path@@Upred_str@@V?$xalloc@U?$pair@PBDPAVFS_Path@@@std@@@@$0A@@std@@@std@@QBE?AUpred_str@@XZ 00938cd0 f i stdafx.obj
 0001:00037ce0       ?erase@?$_Tree@V?$_Tmap_traits@PBDPAVFS_Path@@Upred_str@@V?$xalloc@U?$pair@PBDPAVFS_Path@@@std@@@@$0A@@std@@@std@@QAE?AV?$_Tree_iterator@V?$_Tree_val@U?$_Tree_simple_types@U?$pair@QBDPAVFS_Path@@@std@@@std@@@std@@@2@V?$_Tree_const_iterator@V?$_Tree_val@U?$_Tree_simple_types@U?$pair@QBDPAVFS_Path@@@std@@@std@@@std@@@2@0@Z 00938ce0 f i stdafx.obj
 0001:00037da0       ?clear@?$_Tree@V?$_Tmap_traits@PBDPAVFS_Path@@Upred_str@@V?$xalloc@U?$pair@PBDPAVFS_Path@@@std@@@@$0A@@std@@@std@@QAEXXZ 00938da0 f i stdafx.obj
 0001:00037dd0       ??0?$_Tree_comp@$0A@V?$_Tmap_traits@PBDPAVFS_Path@@Upred_str@@V?$xalloc@U?$pair@PBDPAVFS_Path@@@std@@@@$0A@@std@@@std@@QAE@ABUpred_str@@ABV?$xalloc@U?$pair@PBDPAVFS_Path@@@std@@@@@Z 00938dd0 f i stdafx.obj
 0001:00037e20       ?_Getcomp@?$_Tree_comp@$0A@V?$_Tmap_traits@PBDPAVFS_Path@@Upred_str@@V?$xalloc@U?$pair@PBDPAVFS_Path@@@std@@@@$0A@@std@@@std@@QBE?AUpred_str@@XZ 00938e20 f i stdafx.obj
 0001:00037e30       ?_Setcomp@?$_Tree_comp@$0A@V?$_Tmap_traits@PBDPAVFS_Path@@Upred_str@@V?$xalloc@U?$pair@PBDPAVFS_Path@@@std@@@@$0A@@std@@@std@@QAEXABUpred_str@@@Z 00938e30 f i stdafx.obj
 0001:00037e40       ?_Change_alloc@?$_Tree_alloc@$0A@U?$_Tree_base_types@U?$pair@QBDPAVFS_Path@@@std@@V?$xalloc@U?$pair@PBDPAVFS_Path@@@std@@@@@std@@@std@@QAEXABU?$_Wrap_alloc@V?$xalloc@U?$_Tree_node@U?$pair@QBDPAVFS_Path@@@std@@PAX@std@@@@@2@@Z 00938e40 f i stdafx.obj
 0001:00037e50       ?_Freeheadnode@?$_Tree_alloc@$0A@U?$_Tree_base_types@U?$pair@QBDPAVFS_Path@@@std@@V?$xalloc@U?$pair@PBDPAVFS_Path@@@std@@@@@std@@@std@@QAEXPAU?$_Tree_node@U?$pair@QBDPAVFS_Path@@@std@@PAX@2@@Z 00938e50 f i stdafx.obj
 0001:00037e70       ??0?$_Wrap_alloc@V?$xalloc@U?$_Tree_node@U?$pair@QBDPAVFS_Path@@@std@@PAX@std@@@@@std@@QAE@XZ 00938e70 f i stdafx.obj
 0001:00037e80       ??0?$_Wrap_alloc@V?$xalloc@U?$_Tree_node@U?$pair@QBDPAVFS_Path@@@std@@PAX@std@@@@@std@@QAE@ABV?$xalloc@U?$_Tree_node@U?$pair@QBDPAVFS_Path@@@std@@PAX@std@@@@@Z 00938e80 f i stdafx.obj
 0001:00037e90       ?select_on_container_copy_construction@?$allocator_traits@V?$xalloc@U?$_Tree_node@U?$pair@QBDPAVFS_Path@@@std@@PAX@std@@@@@std@@SA?AV?$xalloc@U?$_Tree_node@U?$pair@QBDPAVFS_Path@@@std@@PAX@std@@@@ABV3@@Z 00938e90 f i stdafx.obj
 0001:00037ea0       ?begin@?$_Tree@V?$_Tset_traits@Ufile@CLocatorAPI@@Ufile_pred@2@V?$xalloc@Ufile@CLocatorAPI@@@@$0A@@std@@@std@@QAE?AV?$_Tree_const_iterator@V?$_Tree_val@U?$_Tree_simple_types@Ufile@CLocatorAPI@@@std@@@std@@@2@XZ 00938ea0 f i stdafx.obj
 0001:00037eb0       ?end@?$_Tree@V?$_Tset_traits@Ufile@CLocatorAPI@@Ufile_pred@2@V?$xalloc@Ufile@CLocatorAPI@@@@$0A@@std@@@std@@QAE?AV?$_Tree_const_iterator@V?$_Tree_val@U?$_Tree_simple_types@Ufile@CLocatorAPI@@@std@@@std@@@2@XZ 00938eb0 f i stdafx.obj
 0001:00037ec0       ?key_comp@?$_Tree@V?$_Tset_traits@Ufile@CLocatorAPI@@Ufile_pred@2@V?$xalloc@Ufile@CLocatorAPI@@@@$0A@@std@@@std@@QBE?AUfile_pred@CLocatorAPI@@XZ 00938ec0 f i stdafx.obj
 0001:00037ed0       ?erase@?$_Tree@V?$_Tset_traits@Ufile@CLocatorAPI@@Ufile_pred@2@V?$xalloc@Ufile@CLocatorAPI@@@@$0A@@std@@@std@@QAE?AV?$_Tree_const_iterator@V?$_Tree_val@U?$_Tree_simple_types@Ufile@CLocatorAPI@@@std@@@std@@@2@V32@0@Z 00938ed0 f i stdafx.obj
 0001:00037f90       ?clear@?$_Tree@V?$_Tset_traits@Ufile@CLocatorAPI@@Ufile_pred@2@V?$xalloc@Ufile@CLocatorAPI@@@@$0A@@std@@@std@@QAEXXZ 00938f90 f i stdafx.obj
 0001:00037fc0       ??0?$_Tree_comp@$0A@V?$_Tset_traits@Ufile@CLocatorAPI@@Ufile_pred@2@V?$xalloc@Ufile@CLocatorAPI@@@@$0A@@std@@@std@@QAE@ABUfile_pred@CLocatorAPI@@ABV?$xalloc@Ufile@CLocatorAPI@@@@@Z 00938fc0 f i stdafx.obj
 0001:00038010       ?_Getcomp@?$_Tree_comp@$0A@V?$_Tset_traits@Ufile@CLocatorAPI@@Ufile_pred@2@V?$xalloc@Ufile@CLocatorAPI@@@@$0A@@std@@@std@@QBE?AUfile_pred@CLocatorAPI@@XZ 00939010 f i stdafx.obj
 0001:00038020       ?_Setcomp@?$_Tree_comp@$0A@V?$_Tset_traits@Ufile@CLocatorAPI@@Ufile_pred@2@V?$xalloc@Ufile@CLocatorAPI@@@@$0A@@std@@@std@@QAEXABUfile_pred@CLocatorAPI@@@Z 00939020 f i stdafx.obj
 0001:00038030       ?_Change_alloc@?$_Tree_alloc@$0A@U?$_Tree_base_types@Ufile@CLocatorAPI@@V?$xalloc@Ufile@CLocatorAPI@@@@@std@@@std@@QAEXABU?$_Wrap_alloc@V?$xalloc@U?$_Tree_node@Ufile@CLocatorAPI@@PAX@std@@@@@2@@Z 00939030 f i stdafx.obj
 0001:00038040       ?_Freeheadnode@?$_Tree_alloc@$0A@U?$_Tree_base_types@Ufile@CLocatorAPI@@V?$xalloc@Ufile@CLocatorAPI@@@@@std@@@std@@QAEXPAU?$_Tree_node@Ufile@CLocatorAPI@@PAX@2@@Z 00939040 f i stdafx.obj
 0001:00038060       ??0?$_Wrap_alloc@V?$xalloc@U?$_Tree_node@Ufile@CLocatorAPI@@PAX@std@@@@@std@@QAE@XZ 00939060 f i stdafx.obj
 0001:00038070       ??0?$_Wrap_alloc@V?$xalloc@U?$_Tree_node@Ufile@CLocatorAPI@@PAX@std@@@@@std@@QAE@ABV?$xalloc@U?$_Tree_node@Ufile@CLocatorAPI@@PAX@std@@@@@Z 00939070 f i stdafx.obj
 0001:00038080       ?select_on_container_copy_construction@?$allocator_traits@V?$xalloc@U?$_Tree_node@Ufile@CLocatorAPI@@PAX@std@@@@@std@@SA?AV?$xalloc@U?$_Tree_node@Ufile@CLocatorAPI@@PAX@std@@@@ABV3@@Z 00939080 f i stdafx.obj
 0001:00038090       ?max_size@?$vector@Uarchive@CLocatorAPI@@V?$xalloc@Uarchive@CLocatorAPI@@@@@std@@QBEIXZ 00939090 f i stdafx.obj
 0001:000380a0       ?_Xlen@?$vector@Uarchive@CLocatorAPI@@V?$xalloc@Uarchive@CLocatorAPI@@@@@std@@IBEXXZ 009390a0 f i stdafx.obj
 0001:000380b0       ?deallocate@?$xalloc@Uarchive@CLocatorAPI@@@@QBEXPAUarchive@CLocatorAPI@@I@Z 009390b0 f i stdafx.obj
 0001:000380d0       ??0?$_Wrap_alloc@V?$xalloc@Uarchive@CLocatorAPI@@@@@std@@QAE@XZ 009390d0 f i stdafx.obj
 0001:000380e0       ??0?$_Wrap_alloc@V?$xalloc@Uarchive@CLocatorAPI@@@@@std@@QAE@ABV?$xalloc@Uarchive@CLocatorAPI@@@@@Z 009390e0 f i stdafx.obj
 0001:000380f0       ?allocate@?$_Wrap_alloc@V?$xalloc@Uarchive@CLocatorAPI@@@@@std@@QAEPAUarchive@CLocatorAPI@@I@Z 009390f0 f i stdafx.obj
 0001:00038110       ?select_on_container_copy_construction@?$allocator_traits@V?$xalloc@Uarchive@CLocatorAPI@@@@@std@@SA?AV?$xalloc@Uarchive@CLocatorAPI@@@@ABV3@@Z 00939110 f i stdafx.obj
 0001:00038120       ??0?$_Vector_val@U?$_Simple_types@Uarchive@CLocatorAPI@@@std@@@std@@QAE@XZ 00939120 f i stdafx.obj
 0001:00038140       ?max_size@?$vector@U_finddata64i32_t@@V?$xalloc@U_finddata64i32_t@@@@@std@@QBEIXZ 00939140 f i stdafx.obj
 0001:00038150       ?_Xlen@?$vector@U_finddata64i32_t@@V?$xalloc@U_finddata64i32_t@@@@@std@@IBEXXZ 00939150 f i stdafx.obj
 0001:00038160       ?deallocate@?$xalloc@U_finddata64i32_t@@@@QBEXPAU_finddata64i32_t@@I@Z 00939160 f i stdafx.obj
 0001:00038180       ??0?$_Wrap_alloc@V?$xalloc@U_finddata64i32_t@@@@@std@@QAE@XZ 00939180 f i stdafx.obj
 0001:00038190       ??0?$_Wrap_alloc@V?$xalloc@U_finddata64i32_t@@@@@std@@QAE@ABV?$xalloc@U_finddata64i32_t@@@@@Z 00939190 f i stdafx.obj
 0001:000381a0       ?allocate@?$_Wrap_alloc@V?$xalloc@U_finddata64i32_t@@@@@std@@QAEPAU_finddata64i32_t@@I@Z 009391a0 f i stdafx.obj
 0001:000381c0       ?select_on_container_copy_construction@?$allocator_traits@V?$xalloc@U_finddata64i32_t@@@@@std@@SA?AV?$xalloc@U_finddata64i32_t@@@@ABV3@@Z 009391c0 f i stdafx.obj
 0001:000381d0       ??0?$_Vector_val@U?$_Simple_types@U_finddata64i32_t@@@std@@@std@@QAE@XZ 009391d0 f i stdafx.obj
 0001:000381f0       ?begin@?$_Tree@V?$_Tmap_traits@Vshared_str@@U_FILE_ACCESS_STAT@@U?$less@Vshared_str@@@std@@V?$xalloc@U?$pair@Vshared_str@@U_FILE_ACCESS_STAT@@@std@@@@$0A@@std@@@std@@QAE?AV?$_Tree_iterator@V?$_Tree_val@U?$_Tree_simple_types@U?$pair@$$CBVshared_str@@U_FILE_ACCESS_STAT@@@std@@@std@@@std@@@2@XZ 009391f0 f i stdafx.obj
 0001:00038200       ?end@?$_Tree@V?$_Tmap_traits@Vshared_str@@U_FILE_ACCESS_STAT@@U?$less@Vshared_str@@@std@@V?$xalloc@U?$pair@Vshared_str@@U_FILE_ACCESS_STAT@@@std@@@@$0A@@std@@@std@@QAE?AV?$_Tree_iterator@V?$_Tree_val@U?$_Tree_simple_types@U?$pair@$$CBVshared_str@@U_FILE_ACCESS_STAT@@@std@@@std@@@std@@@2@XZ 00939200 f i stdafx.obj
 0001:00038210       ?key_comp@?$_Tree@V?$_Tmap_traits@Vshared_str@@U_FILE_ACCESS_STAT@@U?$less@Vshared_str@@@std@@V?$xalloc@U?$pair@Vshared_str@@U_FILE_ACCESS_STAT@@@std@@@@$0A@@std@@@std@@QBE?AU?$less@Vshared_str@@@2@XZ 00939210 f i stdafx.obj
 0001:00038220       ?erase@?$_Tree@V?$_Tmap_traits@Vshared_str@@U_FILE_ACCESS_STAT@@U?$less@Vshared_str@@@std@@V?$xalloc@U?$pair@Vshared_str@@U_FILE_ACCESS_STAT@@@std@@@@$0A@@std@@@std@@QAE?AV?$_Tree_iterator@V?$_Tree_val@U?$_Tree_simple_types@U?$pair@$$CBVshared_str@@U_FILE_ACCESS_STAT@@@std@@@std@@@std@@@2@V?$_Tree_const_iterator@V?$_Tree_val@U?$_Tree_simple_types@U?$pair@$$CBVshared_str@@U_FILE_ACCESS_STAT@@@std@@@std@@@std@@@2@0@Z 00939220 f i stdafx.obj
 0001:000382e0       ?clear@?$_Tree@V?$_Tmap_traits@Vshared_str@@U_FILE_ACCESS_STAT@@U?$less@Vshared_str@@@std@@V?$xalloc@U?$pair@Vshared_str@@U_FILE_ACCESS_STAT@@@std@@@@$0A@@std@@@std@@QAEXXZ 009392e0 f i stdafx.obj
 0001:00038310       ??0?$_Tree_comp@$0A@V?$_Tmap_traits@Vshared_str@@U_FILE_ACCESS_STAT@@U?$less@Vshared_str@@@std@@V?$xalloc@U?$pair@Vshared_str@@U_FILE_ACCESS_STAT@@@std@@@@$0A@@std@@@std@@QAE@ABU?$less@Vshared_str@@@1@ABV?$xalloc@U?$pair@Vshared_str@@U_FILE_ACCESS_STAT@@@std@@@@@Z 00939310 f i stdafx.obj
 0001:00038360       ?_Getcomp@?$_Tree_comp@$0A@V?$_Tmap_traits@Vshared_str@@U_FILE_ACCESS_STAT@@U?$less@Vshared_str@@@std@@V?$xalloc@U?$pair@Vshared_str@@U_FILE_ACCESS_STAT@@@std@@@@$0A@@std@@@std@@QBE?AU?$less@Vshared_str@@@2@XZ 00939360 f i stdafx.obj
 0001:00038370       ?_Setcomp@?$_Tree_comp@$0A@V?$_Tmap_traits@Vshared_str@@U_FILE_ACCESS_STAT@@U?$less@Vshared_str@@@std@@V?$xalloc@U?$pair@Vshared_str@@U_FILE_ACCESS_STAT@@@std@@@@$0A@@std@@@std@@QAEXABU?$less@Vshared_str@@@2@@Z 00939370 f i stdafx.obj
 0001:00038380       ?_Change_alloc@?$_Tree_alloc@$0A@U?$_Tree_base_types@U?$pair@$$CBVshared_str@@U_FILE_ACCESS_STAT@@@std@@V?$xalloc@U?$pair@Vshared_str@@U_FILE_ACCESS_STAT@@@std@@@@@std@@@std@@QAEXABU?$_Wrap_alloc@V?$xalloc@U?$_Tree_node@U?$pair@$$CBVshared_str@@U_FILE_ACCESS_STAT@@@std@@PAX@std@@@@@2@@Z 00939380 f i stdafx.obj
 0001:00038390       ?_Freeheadnode@?$_Tree_alloc@$0A@U?$_Tree_base_types@U?$pair@$$CBVshared_str@@U_FILE_ACCESS_STAT@@@std@@V?$xalloc@U?$pair@Vshared_str@@U_FILE_ACCESS_STAT@@@std@@@@@std@@@std@@QAEXPAU?$_Tree_node@U?$pair@$$CBVshared_str@@U_FILE_ACCESS_STAT@@@std@@PAX@2@@Z 00939390 f i stdafx.obj
 0001:000383b0       ??0?$_Wrap_alloc@V?$xalloc@U?$_Tree_node@U?$pair@$$CBVshared_str@@U_FILE_ACCESS_STAT@@@std@@PAX@std@@@@@std@@QAE@XZ 009393b0 f i stdafx.obj
 0001:000383c0       ??0?$_Wrap_alloc@V?$xalloc@U?$_Tree_node@U?$pair@$$CBVshared_str@@U_FILE_ACCESS_STAT@@@std@@PAX@std@@@@@std@@QAE@ABV?$xalloc@U?$_Tree_node@U?$pair@$$CBVshared_str@@U_FILE_ACCESS_STAT@@@std@@PAX@std@@@@@Z 009393c0 f i stdafx.obj
 0001:000383d0       ?select_on_container_copy_construction@?$allocator_traits@V?$xalloc@U?$_Tree_node@U?$pair@$$CBVshared_str@@U_FILE_ACCESS_STAT@@@std@@PAX@std@@@@@std@@SA?AV?$xalloc@U?$_Tree_node@U?$pair@$$CBVshared_str@@U_FILE_ACCESS_STAT@@@std@@PAX@std@@@@ABV3@@Z 009393d0 f i stdafx.obj
 0001:000383e0       ?begin@?$_Tree@V?$_Tmap_traits@Vshared_str@@V?$xr_vector@PAVIReader@@V?$xalloc@PAVIReader@@@@@@U?$less@Vshared_str@@@std@@V?$xalloc@U?$pair@Vshared_str@@V?$xr_vector@PAVIReader@@V?$xalloc@PAVIReader@@@@@@@std@@@@$0A@@std@@@std@@QAE?AV?$_Tree_iterator@V?$_Tree_val@U?$_Tree_simple_types@U?$pair@$$CBVshared_str@@V?$xr_vector@PAVIReader@@V?$xalloc@PAVIReader@@@@@@@std@@@std@@@std@@@2@XZ 009393e0 f i stdafx.obj
 0001:000383f0       ?end@?$_Tree@V?$_Tmap_traits@Vshared_str@@V?$xr_vector@PAVIReader@@V?$xalloc@PAVIReader@@@@@@U?$less@Vshared_str@@@std@@V?$xalloc@U?$pair@Vshared_str@@V?$xr_vector@PAVIReader@@V?$xalloc@PAVIReader@@@@@@@std@@@@$0A@@std@@@std@@QAE?AV?$_Tree_iterator@V?$_Tree_val@U?$_Tree_simple_types@U?$pair@$$CBVshared_str@@V?$xr_vector@PAVIReader@@V?$xalloc@PAVIReader@@@@@@@std@@@std@@@std@@@2@XZ 009393f0 f i stdafx.obj
 0001:00038400       ?key_comp@?$_Tree@V?$_Tmap_traits@Vshared_str@@V?$xr_vector@PAVIReader@@V?$xalloc@PAVIReader@@@@@@U?$less@Vshared_str@@@std@@V?$xalloc@U?$pair@Vshared_str@@V?$xr_vector@PAVIReader@@V?$xalloc@PAVIReader@@@@@@@std@@@@$0A@@std@@@std@@QBE?AU?$less@Vshared_str@@@2@XZ 00939400 f i stdafx.obj
 0001:00038410       ?erase@?$_Tree@V?$_Tmap_traits@Vshared_str@@V?$xr_vector@PAVIReader@@V?$xalloc@PAVIReader@@@@@@U?$less@Vshared_str@@@std@@V?$xalloc@U?$pair@Vshared_str@@V?$xr_vector@PAVIReader@@V?$xalloc@PAVIReader@@@@@@@std@@@@$0A@@std@@@std@@QAE?AV?$_Tree_iterator@V?$_Tree_val@U?$_Tree_simple_types@U?$pair@$$CBVshared_str@@V?$xr_vector@PAVIReader@@V?$xalloc@PAVIReader@@@@@@@std@@@std@@@std@@@2@V?$_Tree_const_iterator@V?$_Tree_val@U?$_Tree_simple_types@U?$pair@$$CBVshared_str@@V?$xr_vector@PAVIReader@@V?$xalloc@PAVIReader@@@@@@@std@@@std@@@std@@@2@0@Z 00939410 f i stdafx.obj
 0001:000384d0       ?clear@?$_Tree@V?$_Tmap_traits@Vshared_str@@V?$xr_vector@PAVIReader@@V?$xalloc@PAVIReader@@@@@@U?$less@Vshared_str@@@std@@V?$xalloc@U?$pair@Vshared_str@@V?$xr_vector@PAVIReader@@V?$xalloc@PAVIReader@@@@@@@std@@@@$0A@@std@@@std@@QAEXXZ 009394d0 f i stdafx.obj
 0001:00038500       ??0?$_Tree_comp@$0A@V?$_Tmap_traits@Vshared_str@@V?$xr_vector@PAVIReader@@V?$xalloc@PAVIReader@@@@@@U?$less@Vshared_str@@@std@@V?$xalloc@U?$pair@Vshared_str@@V?$xr_vector@PAVIReader@@V?$xalloc@PAVIReader@@@@@@@std@@@@$0A@@std@@@std@@QAE@ABU?$less@Vshared_str@@@1@ABV?$xalloc@U?$pair@Vshared_str@@V?$xr_vector@PAVIReader@@V?$xalloc@PAVIReader@@@@@@@std@@@@@Z 00939500 f i stdafx.obj
 0001:00038550       ?_Getcomp@?$_Tree_comp@$0A@V?$_Tmap_traits@Vshared_str@@V?$xr_vector@PAVIReader@@V?$xalloc@PAVIReader@@@@@@U?$less@Vshared_str@@@std@@V?$xalloc@U?$pair@Vshared_str@@V?$xr_vector@PAVIReader@@V?$xalloc@PAVIReader@@@@@@@std@@@@$0A@@std@@@std@@QBE?AU?$less@Vshared_str@@@2@XZ 00939550 f i stdafx.obj
 0001:00038560       ?_Setcomp@?$_Tree_comp@$0A@V?$_Tmap_traits@Vshared_str@@V?$xr_vector@PAVIReader@@V?$xalloc@PAVIReader@@@@@@U?$less@Vshared_str@@@std@@V?$xalloc@U?$pair@Vshared_str@@V?$xr_vector@PAVIReader@@V?$xalloc@PAVIReader@@@@@@@std@@@@$0A@@std@@@std@@QAEXABU?$less@Vshared_str@@@2@@Z 00939560 f i stdafx.obj
 0001:00038570       ?_Change_alloc@?$_Tree_alloc@$0A@U?$_Tree_base_types@U?$pair@$$CBVshared_str@@V?$xr_vector@PAVIReader@@V?$xalloc@PAVIReader@@@@@@@std@@V?$xalloc@U?$pair@Vshared_str@@V?$xr_vector@PAVIReader@@V?$xalloc@PAVIReader@@@@@@@std@@@@@std@@@std@@QAEXABU?$_Wrap_alloc@V?$xalloc@U?$_Tree_node@U?$pair@$$CBVshared_str@@V?$xr_vector@PAVIReader@@V?$xalloc@PAVIReader@@@@@@@std@@PAX@std@@@@@2@@Z 00939570 f i stdafx.obj
 0001:00038580       ?_Freeheadnode@?$_Tree_alloc@$0A@U?$_Tree_base_types@U?$pair@$$CBVshared_str@@V?$xr_vector@PAVIReader@@V?$xalloc@PAVIReader@@@@@@@std@@V?$xalloc@U?$pair@Vshared_str@@V?$xr_vector@PAVIReader@@V?$xalloc@PAVIReader@@@@@@@std@@@@@std@@@std@@QAEXPAU?$_Tree_node@U?$pair@$$CBVshared_str@@V?$xr_vector@PAVIReader@@V?$xalloc@PAVIReader@@@@@@@std@@PAX@2@@Z 00939580 f i stdafx.obj
 0001:000385a0       ??0?$_Wrap_alloc@V?$xalloc@U?$_Tree_node@U?$pair@$$CBVshared_str@@V?$xr_vector@PAVIReader@@V?$xalloc@PAVIReader@@@@@@@std@@PAX@std@@@@@std@@QAE@XZ 009395a0 f i stdafx.obj
 0001:000385b0       ??0?$_Wrap_alloc@V?$xalloc@U?$_Tree_node@U?$pair@$$CBVshared_str@@V?$xr_vector@PAVIReader@@V?$xalloc@PAVIReader@@@@@@@std@@PAX@std@@@@@std@@QAE@ABV?$xalloc@U?$_Tree_node@U?$pair@$$CBVshared_str@@V?$xr_vector@PAVIReader@@V?$xalloc@PAVIReader@@@@@@@std@@PAX@std@@@@@Z 009395b0 f i stdafx.obj
 0001:000385c0       ?select_on_container_copy_construction@?$allocator_traits@V?$xalloc@U?$_Tree_node@U?$pair@$$CBVshared_str@@V?$xr_vector@PAVIReader@@V?$xalloc@PAVIReader@@@@@@@std@@PAX@std@@@@@std@@SA?AV?$xalloc@U?$_Tree_node@U?$pair@$$CBVshared_str@@V?$xr_vector@PAVIReader@@V?$xalloc@PAVIReader@@@@@@@std@@PAX@std@@@@ABV3@@Z 009395c0 f i stdafx.obj
 0001:000385d0       ?begin@?$_Tree@V?$_Tmap_traits@V?$basic_string@DU?$char_traits@D@std@@V?$xalloc@D@@@std@@PAXU?$less@V?$basic_string@DU?$char_traits@D@std@@V?$xalloc@D@@@std@@@2@V?$xalloc@U?$pair@V?$basic_string@DU?$char_traits@D@std@@V?$xalloc@D@@@std@@PAX@std@@@@$0A@@std@@@std@@QAE?AV?$_Tree_iterator@V?$_Tree_val@U?$_Tree_simple_types@U?$pair@$$CBV?$basic_string@DU?$char_traits@D@std@@V?$xalloc@D@@@std@@PAX@std@@@std@@@std@@@2@XZ 009395d0 f i stdafx.obj
 0001:000385e0       ?end@?$_Tree@V?$_Tmap_traits@V?$basic_string@DU?$char_traits@D@std@@V?$xalloc@D@@@std@@PAXU?$less@V?$basic_string@DU?$char_traits@D@std@@V?$xalloc@D@@@std@@@2@V?$xalloc@U?$pair@V?$basic_string@DU?$char_traits@D@std@@V?$xalloc@D@@@std@@PAX@std@@@@$0A@@std@@@std@@QAE?AV?$_Tree_iterator@V?$_Tree_val@U?$_Tree_simple_types@U?$pair@$$CBV?$basic_string@DU?$char_traits@D@std@@V?$xalloc@D@@@std@@PAX@std@@@std@@@std@@@2@XZ 009395e0 f i stdafx.obj
 0001:000385f0       ?key_comp@?$_Tree@V?$_Tmap_traits@V?$basic_string@DU?$char_traits@D@std@@V?$xalloc@D@@@std@@PAXU?$less@V?$basic_string@DU?$char_traits@D@std@@V?$xalloc@D@@@std@@@2@V?$xalloc@U?$pair@V?$basic_string@DU?$char_traits@D@std@@V?$xalloc@D@@@std@@PAX@std@@@@$0A@@std@@@std@@QBE?AU?$less@V?$basic_string@DU?$char_traits@D@std@@V?$xalloc@D@@@std@@@2@XZ 009395f0 f i stdafx.obj
 0001:00038600       ?erase@?$_Tree@V?$_Tmap_traits@V?$basic_string@DU?$char_traits@D@std@@V?$xalloc@D@@@std@@PAXU?$less@V?$basic_string@DU?$char_traits@D@std@@V?$xalloc@D@@@std@@@2@V?$xalloc@U?$pair@V?$basic_string@DU?$char_traits@D@std@@V?$xalloc@D@@@std@@PAX@std@@@@$0A@@std@@@std@@QAE?AV?$_Tree_iterator@V?$_Tree_val@U?$_Tree_simple_types@U?$pair@$$CBV?$basic_string@DU?$char_traits@D@std@@V?$xalloc@D@@@std@@PAX@std@@@std@@@std@@@2@V?$_Tree_const_iterator@V?$_Tree_val@U?$_Tree_simple_types@U?$pair@$$CBV?$basic_string@DU?$char_traits@D@std@@V?$xalloc@D@@@std@@PAX@std@@@std@@@std@@@2@0@Z 00939600 f i stdafx.obj
 0001:000386c0       ?clear@?$_Tree@V?$_Tmap_traits@V?$basic_string@DU?$char_traits@D@std@@V?$xalloc@D@@@std@@PAXU?$less@V?$basic_string@DU?$char_traits@D@std@@V?$xalloc@D@@@std@@@2@V?$xalloc@U?$pair@V?$basic_string@DU?$char_traits@D@std@@V?$xalloc@D@@@std@@PAX@std@@@@$0A@@std@@@std@@QAEXXZ 009396c0 f i stdafx.obj
 0001:000386f0       ??0?$_Tree_comp@$0A@V?$_Tmap_traits@V?$basic_string@DU?$char_traits@D@std@@V?$xalloc@D@@@std@@PAXU?$less@V?$basic_string@DU?$char_traits@D@std@@V?$xalloc@D@@@std@@@2@V?$xalloc@U?$pair@V?$basic_string@DU?$char_traits@D@std@@V?$xalloc@D@@@std@@PAX@std@@@@$0A@@std@@@std@@QAE@ABU?$less@V?$basic_string@DU?$char_traits@D@std@@V?$xalloc@D@@@std@@@1@ABV?$xalloc@U?$pair@V?$basic_string@DU?$char_traits@D@std@@V?$xalloc@D@@@std@@PAX@std@@@@@Z 009396f0 f i stdafx.obj
 0001:00038740       ?_Getcomp@?$_Tree_comp@$0A@V?$_Tmap_traits@V?$basic_string@DU?$char_traits@D@std@@V?$xalloc@D@@@std@@PAXU?$less@V?$basic_string@DU?$char_traits@D@std@@V?$xalloc@D@@@std@@@2@V?$xalloc@U?$pair@V?$basic_string@DU?$char_traits@D@std@@V?$xalloc@D@@@std@@PAX@std@@@@$0A@@std@@@std@@QBE?AU?$less@V?$basic_string@DU?$char_traits@D@std@@V?$xalloc@D@@@std@@@2@XZ 00939740 f i stdafx.obj
 0001:00038750       ?_Setcomp@?$_Tree_comp@$0A@V?$_Tmap_traits@V?$basic_string@DU?$char_traits@D@std@@V?$xalloc@D@@@std@@PAXU?$less@V?$basic_string@DU?$char_traits@D@std@@V?$xalloc@D@@@std@@@2@V?$xalloc@U?$pair@V?$basic_string@DU?$char_traits@D@std@@V?$xalloc@D@@@std@@PAX@std@@@@$0A@@std@@@std@@QAEXABU?$less@V?$basic_string@DU?$char_traits@D@std@@V?$xalloc@D@@@std@@@2@@Z 00939750 f i stdafx.obj
 0001:00038760       ?_Change_alloc@?$_Tree_alloc@$0A@U?$_Tree_base_types@U?$pair@$$CBV?$basic_string@DU?$char_traits@D@std@@V?$xalloc@D@@@std@@PAX@std@@V?$xalloc@U?$pair@V?$basic_string@DU?$char_traits@D@std@@V?$xalloc@D@@@std@@PAX@std@@@@@std@@@std@@QAEXABU?$_Wrap_alloc@V?$xalloc@U?$_Tree_node@U?$pair@$$CBV?$basic_string@DU?$char_traits@D@std@@V?$xalloc@D@@@std@@PAX@std@@PAX@std@@@@@2@@Z 00939760 f i stdafx.obj
 0001:00038770       ?_Freeheadnode@?$_Tree_alloc@$0A@U?$_Tree_base_types@U?$pair@$$CBV?$basic_string@DU?$char_traits@D@std@@V?$xalloc@D@@@std@@PAX@std@@V?$xalloc@U?$pair@V?$basic_string@DU?$char_traits@D@std@@V?$xalloc@D@@@std@@PAX@std@@@@@std@@@std@@QAEXPAU?$_Tree_node@U?$pair@$$CBV?$basic_string@DU?$char_traits@D@std@@V?$xalloc@D@@@std@@PAX@std@@PAX@2@@Z 00939770 f i stdafx.obj
 0001:00038790       ??0?$_Wrap_alloc@V?$xalloc@U?$_Tree_node@U?$pair@$$CBV?$basic_string@DU?$char_traits@D@std@@V?$xalloc@D@@@std@@PAX@std@@PAX@std@@@@@std@@QAE@XZ 00939790 f i stdafx.obj
 0001:000387a0       ??0?$_Wrap_alloc@V?$xalloc@U?$_Tree_node@U?$pair@$$CBV?$basic_string@DU?$char_traits@D@std@@V?$xalloc@D@@@std@@PAX@std@@PAX@std@@@@@std@@QAE@ABV?$xalloc@U?$_Tree_node@U?$pair@$$CBV?$basic_string@DU?$char_traits@D@std@@V?$xalloc@D@@@std@@PAX@std@@PAX@std@@@@@Z 009397a0 f i stdafx.obj
 0001:000387b0       ?select_on_container_copy_construction@?$allocator_traits@V?$xalloc@U?$_Tree_node@U?$pair@$$CBV?$basic_string@DU?$char_traits@D@std@@V?$xalloc@D@@@std@@PAX@std@@PAX@std@@@@@std@@SA?AV?$xalloc@U?$_Tree_node@U?$pair@$$CBV?$basic_string@DU?$char_traits@D@std@@V?$xalloc@D@@@std@@PAX@std@@PAX@std@@@@ABV3@@Z 009397b0 f i stdafx.obj
 0001:000387c0       ??0?$_Wrap_alloc@V?$xalloc@PAVCTimer_paused@@@@@std@@QAE@ABV?$xalloc@PAVCTimer_paused@@@@@Z 009397c0 f i stdafx.obj
 0001:000387d0       ?select_on_container_copy_construction@?$allocator_traits@V?$xalloc@PAVCTimer_paused@@@@@std@@SA?AV?$xalloc@PAVCTimer_paused@@@@ABV3@@Z 009397d0 f i stdafx.obj
 0001:000387e0       ??0?$_Vector_const_iterator@V?$_Vector_val@U?$_Simple_types@I@std@@@std@@@std@@QAE@PAIPBU_Container_base0@1@@Z 009397e0 f i stdafx.obj
 0001:000387f0       ??0?$_Vector_const_iterator@V?$_Vector_val@U?$_Simple_types@PAUsmem_value@@@std@@@std@@@std@@QAE@PAPAUsmem_value@@PBU_Container_base0@1@@Z 009397f0 f i stdafx.obj
 0001:00038800       ??0?$_Vector_const_iterator@V?$_Vector_val@U?$_Simple_types@UItem@CInifile@@@std@@@std@@@std@@QAE@PAUItem@CInifile@@PBU_Container_base0@1@@Z 00939800 f i stdafx.obj
 0001:00038810       ??0?$_Vector_const_iterator@V?$_Vector_val@U?$_Simple_types@Uarchive@CLocatorAPI@@@std@@@std@@@std@@QAE@PAUarchive@CLocatorAPI@@PBU_Container_base0@1@@Z 00939810 f i stdafx.obj
 0001:00038820       ??0?$_Vector_const_iterator@V?$_Vector_val@U?$_Simple_types@U_finddata64i32_t@@@std@@@std@@@std@@QAE@PAU_finddata64i32_t@@PBU_Container_base0@1@@Z 00939820 f i stdafx.obj
 0001:00038830       ?max_size@?$basic_string@DU?$char_traits@D@std@@V?$allocator@D@2@@std@@QBEIXZ 00939830 f i stdafx.obj
 0001:00038840       ?_Copy@?$basic_string@DU?$char_traits@D@std@@V?$allocator@D@2@@std@@QAEXII@Z 00939840 f i stdafx.obj
 0001:000389a0       ?deallocate@?$allocator@D@std@@QAEXPADI@Z 009399a0 f i stdafx.obj
 0001:000389b0       ?max_size@?$_Wrap_alloc@V?$xalloc@I@@@std@@QBEIXZ 009399b0 f i stdafx.obj
 0001:000389c0       ??0?$xalloc@I@@QAE@ABV0@@Z 009399c0 f i stdafx.obj
 0001:000389d0       ?allocate@?$xalloc@I@@QBEPAIIPBX@Z 009399d0 f i stdafx.obj
 0001:000389f0       ??0?$xalloc@PAUsmem_value@@@@QAE@ABV0@@Z 009399f0 f i stdafx.obj
 0001:00038a00       ?allocate@?$xalloc@PAUsmem_value@@@@QBEPAPAUsmem_value@@IPBX@Z 00939a00 f i stdafx.obj
 0001:00038a20       ?max_size@?$_Wrap_alloc@V?$xalloc@PAUsmem_value@@@@@std@@QBEIXZ 00939a20 f i stdafx.obj
 0001:00038a30       ?erase@?$_Tree@V?$_Tset_traits@PAUstr_value@@Ustr_value_cmp@@V?$xalloc@PAUstr_value@@@@$00@std@@@std@@QAE?AV?$_Tree_const_iterator@V?$_Tree_val@U?$_Tree_simple_types@PAUstr_value@@@std@@@std@@@2@V32@@Z 00939a30 f i stdafx.obj
 0001:00038cb0       ?_Erase@?$_Tree@V?$_Tset_traits@PAUstr_value@@Ustr_value_cmp@@V?$xalloc@PAUstr_value@@@@$00@std@@@std@@IAEXPAU?$_Tree_node@PAUstr_value@@PAX@2@@Z 00939cb0 f i stdafx.obj
 0001:00038cf0       ?_Lmost@?$_Tree@V?$_Tset_traits@PAUstr_value@@Ustr_value_cmp@@V?$xalloc@PAUstr_value@@@@$00@std@@@std@@IBEAAPAU?$_Tree_node@PAUstr_value@@PAX@2@XZ 00939cf0 f i stdafx.obj
 0001:00038d00       ?_Rmost@?$_Tree@V?$_Tset_traits@PAUstr_value@@Ustr_value_cmp@@V?$xalloc@PAUstr_value@@@@$00@std@@@std@@IBEAAPAU?$_Tree_node@PAUstr_value@@PAX@2@XZ 00939d00 f i stdafx.obj
 0001:00038d10       ?_Root@?$_Tree@V?$_Tset_traits@PAUstr_value@@Ustr_value_cmp@@V?$xalloc@PAUstr_value@@@@$00@std@@@std@@IBEAAPAU?$_Tree_node@PAUstr_value@@PAX@2@XZ 00939d10 f i stdafx.obj
 0001:00038d20       ??0?$_Tree_buy@PAUstr_value@@V?$xalloc@PAUstr_value@@@@@std@@QAE@ABV?$xalloc@PAUstr_value@@@@@Z 00939d20 f i stdafx.obj
 0001:00038d70       ?deallocate@?$_Wrap_alloc@V?$xalloc@U?$_Tree_node@PAUstr_value@@PAX@std@@@@@std@@QAEXPAU?$_Tree_node@PAUstr_value@@PAX@2@I@Z 00939d70 f i stdafx.obj
 0001:00038d90       ??0?$xalloc@U?$_Tree_node@PAUstr_value@@PAX@std@@@@QAE@XZ 00939d90 f i stdafx.obj
 0001:00038da0       ??0?$xalloc@U?$_Tree_node@PAUstr_value@@PAX@std@@@@QAE@ABV0@@Z 00939da0 f i stdafx.obj
 0001:00038db0       ?_Left@?$_Tree_val@U?$_Tree_simple_types@PAUstr_value@@@std@@@std@@SAAAPAU?$_Tree_node@PAUstr_value@@PAX@2@PAU32@@Z 00939db0 f i stdafx.obj
 0001:00038dc0       ?_Parent@?$_Tree_val@U?$_Tree_simple_types@PAUstr_value@@@std@@@std@@SAAAPAU?$_Tree_node@PAUstr_value@@PAX@2@PAU32@@Z 00939dc0 f i stdafx.obj
 0001:00038dd0       ?_Right@?$_Tree_val@U?$_Tree_simple_types@PAUstr_value@@@std@@@std@@SAAAPAU?$_Tree_node@PAUstr_value@@PAX@2@PAU32@@Z 00939dd0 f i stdafx.obj
 0001:00038de0       ?max_size@?$basic_string@DU?$char_traits@D@std@@V?$xalloc@D@@@std@@QBEIXZ 00939de0 f i stdafx.obj
 0001:00038df0       ?_Copy@?$basic_string@DU?$char_traits@D@std@@V?$xalloc@D@@@std@@QAEXII@Z 00939df0 f i stdafx.obj
 0001:00038f60       ?_Xlen@?$basic_string@DU?$char_traits@D@std@@V?$xalloc@D@@@std@@QBEXXZ 00939f60 f i stdafx.obj
 0001:00038f70       ??0?$xalloc@D@@QAE@ABV0@@Z 00939f70 f i stdafx.obj
 0001:00038f80       ?deallocate@?$xalloc@D@@QBEXPADI@Z 00939f80 f i stdafx.obj
 0001:00038fa0       ??0?$xalloc@UItem@CInifile@@@@QAE@ABV0@@Z 00939fa0 f i stdafx.obj
 0001:00038fb0       ?allocate@?$xalloc@UItem@CInifile@@@@QBEPAUItem@CInifile@@IPBX@Z 00939fb0 f i stdafx.obj
 0001:00038fd0       ?max_size@?$_Wrap_alloc@V?$xalloc@UItem@CInifile@@@@@std@@QBEIXZ 00939fd0 f i stdafx.obj
 0001:00038fe0       ?erase@?$_Tree@V?$_Tmap_traits@Vshared_str@@PAUSect@CInifile@@U?$less@Vshared_str@@@std@@V?$xalloc@U?$pair@Vshared_str@@PAUSect@CInifile@@@std@@@@$0A@@std@@@std@@QAE?AV?$_Tree_iterator@V?$_Tree_val@U?$_Tree_simple_types@U?$pair@$$CBVshared_str@@PAUSect@CInifile@@@std@@@std@@@std@@@2@V?$_Tree_const_iterator@V?$_Tree_val@U?$_Tree_simple_types@U?$pair@$$CBVshared_str@@PAUSect@CInifile@@@std@@@std@@@std@@@2@@Z 00939fe0 f i stdafx.obj
 0001:000392b0       ?_Erase@?$_Tree@V?$_Tmap_traits@Vshared_str@@PAUSect@CInifile@@U?$less@Vshared_str@@@std@@V?$xalloc@U?$pair@Vshared_str@@PAUSect@CInifile@@@std@@@@$0A@@std@@@std@@IAEXPAU?$_Tree_node@U?$pair@$$CBVshared_str@@PAUSect@CInifile@@@std@@PAX@2@@Z 0093a2b0 f i stdafx.obj
 0001:00039340       ?_Lmost@?$_Tree@V?$_Tmap_traits@Vshared_str@@PAUSect@CInifile@@U?$less@Vshared_str@@@std@@V?$xalloc@U?$pair@Vshared_str@@PAUSect@CInifile@@@std@@@@$0A@@std@@@std@@IBEAAPAU?$_Tree_node@U?$pair@$$CBVshared_str@@PAUSect@CInifile@@@std@@PAX@2@XZ 0093a340 f i stdafx.obj
 0001:00039350       ?_Rmost@?$_Tree@V?$_Tmap_traits@Vshared_str@@PAUSect@CInifile@@U?$less@Vshared_str@@@std@@V?$xalloc@U?$pair@Vshared_str@@PAUSect@CInifile@@@std@@@@$0A@@std@@@std@@IBEAAPAU?$_Tree_node@U?$pair@$$CBVshared_str@@PAUSect@CInifile@@@std@@PAX@2@XZ 0093a350 f i stdafx.obj
 0001:00039360       ?_Root@?$_Tree@V?$_Tmap_traits@Vshared_str@@PAUSect@CInifile@@U?$less@Vshared_str@@@std@@V?$xalloc@U?$pair@Vshared_str@@PAUSect@CInifile@@@std@@@@$0A@@std@@@std@@IBEAAPAU?$_Tree_node@U?$pair@$$CBVshared_str@@PAUSect@CInifile@@@std@@PAX@2@XZ 0093a360 f i stdafx.obj
 0001:00039370       ??0?$_Tree_buy@U?$pair@$$CBVshared_str@@PAUSect@CInifile@@@std@@V?$xalloc@U?$pair@Vshared_str@@PAUSect@CInifile@@@std@@@@@std@@QAE@ABV?$xalloc@U?$pair@Vshared_str@@PAUSect@CInifile@@@std@@@@@Z 0093a370 f i stdafx.obj
 0001:000393c0       ?deallocate@?$_Wrap_alloc@V?$xalloc@U?$_Tree_node@U?$pair@$$CBVshared_str@@PAUSect@CInifile@@@std@@PAX@std@@@@@std@@QAEXPAU?$_Tree_node@U?$pair@$$CBVshared_str@@PAUSect@CInifile@@@std@@PAX@2@I@Z 0093a3c0 f i stdafx.obj
 0001:000393e0       ??0?$xalloc@U?$_Tree_node@U?$pair@$$CBVshared_str@@PAUSect@CInifile@@@std@@PAX@std@@@@QAE@XZ 0093a3e0 f i stdafx.obj
 0001:000393f0       ??0?$xalloc@U?$_Tree_node@U?$pair@$$CBVshared_str@@PAUSect@CInifile@@@std@@PAX@std@@@@QAE@ABV0@@Z 0093a3f0 f i stdafx.obj
 0001:00039400       ?_Left@?$_Tree_val@U?$_Tree_simple_types@U?$pair@$$CBVshared_str@@PAUSect@CInifile@@@std@@@std@@@std@@SAAAPAU?$_Tree_node@U?$pair@$$CBVshared_str@@PAUSect@CInifile@@@std@@PAX@2@PAU32@@Z 0093a400 f i stdafx.obj
 0001:00039410       ?_Parent@?$_Tree_val@U?$_Tree_simple_types@U?$pair@$$CBVshared_str@@PAUSect@CInifile@@@std@@@std@@@std@@SAAAPAU?$_Tree_node@U?$pair@$$CBVshared_str@@PAUSect@CInifile@@@std@@PAX@2@PAU32@@Z 0093a410 f i stdafx.obj
 0001:00039420       ?_Right@?$_Tree_val@U?$_Tree_simple_types@U?$pair@$$CBVshared_str@@PAUSect@CInifile@@@std@@@std@@@std@@SAAAPAU?$_Tree_node@U?$pair@$$CBVshared_str@@PAUSect@CInifile@@@std@@PAX@2@PAU32@@Z 0093a420 f i stdafx.obj
 0001:00039430       ?erase@?$_Tree@V?$_Tmap_traits@Vshared_str@@V1@U?$less@Vshared_str@@@std@@V?$xalloc@U?$pair@Vshared_str@@V1@@std@@@@$0A@@std@@@std@@QAE?AV?$_Tree_iterator@V?$_Tree_val@U?$_Tree_simple_types@U?$pair@$$CBVshared_str@@V1@@std@@@std@@@std@@@2@V?$_Tree_const_iterator@V?$_Tree_val@U?$_Tree_simple_types@U?$pair@$$CBVshared_str@@V1@@std@@@std@@@std@@@2@@Z 0093a430 f i stdafx.obj
 0001:00039720       ?_Erase@?$_Tree@V?$_Tmap_traits@Vshared_str@@V1@U?$less@Vshared_str@@@std@@V?$xalloc@U?$pair@Vshared_str@@V1@@std@@@@$0A@@std@@@std@@IAEXPAU?$_Tree_node@U?$pair@$$CBVshared_str@@V1@@std@@PAX@2@@Z 0093a720 f i stdafx.obj
 0001:000397d0       ?_Lmost@?$_Tree@V?$_Tmap_traits@Vshared_str@@V1@U?$less@Vshared_str@@@std@@V?$xalloc@U?$pair@Vshared_str@@V1@@std@@@@$0A@@std@@@std@@IBEAAPAU?$_Tree_node@U?$pair@$$CBVshared_str@@V1@@std@@PAX@2@XZ 0093a7d0 f i stdafx.obj
 0001:000397e0       ?_Rmost@?$_Tree@V?$_Tmap_traits@Vshared_str@@V1@U?$less@Vshared_str@@@std@@V?$xalloc@U?$pair@Vshared_str@@V1@@std@@@@$0A@@std@@@std@@IBEAAPAU?$_Tree_node@U?$pair@$$CBVshared_str@@V1@@std@@PAX@2@XZ 0093a7e0 f i stdafx.obj
 0001:000397f0       ?_Root@?$_Tree@V?$_Tmap_traits@Vshared_str@@V1@U?$less@Vshared_str@@@std@@V?$xalloc@U?$pair@Vshared_str@@V1@@std@@@@$0A@@std@@@std@@IBEAAPAU?$_Tree_node@U?$pair@$$CBVshared_str@@V1@@std@@PAX@2@XZ 0093a7f0 f i stdafx.obj
 0001:00039800       ??0?$_Tree_buy@U?$pair@$$CBVshared_str@@V1@@std@@V?$xalloc@U?$pair@Vshared_str@@V1@@std@@@@@std@@QAE@ABV?$xalloc@U?$pair@Vshared_str@@V1@@std@@@@@Z 0093a800 f i stdafx.obj
 0001:00039850       ?deallocate@?$_Wrap_alloc@V?$xalloc@U?$_Tree_node@U?$pair@$$CBVshared_str@@V1@@std@@PAX@std@@@@@std@@QAEXPAU?$_Tree_node@U?$pair@$$CBVshared_str@@V1@@std@@PAX@2@I@Z 0093a850 f i stdafx.obj
 0001:00039870       ??0?$xalloc@U?$_Tree_node@U?$pair@$$CBVshared_str@@V1@@std@@PAX@std@@@@QAE@XZ 0093a870 f i stdafx.obj
 0001:00039880       ??0?$xalloc@U?$_Tree_node@U?$pair@$$CBVshared_str@@V1@@std@@PAX@std@@@@QAE@ABV0@@Z 0093a880 f i stdafx.obj
 0001:00039890       ?_Left@?$_Tree_val@U?$_Tree_simple_types@U?$pair@$$CBVshared_str@@V1@@std@@@std@@@std@@SAAAPAU?$_Tree_node@U?$pair@$$CBVshared_str@@V1@@std@@PAX@2@PAU32@@Z 0093a890 f i stdafx.obj
 0001:000398a0       ?_Parent@?$_Tree_val@U?$_Tree_simple_types@U?$pair@$$CBVshared_str@@V1@@std@@@std@@@std@@SAAAPAU?$_Tree_node@U?$pair@$$CBVshared_str@@V1@@std@@PAX@2@PAU32@@Z 0093a8a0 f i stdafx.obj
 0001:000398b0       ?_Right@?$_Tree_val@U?$_Tree_simple_types@U?$pair@$$CBVshared_str@@V1@@std@@@std@@@std@@SAAAPAU?$_Tree_node@U?$pair@$$CBVshared_str@@V1@@std@@PAX@2@PAU32@@Z 0093a8b0 f i stdafx.obj
 0001:000398c0       ?erase@?$_Tree@V?$_Tmap_traits@PBDPAVFS_Path@@Upred_str@@V?$xalloc@U?$pair@PBDPAVFS_Path@@@std@@@@$0A@@std@@@std@@QAE?AV?$_Tree_iterator@V?$_Tree_val@U?$_Tree_simple_types@U?$pair@QBDPAVFS_Path@@@std@@@std@@@std@@@2@V?$_Tree_const_iterator@V?$_Tree_val@U?$_Tree_simple_types@U?$pair@QBDPAVFS_Path@@@std@@@std@@@std@@@2@@Z 0093a8c0 f i stdafx.obj
 0001:00039b40       ?_Erase@?$_Tree@V?$_Tmap_traits@PBDPAVFS_Path@@Upred_str@@V?$xalloc@U?$pair@PBDPAVFS_Path@@@std@@@@$0A@@std@@@std@@IAEXPAU?$_Tree_node@U?$pair@QBDPAVFS_Path@@@std@@PAX@2@@Z 0093ab40 f i stdafx.obj
 0001:00039b90       ?_Lmost@?$_Tree@V?$_Tmap_traits@PBDPAVFS_Path@@Upred_str@@V?$xalloc@U?$pair@PBDPAVFS_Path@@@std@@@@$0A@@std@@@std@@IBEAAPAU?$_Tree_node@U?$pair@QBDPAVFS_Path@@@std@@PAX@2@XZ 0093ab90 f i stdafx.obj
 0001:00039ba0       ?_Rmost@?$_Tree@V?$_Tmap_traits@PBDPAVFS_Path@@Upred_str@@V?$xalloc@U?$pair@PBDPAVFS_Path@@@std@@@@$0A@@std@@@std@@IBEAAPAU?$_Tree_node@U?$pair@QBDPAVFS_Path@@@std@@PAX@2@XZ 0093aba0 f i stdafx.obj
 0001:00039bb0       ?_Root@?$_Tree@V?$_Tmap_traits@PBDPAVFS_Path@@Upred_str@@V?$xalloc@U?$pair@PBDPAVFS_Path@@@std@@@@$0A@@std@@@std@@IBEAAPAU?$_Tree_node@U?$pair@QBDPAVFS_Path@@@std@@PAX@2@XZ 0093abb0 f i stdafx.obj
 0001:00039bc0       ??0?$_Tree_buy@U?$pair@QBDPAVFS_Path@@@std@@V?$xalloc@U?$pair@PBDPAVFS_Path@@@std@@@@@std@@QAE@ABV?$xalloc@U?$pair@PBDPAVFS_Path@@@std@@@@@Z 0093abc0 f i stdafx.obj
 0001:00039c10       ?deallocate@?$_Wrap_alloc@V?$xalloc@U?$_Tree_node@U?$pair@QBDPAVFS_Path@@@std@@PAX@std@@@@@std@@QAEXPAU?$_Tree_node@U?$pair@QBDPAVFS_Path@@@std@@PAX@2@I@Z 0093ac10 f i stdafx.obj
 0001:00039c30       ??0?$xalloc@U?$_Tree_node@U?$pair@QBDPAVFS_Path@@@std@@PAX@std@@@@QAE@XZ 0093ac30 f i stdafx.obj
 0001:00039c40       ??0?$xalloc@U?$_Tree_node@U?$pair@QBDPAVFS_Path@@@std@@PAX@std@@@@QAE@ABV0@@Z 0093ac40 f i stdafx.obj
 0001:00039c50       ?_Left@?$_Tree_val@U?$_Tree_simple_types@U?$pair@QBDPAVFS_Path@@@std@@@std@@@std@@SAAAPAU?$_Tree_node@U?$pair@QBDPAVFS_Path@@@std@@PAX@2@PAU32@@Z 0093ac50 f i stdafx.obj
 0001:00039c60       ?_Parent@?$_Tree_val@U?$_Tree_simple_types@U?$pair@QBDPAVFS_Path@@@std@@@std@@@std@@SAAAPAU?$_Tree_node@U?$pair@QBDPAVFS_Path@@@std@@PAX@2@PAU32@@Z 0093ac60 f i stdafx.obj
 0001:00039c70       ?_Right@?$_Tree_val@U?$_Tree_simple_types@U?$pair@QBDPAVFS_Path@@@std@@@std@@@std@@SAAAPAU?$_Tree_node@U?$pair@QBDPAVFS_Path@@@std@@PAX@2@PAU32@@Z 0093ac70 f i stdafx.obj
 0001:00039c80       ?erase@?$_Tree@V?$_Tset_traits@Ufile@CLocatorAPI@@Ufile_pred@2@V?$xalloc@Ufile@CLocatorAPI@@@@$0A@@std@@@std@@QAE?AV?$_Tree_const_iterator@V?$_Tree_val@U?$_Tree_simple_types@Ufile@CLocatorAPI@@@std@@@std@@@2@V32@@Z 0093ac80 f i stdafx.obj
 0001:00039f00       ?_Erase@?$_Tree@V?$_Tset_traits@Ufile@CLocatorAPI@@Ufile_pred@2@V?$xalloc@Ufile@CLocatorAPI@@@@$0A@@std@@@std@@IAEXPAU?$_Tree_node@Ufile@CLocatorAPI@@PAX@2@@Z 0093af00 f i stdafx.obj
 0001:00039f50       ?_Lmost@?$_Tree@V?$_Tset_traits@Ufile@CLocatorAPI@@Ufile_pred@2@V?$xalloc@Ufile@CLocatorAPI@@@@$0A@@std@@@std@@IBEAAPAU?$_Tree_node@Ufile@CLocatorAPI@@PAX@2@XZ 0093af50 f i stdafx.obj
 0001:00039f60       ?_Rmost@?$_Tree@V?$_Tset_traits@Ufile@CLocatorAPI@@Ufile_pred@2@V?$xalloc@Ufile@CLocatorAPI@@@@$0A@@std@@@std@@IBEAAPAU?$_Tree_node@Ufile@CLocatorAPI@@PAX@2@XZ 0093af60 f i stdafx.obj
 0001:00039f70       ?_Root@?$_Tree@V?$_Tset_traits@Ufile@CLocatorAPI@@Ufile_pred@2@V?$xalloc@Ufile@CLocatorAPI@@@@$0A@@std@@@std@@IBEAAPAU?$_Tree_node@Ufile@CLocatorAPI@@PAX@2@XZ 0093af70 f i stdafx.obj
 0001:00039f80       ??0?$_Tree_buy@Ufile@CLocatorAPI@@V?$xalloc@Ufile@CLocatorAPI@@@@@std@@QAE@ABV?$xalloc@Ufile@CLocatorAPI@@@@@Z 0093af80 f i stdafx.obj
 0001:00039fd0       ?deallocate@?$_Wrap_alloc@V?$xalloc@U?$_Tree_node@Ufile@CLocatorAPI@@PAX@std@@@@@std@@QAEXPAU?$_Tree_node@Ufile@CLocatorAPI@@PAX@2@I@Z 0093afd0 f i stdafx.obj
 0001:00039ff0       ??0?$xalloc@U?$_Tree_node@Ufile@CLocatorAPI@@PAX@std@@@@QAE@XZ 0093aff0 f i stdafx.obj
 0001:0003a000       ??0?$xalloc@U?$_Tree_node@Ufile@CLocatorAPI@@PAX@std@@@@QAE@ABV0@@Z 0093b000 f i stdafx.obj
 0001:0003a010       ?_Left@?$_Tree_val@U?$_Tree_simple_types@Ufile@CLocatorAPI@@@std@@@std@@SAAAPAU?$_Tree_node@Ufile@CLocatorAPI@@PAX@2@PAU32@@Z 0093b010 f i stdafx.obj
 0001:0003a020       ?_Parent@?$_Tree_val@U?$_Tree_simple_types@Ufile@CLocatorAPI@@@std@@@std@@SAAAPAU?$_Tree_node@Ufile@CLocatorAPI@@PAX@2@PAU32@@Z 0093b020 f i stdafx.obj
 0001:0003a030       ?_Right@?$_Tree_val@U?$_Tree_simple_types@Ufile@CLocatorAPI@@@std@@@std@@SAAAPAU?$_Tree_node@Ufile@CLocatorAPI@@PAX@2@PAU32@@Z 0093b030 f i stdafx.obj
 0001:0003a040       ??0?$xalloc@Uarchive@CLocatorAPI@@@@QAE@XZ 0093b040 f i stdafx.obj
 0001:0003a050       ??0?$xalloc@Uarchive@CLocatorAPI@@@@QAE@ABV0@@Z 0093b050 f i stdafx.obj
 0001:0003a060       ?allocate@?$xalloc@Uarchive@CLocatorAPI@@@@QBEPAUarchive@CLocatorAPI@@IPBX@Z 0093b060 f i stdafx.obj
 0001:0003a080       ?max_size@?$_Wrap_alloc@V?$xalloc@Uarchive@CLocatorAPI@@@@@std@@QBEIXZ 0093b080 f i stdafx.obj
 0001:0003a090       ??0?$xalloc@U_finddata64i32_t@@@@QAE@XZ 0093b090 f i stdafx.obj
 0001:0003a0a0       ??0?$xalloc@U_finddata64i32_t@@@@QAE@ABV0@@Z 0093b0a0 f i stdafx.obj
 0001:0003a0b0       ?allocate@?$xalloc@U_finddata64i32_t@@@@QBEPAU_finddata64i32_t@@IPBX@Z 0093b0b0 f i stdafx.obj
 0001:0003a0d0       ?max_size@?$_Wrap_alloc@V?$xalloc@U_finddata64i32_t@@@@@std@@QBEIXZ 0093b0d0 f i stdafx.obj
 0001:0003a0e0       ?erase@?$_Tree@V?$_Tmap_traits@Vshared_str@@U_FILE_ACCESS_STAT@@U?$less@Vshared_str@@@std@@V?$xalloc@U?$pair@Vshared_str@@U_FILE_ACCESS_STAT@@@std@@@@$0A@@std@@@std@@QAE?AV?$_Tree_iterator@V?$_Tree_val@U?$_Tree_simple_types@U?$pair@$$CBVshared_str@@U_FILE_ACCESS_STAT@@@std@@@std@@@std@@@2@V?$_Tree_const_iterator@V?$_Tree_val@U?$_Tree_simple_types@U?$pair@$$CBVshared_str@@U_FILE_ACCESS_STAT@@@std@@@std@@@std@@@2@@Z 0093b0e0 f i stdafx.obj
 0001:0003a3b0       ?_Erase@?$_Tree@V?$_Tmap_traits@Vshared_str@@U_FILE_ACCESS_STAT@@U?$less@Vshared_str@@@std@@V?$xalloc@U?$pair@Vshared_str@@U_FILE_ACCESS_STAT@@@std@@@@$0A@@std@@@std@@IAEXPAU?$_Tree_node@U?$pair@$$CBVshared_str@@U_FILE_ACCESS_STAT@@@std@@PAX@2@@Z 0093b3b0 f i stdafx.obj
 0001:0003a440       ?_Lmost@?$_Tree@V?$_Tmap_traits@Vshared_str@@U_FILE_ACCESS_STAT@@U?$less@Vshared_str@@@std@@V?$xalloc@U?$pair@Vshared_str@@U_FILE_ACCESS_STAT@@@std@@@@$0A@@std@@@std@@IBEAAPAU?$_Tree_node@U?$pair@$$CBVshared_str@@U_FILE_ACCESS_STAT@@@std@@PAX@2@XZ 0093b440 f i stdafx.obj
 0001:0003a450       ?_Rmost@?$_Tree@V?$_Tmap_traits@Vshared_str@@U_FILE_ACCESS_STAT@@U?$less@Vshared_str@@@std@@V?$xalloc@U?$pair@Vshared_str@@U_FILE_ACCESS_STAT@@@std@@@@$0A@@std@@@std@@IBEAAPAU?$_Tree_node@U?$pair@$$CBVshared_str@@U_FILE_ACCESS_STAT@@@std@@PAX@2@XZ 0093b450 f i stdafx.obj
 0001:0003a460       ?_Root@?$_Tree@V?$_Tmap_traits@Vshared_str@@U_FILE_ACCESS_STAT@@U?$less@Vshared_str@@@std@@V?$xalloc@U?$pair@Vshared_str@@U_FILE_ACCESS_STAT@@@std@@@@$0A@@std@@@std@@IBEAAPAU?$_Tree_node@U?$pair@$$CBVshared_str@@U_FILE_ACCESS_STAT@@@std@@PAX@2@XZ 0093b460 f i stdafx.obj
 0001:0003a470       ??0?$_Tree_buy@U?$pair@$$CBVshared_str@@U_FILE_ACCESS_STAT@@@std@@V?$xalloc@U?$pair@Vshared_str@@U_FILE_ACCESS_STAT@@@std@@@@@std@@QAE@ABV?$xalloc@U?$pair@Vshared_str@@U_FILE_ACCESS_STAT@@@std@@@@@Z 0093b470 f i stdafx.obj
 0001:0003a4c0       ?deallocate@?$_Wrap_alloc@V?$xalloc@U?$_Tree_node@U?$pair@$$CBVshared_str@@U_FILE_ACCESS_STAT@@@std@@PAX@std@@@@@std@@QAEXPAU?$_Tree_node@U?$pair@$$CBVshared_str@@U_FILE_ACCESS_STAT@@@std@@PAX@2@I@Z 0093b4c0 f i stdafx.obj
 0001:0003a4e0       ??0?$xalloc@U?$_Tree_node@U?$pair@$$CBVshared_str@@U_FILE_ACCESS_STAT@@@std@@PAX@std@@@@QAE@XZ 0093b4e0 f i stdafx.obj
 0001:0003a4f0       ??0?$xalloc@U?$_Tree_node@U?$pair@$$CBVshared_str@@U_FILE_ACCESS_STAT@@@std@@PAX@std@@@@QAE@ABV0@@Z 0093b4f0 f i stdafx.obj
 0001:0003a500       ?_Left@?$_Tree_val@U?$_Tree_simple_types@U?$pair@$$CBVshared_str@@U_FILE_ACCESS_STAT@@@std@@@std@@@std@@SAAAPAU?$_Tree_node@U?$pair@$$CBVshared_str@@U_FILE_ACCESS_STAT@@@std@@PAX@2@PAU32@@Z 0093b500 f i stdafx.obj
 0001:0003a510       ?_Parent@?$_Tree_val@U?$_Tree_simple_types@U?$pair@$$CBVshared_str@@U_FILE_ACCESS_STAT@@@std@@@std@@@std@@SAAAPAU?$_Tree_node@U?$pair@$$CBVshared_str@@U_FILE_ACCESS_STAT@@@std@@PAX@2@PAU32@@Z 0093b510 f i stdafx.obj
 0001:0003a520       ?_Right@?$_Tree_val@U?$_Tree_simple_types@U?$pair@$$CBVshared_str@@U_FILE_ACCESS_STAT@@@std@@@std@@@std@@SAAAPAU?$_Tree_node@U?$pair@$$CBVshared_str@@U_FILE_ACCESS_STAT@@@std@@PAX@2@PAU32@@Z 0093b520 f i stdafx.obj
 0001:0003a530       ?erase@?$_Tree@V?$_Tmap_traits@Vshared_str@@V?$xr_vector@PAVIReader@@V?$xalloc@PAVIReader@@@@@@U?$less@Vshared_str@@@std@@V?$xalloc@U?$pair@Vshared_str@@V?$xr_vector@PAVIReader@@V?$xalloc@PAVIReader@@@@@@@std@@@@$0A@@std@@@std@@QAE?AV?$_Tree_iterator@V?$_Tree_val@U?$_Tree_simple_types@U?$pair@$$CBVshared_str@@V?$xr_vector@PAVIReader@@V?$xalloc@PAVIReader@@@@@@@std@@@std@@@std@@@2@V?$_Tree_const_iterator@V?$_Tree_val@U?$_Tree_simple_types@U?$pair@$$CBVshared_str@@V?$xr_vector@PAVIReader@@V?$xalloc@PAVIReader@@@@@@@std@@@std@@@std@@@2@@Z 0093b530 f i stdafx.obj
 0001:0003a830       ?_Erase@?$_Tree@V?$_Tmap_traits@Vshared_str@@V?$xr_vector@PAVIReader@@V?$xalloc@PAVIReader@@@@@@U?$less@Vshared_str@@@std@@V?$xalloc@U?$pair@Vshared_str@@V?$xr_vector@PAVIReader@@V?$xalloc@PAVIReader@@@@@@@std@@@@$0A@@std@@@std@@IAEXPAU?$_Tree_node@U?$pair@$$CBVshared_str@@V?$xr_vector@PAVIReader@@V?$xalloc@PAVIReader@@@@@@@std@@PAX@2@@Z 0093b830 f i stdafx.obj
 0001:0003a910       ?_Lmost@?$_Tree@V?$_Tmap_traits@Vshared_str@@V?$xr_vector@PAVIReader@@V?$xalloc@PAVIReader@@@@@@U?$less@Vshared_str@@@std@@V?$xalloc@U?$pair@Vshared_str@@V?$xr_vector@PAVIReader@@V?$xalloc@PAVIReader@@@@@@@std@@@@$0A@@std@@@std@@IBEAAPAU?$_Tree_node@U?$pair@$$CBVshared_str@@V?$xr_vector@PAVIReader@@V?$xalloc@PAVIReader@@@@@@@std@@PAX@2@XZ 0093b910 f i stdafx.obj
 0001:0003a920       ?_Rmost@?$_Tree@V?$_Tmap_traits@Vshared_str@@V?$xr_vector@PAVIReader@@V?$xalloc@PAVIReader@@@@@@U?$less@Vshared_str@@@std@@V?$xalloc@U?$pair@Vshared_str@@V?$xr_vector@PAVIReader@@V?$xalloc@PAVIReader@@@@@@@std@@@@$0A@@std@@@std@@IBEAAPAU?$_Tree_node@U?$pair@$$CBVshared_str@@V?$xr_vector@PAVIReader@@V?$xalloc@PAVIReader@@@@@@@std@@PAX@2@XZ 0093b920 f i stdafx.obj
 0001:0003a930       ?_Root@?$_Tree@V?$_Tmap_traits@Vshared_str@@V?$xr_vector@PAVIReader@@V?$xalloc@PAVIReader@@@@@@U?$less@Vshared_str@@@std@@V?$xalloc@U?$pair@Vshared_str@@V?$xr_vector@PAVIReader@@V?$xalloc@PAVIReader@@@@@@@std@@@@$0A@@std@@@std@@IBEAAPAU?$_Tree_node@U?$pair@$$CBVshared_str@@V?$xr_vector@PAVIReader@@V?$xalloc@PAVIReader@@@@@@@std@@PAX@2@XZ 0093b930 f i stdafx.obj
 0001:0003a940       ??0?$_Tree_buy@U?$pair@$$CBVshared_str@@V?$xr_vector@PAVIReader@@V?$xalloc@PAVIReader@@@@@@@std@@V?$xalloc@U?$pair@Vshared_str@@V?$xr_vector@PAVIReader@@V?$xalloc@PAVIReader@@@@@@@std@@@@@std@@QAE@ABV?$xalloc@U?$pair@Vshared_str@@V?$xr_vector@PAVIReader@@V?$xalloc@PAVIReader@@@@@@@std@@@@@Z 0093b940 f i stdafx.obj
 0001:0003a990       ?deallocate@?$_Wrap_alloc@V?$xalloc@U?$_Tree_node@U?$pair@$$CBVshared_str@@V?$xr_vector@PAVIReader@@V?$xalloc@PAVIReader@@@@@@@std@@PAX@std@@@@@std@@QAEXPAU?$_Tree_node@U?$pair@$$CBVshared_str@@V?$xr_vector@PAVIReader@@V?$xalloc@PAVIReader@@@@@@@std@@PAX@2@I@Z 0093b990 f i stdafx.obj
 0001:0003a9b0       ??0?$xalloc@U?$_Tree_node@U?$pair@$$CBVshared_str@@V?$xr_vector@PAVIReader@@V?$xalloc@PAVIReader@@@@@@@std@@PAX@std@@@@QAE@XZ 0093b9b0 f i stdafx.obj
 0001:0003a9c0       ??0?$xalloc@U?$_Tree_node@U?$pair@$$CBVshared_str@@V?$xr_vector@PAVIReader@@V?$xalloc@PAVIReader@@@@@@@std@@PAX@std@@@@QAE@ABV0@@Z 0093b9c0 f i stdafx.obj
 0001:0003a9d0       ?_Left@?$_Tree_val@U?$_Tree_simple_types@U?$pair@$$CBVshared_str@@V?$xr_vector@PAVIReader@@V?$xalloc@PAVIReader@@@@@@@std@@@std@@@std@@SAAAPAU?$_Tree_node@U?$pair@$$CBVshared_str@@V?$xr_vector@PAVIReader@@V?$xalloc@PAVIReader@@@@@@@std@@PAX@2@PAU32@@Z 0093b9d0 f i stdafx.obj
 0001:0003a9e0       ?_Parent@?$_Tree_val@U?$_Tree_simple_types@U?$pair@$$CBVshared_str@@V?$xr_vector@PAVIReader@@V?$xalloc@PAVIReader@@@@@@@std@@@std@@@std@@SAAAPAU?$_Tree_node@U?$pair@$$CBVshared_str@@V?$xr_vector@PAVIReader@@V?$xalloc@PAVIReader@@@@@@@std@@PAX@2@PAU32@@Z 0093b9e0 f i stdafx.obj
 0001:0003a9f0       ?_Right@?$_Tree_val@U?$_Tree_simple_types@U?$pair@$$CBVshared_str@@V?$xr_vector@PAVIReader@@V?$xalloc@PAVIReader@@@@@@@std@@@std@@@std@@SAAAPAU?$_Tree_node@U?$pair@$$CBVshared_str@@V?$xr_vector@PAVIReader@@V?$xalloc@PAVIReader@@@@@@@std@@PAX@2@PAU32@@Z 0093b9f0 f i stdafx.obj
 0001:0003aa00       ?erase@?$_Tree@V?$_Tmap_traits@V?$basic_string@DU?$char_traits@D@std@@V?$xalloc@D@@@std@@PAXU?$less@V?$basic_string@DU?$char_traits@D@std@@V?$xalloc@D@@@std@@@2@V?$xalloc@U?$pair@V?$basic_string@DU?$char_traits@D@std@@V?$xalloc@D@@@std@@PAX@std@@@@$0A@@std@@@std@@QAE?AV?$_Tree_iterator@V?$_Tree_val@U?$_Tree_simple_types@U?$pair@$$CBV?$basic_string@DU?$char_traits@D@std@@V?$xalloc@D@@@std@@PAX@std@@@std@@@std@@@2@V?$_Tree_const_iterator@V?$_Tree_val@U?$_Tree_simple_types@U?$pair@$$CBV?$basic_string@DU?$char_traits@D@std@@V?$xalloc@D@@@std@@PAX@std@@@std@@@std@@@2@@Z 0093ba00 f i stdafx.obj
 0001:0003ace0       ?_Erase@?$_Tree@V?$_Tmap_traits@V?$basic_string@DU?$char_traits@D@std@@V?$xalloc@D@@@std@@PAXU?$less@V?$basic_string@DU?$char_traits@D@std@@V?$xalloc@D@@@std@@@2@V?$xalloc@U?$pair@V?$basic_string@DU?$char_traits@D@std@@V?$xalloc@D@@@std@@PAX@std@@@@$0A@@std@@@std@@IAEXPAU?$_Tree_node@U?$pair@$$CBV?$basic_string@DU?$char_traits@D@std@@V?$xalloc@D@@@std@@PAX@std@@PAX@2@@Z 0093bce0 f i stdafx.obj
 0001:0003ad90       ?_Lmost@?$_Tree@V?$_Tmap_traits@V?$basic_string@DU?$char_traits@D@std@@V?$xalloc@D@@@std@@PAXU?$less@V?$basic_string@DU?$char_traits@D@std@@V?$xalloc@D@@@std@@@2@V?$xalloc@U?$pair@V?$basic_string@DU?$char_traits@D@std@@V?$xalloc@D@@@std@@PAX@std@@@@$0A@@std@@@std@@IBEAAPAU?$_Tree_node@U?$pair@$$CBV?$basic_string@DU?$char_traits@D@std@@V?$xalloc@D@@@std@@PAX@std@@PAX@2@XZ 0093bd90 f i stdafx.obj
 0001:0003ada0       ?_Rmost@?$_Tree@V?$_Tmap_traits@V?$basic_string@DU?$char_traits@D@std@@V?$xalloc@D@@@std@@PAXU?$less@V?$basic_string@DU?$char_traits@D@std@@V?$xalloc@D@@@std@@@2@V?$xalloc@U?$pair@V?$basic_string@DU?$char_traits@D@std@@V?$xalloc@D@@@std@@PAX@std@@@@$0A@@std@@@std@@IBEAAPAU?$_Tree_node@U?$pair@$$CBV?$basic_string@DU?$char_traits@D@std@@V?$xalloc@D@@@std@@PAX@std@@PAX@2@XZ 0093bda0 f i stdafx.obj
 0001:0003adb0       ?_Root@?$_Tree@V?$_Tmap_traits@V?$basic_string@DU?$char_traits@D@std@@V?$xalloc@D@@@std@@PAXU?$less@V?$basic_string@DU?$char_traits@D@std@@V?$xalloc@D@@@std@@@2@V?$xalloc@U?$pair@V?$basic_string@DU?$char_traits@D@std@@V?$xalloc@D@@@std@@PAX@std@@@@$0A@@std@@@std@@IBEAAPAU?$_Tree_node@U?$pair@$$CBV?$basic_string@DU?$char_traits@D@std@@V?$xalloc@D@@@std@@PAX@std@@PAX@2@XZ 0093bdb0 f i stdafx.obj
 0001:0003adc0       ??0?$_Tree_buy@U?$pair@$$CBV?$basic_string@DU?$char_traits@D@std@@V?$xalloc@D@@@std@@PAX@std@@V?$xalloc@U?$pair@V?$basic_string@DU?$char_traits@D@std@@V?$xalloc@D@@@std@@PAX@std@@@@@std@@QAE@ABV?$xalloc@U?$pair@V?$basic_string@DU?$char_traits@D@std@@V?$xalloc@D@@@std@@PAX@std@@@@@Z 0093bdc0 f i stdafx.obj
 0001:0003ae10       ?deallocate@?$_Wrap_alloc@V?$xalloc@U?$_Tree_node@U?$pair@$$CBV?$basic_string@DU?$char_traits@D@std@@V?$xalloc@D@@@std@@PAX@std@@PAX@std@@@@@std@@QAEXPAU?$_Tree_node@U?$pair@$$CBV?$basic_string@DU?$char_traits@D@std@@V?$xalloc@D@@@std@@PAX@std@@PAX@2@I@Z 0093be10 f i stdafx.obj
 0001:0003ae30       ??0?$xalloc@U?$_Tree_node@U?$pair@$$CBV?$basic_string@DU?$char_traits@D@std@@V?$xalloc@D@@@std@@PAX@std@@PAX@std@@@@QAE@XZ 0093be30 f i stdafx.obj
 0001:0003ae40       ??0?$xalloc@U?$_Tree_node@U?$pair@$$CBV?$basic_string@DU?$char_traits@D@std@@V?$xalloc@D@@@std@@PAX@std@@PAX@std@@@@QAE@ABV0@@Z 0093be40 f i stdafx.obj
 0001:0003ae50       ?_Left@?$_Tree_val@U?$_Tree_simple_types@U?$pair@$$CBV?$basic_string@DU?$char_traits@D@std@@V?$xalloc@D@@@std@@PAX@std@@@std@@@std@@SAAAPAU?$_Tree_node@U?$pair@$$CBV?$basic_string@DU?$char_traits@D@std@@V?$xalloc@D@@@std@@PAX@std@@PAX@2@PAU32@@Z 0093be50 f i stdafx.obj
 0001:0003ae60       ?_Parent@?$_Tree_val@U?$_Tree_simple_types@U?$pair@$$CBV?$basic_string@DU?$char_traits@D@std@@V?$xalloc@D@@@std@@PAX@std@@@std@@@std@@SAAAPAU?$_Tree_node@U?$pair@$$CBV?$basic_string@DU?$char_traits@D@std@@V?$xalloc@D@@@std@@PAX@std@@PAX@2@PAU32@@Z 0093be60 f i stdafx.obj
 0001:0003ae70       ?_Right@?$_Tree_val@U?$_Tree_simple_types@U?$pair@$$CBV?$basic_string@DU?$char_traits@D@std@@V?$xalloc@D@@@std@@PAX@std@@@std@@@std@@SAAAPAU?$_Tree_node@U?$pair@$$CBV?$basic_string@DU?$char_traits@D@std@@V?$xalloc@D@@@std@@PAX@std@@PAX@2@PAU32@@Z 0093be70 f i stdafx.obj
 0001:0003ae80       ??0?$xalloc@PAVCTimer_paused@@@@QAE@ABV0@@Z 0093be80 f i stdafx.obj
 0001:0003ae90       ??0?$_Tree_const_iterator@V?$_Tree_val@U?$_Tree_simple_types@PAUstr_value@@@std@@@std@@@std@@QAE@PAU?$_Tree_node@PAUstr_value@@PAX@1@PBV?$_Tree_val@U?$_Tree_simple_types@PAUstr_value@@@std@@@1@@Z 0093be90 f i stdafx.obj
 0001:0003aea0       ??E?$_Tree_const_iterator@V?$_Tree_val@U?$_Tree_simple_types@PAUstr_value@@@std@@@std@@@std@@QAE?AV01@H@Z 0093bea0 f i stdafx.obj
 0001:0003aec0       ??8?$_Tree_const_iterator@V?$_Tree_val@U?$_Tree_simple_types@PAUstr_value@@@std@@@std@@@std@@QBE_NABV01@@Z 0093bec0 f i stdafx.obj
 0001:0003aed0       ??9?$_Tree_const_iterator@V?$_Tree_val@U?$_Tree_simple_types@PAUstr_value@@@std@@@std@@@std@@QBE_NABV01@@Z 0093bed0 f i stdafx.obj
 0001:0003aee0       ??0?$_Tree_iterator@V?$_Tree_val@U?$_Tree_simple_types@U?$pair@$$CBVshared_str@@PAUSect@CInifile@@@std@@@std@@@std@@@std@@QAE@PAU?$_Tree_node@U?$pair@$$CBVshared_str@@PAUSect@CInifile@@@std@@PAX@1@PBV?$_Tree_val@U?$_Tree_simple_types@U?$pair@$$CBVshared_str@@PAUSect@CInifile@@@std@@@std@@@1@@Z 0093bee0 f i stdafx.obj
 0001:0003aef0       ??E?$_Tree_const_iterator@V?$_Tree_val@U?$_Tree_simple_types@U?$pair@$$CBVshared_str@@PAUSect@CInifile@@@std@@@std@@@std@@@std@@QAE?AV01@H@Z 0093bef0 f i stdafx.obj
 0001:0003af10       ??8?$_Tree_const_iterator@V?$_Tree_val@U?$_Tree_simple_types@U?$pair@$$CBVshared_str@@PAUSect@CInifile@@@std@@@std@@@std@@@std@@QBE_NABV01@@Z 0093bf10 f i stdafx.obj
 0001:0003af20       ??9?$_Tree_const_iterator@V?$_Tree_val@U?$_Tree_simple_types@U?$pair@$$CBVshared_str@@PAUSect@CInifile@@@std@@@std@@@std@@@std@@QBE_NABV01@@Z 0093bf20 f i stdafx.obj
 0001:0003af30       ??0?$_Tree_iterator@V?$_Tree_val@U?$_Tree_simple_types@U?$pair@$$CBVshared_str@@V1@@std@@@std@@@std@@@std@@QAE@PAU?$_Tree_node@U?$pair@$$CBVshared_str@@V1@@std@@PAX@1@PBV?$_Tree_val@U?$_Tree_simple_types@U?$pair@$$CBVshared_str@@V1@@std@@@std@@@1@@Z 0093bf30 f i stdafx.obj
 0001:0003af40       ??E?$_Tree_const_iterator@V?$_Tree_val@U?$_Tree_simple_types@U?$pair@$$CBVshared_str@@V1@@std@@@std@@@std@@@std@@QAE?AV01@H@Z 0093bf40 f i stdafx.obj
 0001:0003af60       ??8?$_Tree_const_iterator@V?$_Tree_val@U?$_Tree_simple_types@U?$pair@$$CBVshared_str@@V1@@std@@@std@@@std@@@std@@QBE_NABV01@@Z 0093bf60 f i stdafx.obj
 0001:0003af70       ??9?$_Tree_const_iterator@V?$_Tree_val@U?$_Tree_simple_types@U?$pair@$$CBVshared_str@@V1@@std@@@std@@@std@@@std@@QBE_NABV01@@Z 0093bf70 f i stdafx.obj
 0001:0003af80       ??0?$_Tree_iterator@V?$_Tree_val@U?$_Tree_simple_types@U?$pair@QBDPAVFS_Path@@@std@@@std@@@std@@@std@@QAE@PAU?$_Tree_node@U?$pair@QBDPAVFS_Path@@@std@@PAX@1@PBV?$_Tree_val@U?$_Tree_simple_types@U?$pair@QBDPAVFS_Path@@@std@@@std@@@1@@Z 0093bf80 f i stdafx.obj
 0001:0003af90       ??E?$_Tree_const_iterator@V?$_Tree_val@U?$_Tree_simple_types@U?$pair@QBDPAVFS_Path@@@std@@@std@@@std@@@std@@QAE?AV01@H@Z 0093bf90 f i stdafx.obj
 0001:0003afb0       ??8?$_Tree_const_iterator@V?$_Tree_val@U?$_Tree_simple_types@U?$pair@QBDPAVFS_Path@@@std@@@std@@@std@@@std@@QBE_NABV01@@Z 0093bfb0 f i stdafx.obj
 0001:0003afc0       ??9?$_Tree_const_iterator@V?$_Tree_val@U?$_Tree_simple_types@U?$pair@QBDPAVFS_Path@@@std@@@std@@@std@@@std@@QBE_NABV01@@Z 0093bfc0 f i stdafx.obj
 0001:0003afd0       ??0?$_Tree_const_iterator@V?$_Tree_val@U?$_Tree_simple_types@Ufile@CLocatorAPI@@@std@@@std@@@std@@QAE@PAU?$_Tree_node@Ufile@CLocatorAPI@@PAX@1@PBV?$_Tree_val@U?$_Tree_simple_types@Ufile@CLocatorAPI@@@std@@@1@@Z 0093bfd0 f i stdafx.obj
 0001:0003afe0       ??E?$_Tree_const_iterator@V?$_Tree_val@U?$_Tree_simple_types@Ufile@CLocatorAPI@@@std@@@std@@@std@@QAE?AV01@H@Z 0093bfe0 f i stdafx.obj
 0001:0003b000       ??8?$_Tree_const_iterator@V?$_Tree_val@U?$_Tree_simple_types@Ufile@CLocatorAPI@@@std@@@std@@@std@@QBE_NABV01@@Z 0093c000 f i stdafx.obj
 0001:0003b010       ??9?$_Tree_const_iterator@V?$_Tree_val@U?$_Tree_simple_types@Ufile@CLocatorAPI@@@std@@@std@@@std@@QBE_NABV01@@Z 0093c010 f i stdafx.obj
 0001:0003b020       ??0?$_Tree_iterator@V?$_Tree_val@U?$_Tree_simple_types@U?$pair@$$CBVshared_str@@U_FILE_ACCESS_STAT@@@std@@@std@@@std@@@std@@QAE@PAU?$_Tree_node@U?$pair@$$CBVshared_str@@U_FILE_ACCESS_STAT@@@std@@PAX@1@PBV?$_Tree_val@U?$_Tree_simple_types@U?$pair@$$CBVshared_str@@U_FILE_ACCESS_STAT@@@std@@@std@@@1@@Z 0093c020 f i stdafx.obj
 0001:0003b030       ??E?$_Tree_const_iterator@V?$_Tree_val@U?$_Tree_simple_types@U?$pair@$$CBVshared_str@@U_FILE_ACCESS_STAT@@@std@@@std@@@std@@@std@@QAE?AV01@H@Z 0093c030 f i stdafx.obj
 0001:0003b050       ??8?$_Tree_const_iterator@V?$_Tree_val@U?$_Tree_simple_types@U?$pair@$$CBVshared_str@@U_FILE_ACCESS_STAT@@@std@@@std@@@std@@@std@@QBE_NABV01@@Z 0093c050 f i stdafx.obj
 0001:0003b060       ??9?$_Tree_const_iterator@V?$_Tree_val@U?$_Tree_simple_types@U?$pair@$$CBVshared_str@@U_FILE_ACCESS_STAT@@@std@@@std@@@std@@@std@@QBE_NABV01@@Z 0093c060 f i stdafx.obj
 0001:0003b070       ??0?$_Tree_iterator@V?$_Tree_val@U?$_Tree_simple_types@U?$pair@$$CBVshared_str@@V?$xr_vector@PAVIReader@@V?$xalloc@PAVIReader@@@@@@@std@@@std@@@std@@@std@@QAE@PAU?$_Tree_node@U?$pair@$$CBVshared_str@@V?$xr_vector@PAVIReader@@V?$xalloc@PAVIReader@@@@@@@std@@PAX@1@PBV?$_Tree_val@U?$_Tree_simple_types@U?$pair@$$CBVshared_str@@V?$xr_vector@PAVIReader@@V?$xalloc@PAVIReader@@@@@@@std@@@std@@@1@@Z 0093c070 f i stdafx.obj
 0001:0003b080       ??E?$_Tree_const_iterator@V?$_Tree_val@U?$_Tree_simple_types@U?$pair@$$CBVshared_str@@V?$xr_vector@PAVIReader@@V?$xalloc@PAVIReader@@@@@@@std@@@std@@@std@@@std@@QAE?AV01@H@Z 0093c080 f i stdafx.obj
 0001:0003b0a0       ??8?$_Tree_const_iterator@V?$_Tree_val@U?$_Tree_simple_types@U?$pair@$$CBVshared_str@@V?$xr_vector@PAVIReader@@V?$xalloc@PAVIReader@@@@@@@std@@@std@@@std@@@std@@QBE_NABV01@@Z 0093c0a0 f i stdafx.obj
 0001:0003b0b0       ??9?$_Tree_const_iterator@V?$_Tree_val@U?$_Tree_simple_types@U?$pair@$$CBVshared_str@@V?$xr_vector@PAVIReader@@V?$xalloc@PAVIReader@@@@@@@std@@@std@@@std@@@std@@QBE_NABV01@@Z 0093c0b0 f i stdafx.obj
 0001:0003b0c0       ??0?$_Tree_iterator@V?$_Tree_val@U?$_Tree_simple_types@U?$pair@$$CBV?$basic_string@DU?$char_traits@D@std@@V?$xalloc@D@@@std@@PAX@std@@@std@@@std@@@std@@QAE@PAU?$_Tree_node@U?$pair@$$CBV?$basic_string@DU?$char_traits@D@std@@V?$xalloc@D@@@std@@PAX@std@@PAX@1@PBV?$_Tree_val@U?$_Tree_simple_types@U?$pair@$$CBV?$basic_string@DU?$char_traits@D@std@@V?$xalloc@D@@@std@@PAX@std@@@std@@@1@@Z 0093c0c0 f i stdafx.obj
 0001:0003b0d0       ??E?$_Tree_const_iterator@V?$_Tree_val@U?$_Tree_simple_types@U?$pair@$$CBV?$basic_string@DU?$char_traits@D@std@@V?$xalloc@D@@@std@@PAX@std@@@std@@@std@@@std@@QAE?AV01@H@Z 0093c0d0 f i stdafx.obj
 0001:0003b0f0       ??8?$_Tree_const_iterator@V?$_Tree_val@U?$_Tree_simple_types@U?$pair@$$CBV?$basic_string@DU?$char_traits@D@std@@V?$xalloc@D@@@std@@PAX@std@@@std@@@std@@@std@@QBE_NABV01@@Z 0093c0f0 f i stdafx.obj
 0001:0003b100       ??9?$_Tree_const_iterator@V?$_Tree_val@U?$_Tree_simple_types@U?$pair@$$CBV?$basic_string@DU?$char_traits@D@std@@V?$xalloc@D@@@std@@PAX@std@@@std@@@std@@@std@@QBE_NABV01@@Z 0093c100 f i stdafx.obj
 0001:0003b110       ?allocate@?$_Wrap_alloc@V?$allocator@D@std@@@std@@QAEPADI@Z 0093c110 f i stdafx.obj
 0001:0003b140       ?max_size@?$_Wrap_alloc@V?$allocator@D@std@@@std@@QBEIXZ 0093c140 f i stdafx.obj
 0001:0003b150       ?max_size@?$allocator_traits@V?$xalloc@I@@@std@@SAIABV?$xalloc@I@@@Z 0093c150 f i stdafx.obj
 0001:0003b160       ?max_size@?$allocator_traits@V?$xalloc@PAUsmem_value@@@@@std@@SAIABV?$xalloc@PAUsmem_value@@@@@Z 0093c160 f i stdafx.obj
 0001:0003b170       ?_Lrotate@?$_Tree@V?$_Tset_traits@PAUstr_value@@Ustr_value_cmp@@V?$xalloc@PAUstr_value@@@@$00@std@@@std@@IAEXPAU?$_Tree_node@PAUstr_value@@PAX@2@@Z 0093c170 f i stdafx.obj
 0001:0003b1c0       ?_Rrotate@?$_Tree@V?$_Tset_traits@PAUstr_value@@Ustr_value_cmp@@V?$xalloc@PAUstr_value@@@@$00@std@@@std@@IAEXPAU?$_Tree_node@PAUstr_value@@PAX@2@@Z 0093c1c0 f i stdafx.obj
 0001:0003b220       ??0?$_Tree_alloc@$0A@U?$_Tree_base_types@PAUstr_value@@V?$xalloc@PAUstr_value@@@@@std@@@std@@QAE@ABV?$xalloc@PAUstr_value@@@@@Z 0093c220 f i stdafx.obj
 0001:0003b240       ?deallocate@?$xalloc@U?$_Tree_node@PAUstr_value@@PAX@std@@@@QBEXPAU?$_Tree_node@PAUstr_value@@PAX@std@@I@Z 0093c240 f i stdafx.obj
 0001:0003b260       ?_Color@?$_Tree_val@U?$_Tree_simple_types@PAUstr_value@@@std@@@std@@SAAADPAU?$_Tree_node@PAUstr_value@@PAX@2@@Z 0093c260 f i stdafx.obj
 0001:0003b270       ?_Isnil@?$_Tree_val@U?$_Tree_simple_types@PAUstr_value@@@std@@@std@@SAAADPAU?$_Tree_node@PAUstr_value@@PAX@2@@Z 0093c270 f i stdafx.obj
 0001:0003b280       ?_Myval@?$_Tree_val@U?$_Tree_simple_types@PAUstr_value@@@std@@@std@@SAAAPAUstr_value@@PAU?$_Tree_node@PAUstr_value@@PAX@2@@Z 0093c280 f i stdafx.obj
 0001:0003b290       ?_Max@?$_Tree_val@U?$_Tree_simple_types@PAUstr_value@@@std@@@std@@SAPAU?$_Tree_node@PAUstr_value@@PAX@2@PAU32@@Z 0093c290 f i stdafx.obj
 0001:0003b2b0       ?_Min@?$_Tree_val@U?$_Tree_simple_types@PAUstr_value@@@std@@@std@@SAPAU?$_Tree_node@PAUstr_value@@PAX@2@PAU32@@Z 0093c2b0 f i stdafx.obj
 0001:0003b2d0       ?allocate@?$_Wrap_alloc@V?$xalloc@D@@@std@@QAEPADI@Z 0093c2d0 f i stdafx.obj
 0001:0003b2e0       ?max_size@?$_Wrap_alloc@V?$xalloc@D@@@std@@QBEIXZ 0093c2e0 f i stdafx.obj
 0001:0003b2f0       ?max_size@?$allocator_traits@V?$xalloc@UItem@CInifile@@@@@std@@SAIABV?$xalloc@UItem@CInifile@@@@@Z 0093c2f0 f i stdafx.obj
 0001:0003b300       ?_Lrotate@?$_Tree@V?$_Tmap_traits@Vshared_str@@PAUSect@CInifile@@U?$less@Vshared_str@@@std@@V?$xalloc@U?$pair@Vshared_str@@PAUSect@CInifile@@@std@@@@$0A@@std@@@std@@IAEXPAU?$_Tree_node@U?$pair@$$CBVshared_str@@PAUSect@CInifile@@@std@@PAX@2@@Z 0093c300 f i stdafx.obj
 0001:0003b350       ?_Rrotate@?$_Tree@V?$_Tmap_traits@Vshared_str@@PAUSect@CInifile@@U?$less@Vshared_str@@@std@@V?$xalloc@U?$pair@Vshared_str@@PAUSect@CInifile@@@std@@@@$0A@@std@@@std@@IAEXPAU?$_Tree_node@U?$pair@$$CBVshared_str@@PAUSect@CInifile@@@std@@PAX@2@@Z 0093c350 f i stdafx.obj
 0001:0003b3b0       ??0?$_Tree_alloc@$0A@U?$_Tree_base_types@U?$pair@$$CBVshared_str@@PAUSect@CInifile@@@std@@V?$xalloc@U?$pair@Vshared_str@@PAUSect@CInifile@@@std@@@@@std@@@std@@QAE@ABV?$xalloc@U?$pair@Vshared_str@@PAUSect@CInifile@@@std@@@@@Z 0093c3b0 f i stdafx.obj
 0001:0003b3d0       ?deallocate@?$xalloc@U?$_Tree_node@U?$pair@$$CBVshared_str@@PAUSect@CInifile@@@std@@PAX@std@@@@QBEXPAU?$_Tree_node@U?$pair@$$CBVshared_str@@PAUSect@CInifile@@@std@@PAX@std@@I@Z 0093c3d0 f i stdafx.obj
 0001:0003b3f0       ?_Color@?$_Tree_val@U?$_Tree_simple_types@U?$pair@$$CBVshared_str@@PAUSect@CInifile@@@std@@@std@@@std@@SAAADPAU?$_Tree_node@U?$pair@$$CBVshared_str@@PAUSect@CInifile@@@std@@PAX@2@@Z 0093c3f0 f i stdafx.obj
 0001:0003b400       ?_Isnil@?$_Tree_val@U?$_Tree_simple_types@U?$pair@$$CBVshared_str@@PAUSect@CInifile@@@std@@@std@@@std@@SAAADPAU?$_Tree_node@U?$pair@$$CBVshared_str@@PAUSect@CInifile@@@std@@PAX@2@@Z 0093c400 f i stdafx.obj
 0001:0003b410       ?_Myval@?$_Tree_val@U?$_Tree_simple_types@U?$pair@$$CBVshared_str@@PAUSect@CInifile@@@std@@@std@@@std@@SAAAU?$pair@$$CBVshared_str@@PAUSect@CInifile@@@2@PAU?$_Tree_node@U?$pair@$$CBVshared_str@@PAUSect@CInifile@@@std@@PAX@2@@Z 0093c410 f i stdafx.obj
 0001:0003b420       ?_Max@?$_Tree_val@U?$_Tree_simple_types@U?$pair@$$CBVshared_str@@PAUSect@CInifile@@@std@@@std@@@std@@SAPAU?$_Tree_node@U?$pair@$$CBVshared_str@@PAUSect@CInifile@@@std@@PAX@2@PAU32@@Z 0093c420 f i stdafx.obj
 0001:0003b440       ?_Min@?$_Tree_val@U?$_Tree_simple_types@U?$pair@$$CBVshared_str@@PAUSect@CInifile@@@std@@@std@@@std@@SAPAU?$_Tree_node@U?$pair@$$CBVshared_str@@PAUSect@CInifile@@@std@@PAX@2@PAU32@@Z 0093c440 f i stdafx.obj
 0001:0003b460       ?_Lrotate@?$_Tree@V?$_Tmap_traits@Vshared_str@@V1@U?$less@Vshared_str@@@std@@V?$xalloc@U?$pair@Vshared_str@@V1@@std@@@@$0A@@std@@@std@@IAEXPAU?$_Tree_node@U?$pair@$$CBVshared_str@@V1@@std@@PAX@2@@Z 0093c460 f i stdafx.obj
 0001:0003b4b0       ?_Rrotate@?$_Tree@V?$_Tmap_traits@Vshared_str@@V1@U?$less@Vshared_str@@@std@@V?$xalloc@U?$pair@Vshared_str@@V1@@std@@@@$0A@@std@@@std@@IAEXPAU?$_Tree_node@U?$pair@$$CBVshared_str@@V1@@std@@PAX@2@@Z 0093c4b0 f i stdafx.obj
 0001:0003b510       ??0?$_Tree_alloc@$0A@U?$_Tree_base_types@U?$pair@$$CBVshared_str@@V1@@std@@V?$xalloc@U?$pair@Vshared_str@@V1@@std@@@@@std@@@std@@QAE@ABV?$xalloc@U?$pair@Vshared_str@@V1@@std@@@@@Z 0093c510 f i stdafx.obj
 0001:0003b530       ?deallocate@?$xalloc@U?$_Tree_node@U?$pair@$$CBVshared_str@@V1@@std@@PAX@std@@@@QBEXPAU?$_Tree_node@U?$pair@$$CBVshared_str@@V1@@std@@PAX@std@@I@Z 0093c530 f i stdafx.obj
 0001:0003b550       ?_Color@?$_Tree_val@U?$_Tree_simple_types@U?$pair@$$CBVshared_str@@V1@@std@@@std@@@std@@SAAADPAU?$_Tree_node@U?$pair@$$CBVshared_str@@V1@@std@@PAX@2@@Z 0093c550 f i stdafx.obj
 0001:0003b560       ?_Isnil@?$_Tree_val@U?$_Tree_simple_types@U?$pair@$$CBVshared_str@@V1@@std@@@std@@@std@@SAAADPAU?$_Tree_node@U?$pair@$$CBVshared_str@@V1@@std@@PAX@2@@Z 0093c560 f i stdafx.obj
 0001:0003b570       ?_Myval@?$_Tree_val@U?$_Tree_simple_types@U?$pair@$$CBVshared_str@@V1@@std@@@std@@@std@@SAAAU?$pair@$$CBVshared_str@@V1@@2@PAU?$_Tree_node@U?$pair@$$CBVshared_str@@V1@@std@@PAX@2@@Z 0093c570 f i stdafx.obj
 0001:0003b580       ?_Max@?$_Tree_val@U?$_Tree_simple_types@U?$pair@$$CBVshared_str@@V1@@std@@@std@@@std@@SAPAU?$_Tree_node@U?$pair@$$CBVshared_str@@V1@@std@@PAX@2@PAU32@@Z 0093c580 f i stdafx.obj
 0001:0003b5a0       ?_Min@?$_Tree_val@U?$_Tree_simple_types@U?$pair@$$CBVshared_str@@V1@@std@@@std@@@std@@SAPAU?$_Tree_node@U?$pair@$$CBVshared_str@@V1@@std@@PAX@2@PAU32@@Z 0093c5a0 f i stdafx.obj
 0001:0003b5c0       ?_Lrotate@?$_Tree@V?$_Tmap_traits@PBDPAVFS_Path@@Upred_str@@V?$xalloc@U?$pair@PBDPAVFS_Path@@@std@@@@$0A@@std@@@std@@IAEXPAU?$_Tree_node@U?$pair@QBDPAVFS_Path@@@std@@PAX@2@@Z 0093c5c0 f i stdafx.obj
 0001:0003b610       ?_Rrotate@?$_Tree@V?$_Tmap_traits@PBDPAVFS_Path@@Upred_str@@V?$xalloc@U?$pair@PBDPAVFS_Path@@@std@@@@$0A@@std@@@std@@IAEXPAU?$_Tree_node@U?$pair@QBDPAVFS_Path@@@std@@PAX@2@@Z 0093c610 f i stdafx.obj
 0001:0003b670       ??0?$_Tree_alloc@$0A@U?$_Tree_base_types@U?$pair@QBDPAVFS_Path@@@std@@V?$xalloc@U?$pair@PBDPAVFS_Path@@@std@@@@@std@@@std@@QAE@ABV?$xalloc@U?$pair@PBDPAVFS_Path@@@std@@@@@Z 0093c670 f i stdafx.obj
 0001:0003b690       ?deallocate@?$xalloc@U?$_Tree_node@U?$pair@QBDPAVFS_Path@@@std@@PAX@std@@@@QBEXPAU?$_Tree_node@U?$pair@QBDPAVFS_Path@@@std@@PAX@std@@I@Z 0093c690 f i stdafx.obj
 0001:0003b6b0       ?_Color@?$_Tree_val@U?$_Tree_simple_types@U?$pair@QBDPAVFS_Path@@@std@@@std@@@std@@SAAADPAU?$_Tree_node@U?$pair@QBDPAVFS_Path@@@std@@PAX@2@@Z 0093c6b0 f i stdafx.obj
 0001:0003b6c0       ?_Isnil@?$_Tree_val@U?$_Tree_simple_types@U?$pair@QBDPAVFS_Path@@@std@@@std@@@std@@SAAADPAU?$_Tree_node@U?$pair@QBDPAVFS_Path@@@std@@PAX@2@@Z 0093c6c0 f i stdafx.obj
 0001:0003b6d0       ?_Myval@?$_Tree_val@U?$_Tree_simple_types@U?$pair@QBDPAVFS_Path@@@std@@@std@@@std@@SAAAU?$pair@QBDPAVFS_Path@@@2@PAU?$_Tree_node@U?$pair@QBDPAVFS_Path@@@std@@PAX@2@@Z 0093c6d0 f i stdafx.obj
 0001:0003b6e0       ?_Max@?$_Tree_val@U?$_Tree_simple_types@U?$pair@QBDPAVFS_Path@@@std@@@std@@@std@@SAPAU?$_Tree_node@U?$pair@QBDPAVFS_Path@@@std@@PAX@2@PAU32@@Z 0093c6e0 f i stdafx.obj
 0001:0003b700       ?_Min@?$_Tree_val@U?$_Tree_simple_types@U?$pair@QBDPAVFS_Path@@@std@@@std@@@std@@SAPAU?$_Tree_node@U?$pair@QBDPAVFS_Path@@@std@@PAX@2@PAU32@@Z 0093c700 f i stdafx.obj
 0001:0003b720       ?_Lrotate@?$_Tree@V?$_Tset_traits@Ufile@CLocatorAPI@@Ufile_pred@2@V?$xalloc@Ufile@CLocatorAPI@@@@$0A@@std@@@std@@IAEXPAU?$_Tree_node@Ufile@CLocatorAPI@@PAX@2@@Z 0093c720 f i stdafx.obj
 0001:0003b770       ?_Rrotate@?$_Tree@V?$_Tset_traits@Ufile@CLocatorAPI@@Ufile_pred@2@V?$xalloc@Ufile@CLocatorAPI@@@@$0A@@std@@@std@@IAEXPAU?$_Tree_node@Ufile@CLocatorAPI@@PAX@2@@Z 0093c770 f i stdafx.obj
 0001:0003b7d0       ??0?$_Tree_alloc@$0A@U?$_Tree_base_types@Ufile@CLocatorAPI@@V?$xalloc@Ufile@CLocatorAPI@@@@@std@@@std@@QAE@ABV?$xalloc@Ufile@CLocatorAPI@@@@@Z 0093c7d0 f i stdafx.obj
 0001:0003b7f0       ?deallocate@?$xalloc@U?$_Tree_node@Ufile@CLocatorAPI@@PAX@std@@@@QBEXPAU?$_Tree_node@Ufile@CLocatorAPI@@PAX@std@@I@Z 0093c7f0 f i stdafx.obj
 0001:0003b810       ?_Color@?$_Tree_val@U?$_Tree_simple_types@Ufile@CLocatorAPI@@@std@@@std@@SAAADPAU?$_Tree_node@Ufile@CLocatorAPI@@PAX@2@@Z 0093c810 f i stdafx.obj
 0001:0003b820       ?_Isnil@?$_Tree_val@U?$_Tree_simple_types@Ufile@CLocatorAPI@@@std@@@std@@SAAADPAU?$_Tree_node@Ufile@CLocatorAPI@@PAX@2@@Z 0093c820 f i stdafx.obj
 0001:0003b830       ?_Myval@?$_Tree_val@U?$_Tree_simple_types@Ufile@CLocatorAPI@@@std@@@std@@SAAAUfile@CLocatorAPI@@PAU?$_Tree_node@Ufile@CLocatorAPI@@PAX@2@@Z 0093c830 f i stdafx.obj
 0001:0003b840       ?_Max@?$_Tree_val@U?$_Tree_simple_types@Ufile@CLocatorAPI@@@std@@@std@@SAPAU?$_Tree_node@Ufile@CLocatorAPI@@PAX@2@PAU32@@Z 0093c840 f i stdafx.obj
 0001:0003b860       ?_Min@?$_Tree_val@U?$_Tree_simple_types@Ufile@CLocatorAPI@@@std@@@std@@SAPAU?$_Tree_node@Ufile@CLocatorAPI@@PAX@2@PAU32@@Z 0093c860 f i stdafx.obj
 0001:0003b880       ?max_size@?$allocator_traits@V?$xalloc@Uarchive@CLocatorAPI@@@@@std@@SAIABV?$xalloc@Uarchive@CLocatorAPI@@@@@Z 0093c880 f i stdafx.obj
 0001:0003b890       ?max_size@?$allocator_traits@V?$xalloc@U_finddata64i32_t@@@@@std@@SAIABV?$xalloc@U_finddata64i32_t@@@@@Z 0093c890 f i stdafx.obj
 0001:0003b8a0       ?_Lrotate@?$_Tree@V?$_Tmap_traits@Vshared_str@@U_FILE_ACCESS_STAT@@U?$less@Vshared_str@@@std@@V?$xalloc@U?$pair@Vshared_str@@U_FILE_ACCESS_STAT@@@std@@@@$0A@@std@@@std@@IAEXPAU?$_Tree_node@U?$pair@$$CBVshared_str@@U_FILE_ACCESS_STAT@@@std@@PAX@2@@Z 0093c8a0 f i stdafx.obj
 0001:0003b8f0       ?_Rrotate@?$_Tree@V?$_Tmap_traits@Vshared_str@@U_FILE_ACCESS_STAT@@U?$less@Vshared_str@@@std@@V?$xalloc@U?$pair@Vshared_str@@U_FILE_ACCESS_STAT@@@std@@@@$0A@@std@@@std@@IAEXPAU?$_Tree_node@U?$pair@$$CBVshared_str@@U_FILE_ACCESS_STAT@@@std@@PAX@2@@Z 0093c8f0 f i stdafx.obj
 0001:0003b950       ??0?$_Tree_alloc@$0A@U?$_Tree_base_types@U?$pair@$$CBVshared_str@@U_FILE_ACCESS_STAT@@@std@@V?$xalloc@U?$pair@Vshared_str@@U_FILE_ACCESS_STAT@@@std@@@@@std@@@std@@QAE@ABV?$xalloc@U?$pair@Vshared_str@@U_FILE_ACCESS_STAT@@@std@@@@@Z 0093c950 f i stdafx.obj
 0001:0003b970       ?deallocate@?$xalloc@U?$_Tree_node@U?$pair@$$CBVshared_str@@U_FILE_ACCESS_STAT@@@std@@PAX@std@@@@QBEXPAU?$_Tree_node@U?$pair@$$CBVshared_str@@U_FILE_ACCESS_STAT@@@std@@PAX@std@@I@Z 0093c970 f i stdafx.obj
 0001:0003b990       ?_Color@?$_Tree_val@U?$_Tree_simple_types@U?$pair@$$CBVshared_str@@U_FILE_ACCESS_STAT@@@std@@@std@@@std@@SAAADPAU?$_Tree_node@U?$pair@$$CBVshared_str@@U_FILE_ACCESS_STAT@@@std@@PAX@2@@Z 0093c990 f i stdafx.obj
 0001:0003b9a0       ?_Isnil@?$_Tree_val@U?$_Tree_simple_types@U?$pair@$$CBVshared_str@@U_FILE_ACCESS_STAT@@@std@@@std@@@std@@SAAADPAU?$_Tree_node@U?$pair@$$CBVshared_str@@U_FILE_ACCESS_STAT@@@std@@PAX@2@@Z 0093c9a0 f i stdafx.obj
 0001:0003b9b0       ?_Myval@?$_Tree_val@U?$_Tree_simple_types@U?$pair@$$CBVshared_str@@U_FILE_ACCESS_STAT@@@std@@@std@@@std@@SAAAU?$pair@$$CBVshared_str@@U_FILE_ACCESS_STAT@@@2@PAU?$_Tree_node@U?$pair@$$CBVshared_str@@U_FILE_ACCESS_STAT@@@std@@PAX@2@@Z 0093c9b0 f i stdafx.obj
 0001:0003b9c0       ?_Max@?$_Tree_val@U?$_Tree_simple_types@U?$pair@$$CBVshared_str@@U_FILE_ACCESS_STAT@@@std@@@std@@@std@@SAPAU?$_Tree_node@U?$pair@$$CBVshared_str@@U_FILE_ACCESS_STAT@@@std@@PAX@2@PAU32@@Z 0093c9c0 f i stdafx.obj
 0001:0003b9e0       ?_Min@?$_Tree_val@U?$_Tree_simple_types@U?$pair@$$CBVshared_str@@U_FILE_ACCESS_STAT@@@std@@@std@@@std@@SAPAU?$_Tree_node@U?$pair@$$CBVshared_str@@U_FILE_ACCESS_STAT@@@std@@PAX@2@PAU32@@Z 0093c9e0 f i stdafx.obj
 0001:0003ba00       ?_Lrotate@?$_Tree@V?$_Tmap_traits@Vshared_str@@V?$xr_vector@PAVIReader@@V?$xalloc@PAVIReader@@@@@@U?$less@Vshared_str@@@std@@V?$xalloc@U?$pair@Vshared_str@@V?$xr_vector@PAVIReader@@V?$xalloc@PAVIReader@@@@@@@std@@@@$0A@@std@@@std@@IAEXPAU?$_Tree_node@U?$pair@$$CBVshared_str@@V?$xr_vector@PAVIReader@@V?$xalloc@PAVIReader@@@@@@@std@@PAX@2@@Z 0093ca00 f i stdafx.obj
 0001:0003ba50       ?_Rrotate@?$_Tree@V?$_Tmap_traits@Vshared_str@@V?$xr_vector@PAVIReader@@V?$xalloc@PAVIReader@@@@@@U?$less@Vshared_str@@@std@@V?$xalloc@U?$pair@Vshared_str@@V?$xr_vector@PAVIReader@@V?$xalloc@PAVIReader@@@@@@@std@@@@$0A@@std@@@std@@IAEXPAU?$_Tree_node@U?$pair@$$CBVshared_str@@V?$xr_vector@PAVIReader@@V?$xalloc@PAVIReader@@@@@@@std@@PAX@2@@Z 0093ca50 f i stdafx.obj
 0001:0003bab0       ??0?$_Tree_alloc@$0A@U?$_Tree_base_types@U?$pair@$$CBVshared_str@@V?$xr_vector@PAVIReader@@V?$xalloc@PAVIReader@@@@@@@std@@V?$xalloc@U?$pair@Vshared_str@@V?$xr_vector@PAVIReader@@V?$xalloc@PAVIReader@@@@@@@std@@@@@std@@@std@@QAE@ABV?$xalloc@U?$pair@Vshared_str@@V?$xr_vector@PAVIReader@@V?$xalloc@PAVIReader@@@@@@@std@@@@@Z 0093cab0 f i stdafx.obj
 0001:0003bad0       ?deallocate@?$xalloc@U?$_Tree_node@U?$pair@$$CBVshared_str@@V?$xr_vector@PAVIReader@@V?$xalloc@PAVIReader@@@@@@@std@@PAX@std@@@@QBEXPAU?$_Tree_node@U?$pair@$$CBVshared_str@@V?$xr_vector@PAVIReader@@V?$xalloc@PAVIReader@@@@@@@std@@PAX@std@@I@Z 0093cad0 f i stdafx.obj
 0001:0003baf0       ?_Color@?$_Tree_val@U?$_Tree_simple_types@U?$pair@$$CBVshared_str@@V?$xr_vector@PAVIReader@@V?$xalloc@PAVIReader@@@@@@@std@@@std@@@std@@SAAADPAU?$_Tree_node@U?$pair@$$CBVshared_str@@V?$xr_vector@PAVIReader@@V?$xalloc@PAVIReader@@@@@@@std@@PAX@2@@Z 0093caf0 f i stdafx.obj
 0001:0003bb00       ?_Isnil@?$_Tree_val@U?$_Tree_simple_types@U?$pair@$$CBVshared_str@@V?$xr_vector@PAVIReader@@V?$xalloc@PAVIReader@@@@@@@std@@@std@@@std@@SAAADPAU?$_Tree_node@U?$pair@$$CBVshared_str@@V?$xr_vector@PAVIReader@@V?$xalloc@PAVIReader@@@@@@@std@@PAX@2@@Z 0093cb00 f i stdafx.obj
 0001:0003bb10       ?_Myval@?$_Tree_val@U?$_Tree_simple_types@U?$pair@$$CBVshared_str@@V?$xr_vector@PAVIReader@@V?$xalloc@PAVIReader@@@@@@@std@@@std@@@std@@SAAAU?$pair@$$CBVshared_str@@V?$xr_vector@PAVIReader@@V?$xalloc@PAVIReader@@@@@@@2@PAU?$_Tree_node@U?$pair@$$CBVshared_str@@V?$xr_vector@PAVIReader@@V?$xalloc@PAVIReader@@@@@@@std@@PAX@2@@Z 0093cb10 f i stdafx.obj
 0001:0003bb20       ?_Max@?$_Tree_val@U?$_Tree_simple_types@U?$pair@$$CBVshared_str@@V?$xr_vector@PAVIReader@@V?$xalloc@PAVIReader@@@@@@@std@@@std@@@std@@SAPAU?$_Tree_node@U?$pair@$$CBVshared_str@@V?$xr_vector@PAVIReader@@V?$xalloc@PAVIReader@@@@@@@std@@PAX@2@PAU32@@Z 0093cb20 f i stdafx.obj
 0001:0003bb40       ?_Min@?$_Tree_val@U?$_Tree_simple_types@U?$pair@$$CBVshared_str@@V?$xr_vector@PAVIReader@@V?$xalloc@PAVIReader@@@@@@@std@@@std@@@std@@SAPAU?$_Tree_node@U?$pair@$$CBVshared_str@@V?$xr_vector@PAVIReader@@V?$xalloc@PAVIReader@@@@@@@std@@PAX@2@PAU32@@Z 0093cb40 f i stdafx.obj
 0001:0003bb60       ?_Lrotate@?$_Tree@V?$_Tmap_traits@V?$basic_string@DU?$char_traits@D@std@@V?$xalloc@D@@@std@@PAXU?$less@V?$basic_string@DU?$char_traits@D@std@@V?$xalloc@D@@@std@@@2@V?$xalloc@U?$pair@V?$basic_string@DU?$char_traits@D@std@@V?$xalloc@D@@@std@@PAX@std@@@@$0A@@std@@@std@@IAEXPAU?$_Tree_node@U?$pair@$$CBV?$basic_string@DU?$char_traits@D@std@@V?$xalloc@D@@@std@@PAX@std@@PAX@2@@Z 0093cb60 f i stdafx.obj
 0001:0003bbb0       ?_Rrotate@?$_Tree@V?$_Tmap_traits@V?$basic_string@DU?$char_traits@D@std@@V?$xalloc@D@@@std@@PAXU?$less@V?$basic_string@DU?$char_traits@D@std@@V?$xalloc@D@@@std@@@2@V?$xalloc@U?$pair@V?$basic_string@DU?$char_traits@D@std@@V?$xalloc@D@@@std@@PAX@std@@@@$0A@@std@@@std@@IAEXPAU?$_Tree_node@U?$pair@$$CBV?$basic_string@DU?$char_traits@D@std@@V?$xalloc@D@@@std@@PAX@std@@PAX@2@@Z 0093cbb0 f i stdafx.obj
 0001:0003bc10       ??0?$_Tree_alloc@$0A@U?$_Tree_base_types@U?$pair@$$CBV?$basic_string@DU?$char_traits@D@std@@V?$xalloc@D@@@std@@PAX@std@@V?$xalloc@U?$pair@V?$basic_string@DU?$char_traits@D@std@@V?$xalloc@D@@@std@@PAX@std@@@@@std@@@std@@QAE@ABV?$xalloc@U?$pair@V?$basic_string@DU?$char_traits@D@std@@V?$xalloc@D@@@std@@PAX@std@@@@@Z 0093cc10 f i stdafx.obj
 0001:0003bc30       ?deallocate@?$xalloc@U?$_Tree_node@U?$pair@$$CBV?$basic_string@DU?$char_traits@D@std@@V?$xalloc@D@@@std@@PAX@std@@PAX@std@@@@QBEXPAU?$_Tree_node@U?$pair@$$CBV?$basic_string@DU?$char_traits@D@std@@V?$xalloc@D@@@std@@PAX@std@@PAX@std@@I@Z 0093cc30 f i stdafx.obj
 0001:0003bc50       ?_Color@?$_Tree_val@U?$_Tree_simple_types@U?$pair@$$CBV?$basic_string@DU?$char_traits@D@std@@V?$xalloc@D@@@std@@PAX@std@@@std@@@std@@SAAADPAU?$_Tree_node@U?$pair@$$CBV?$basic_string@DU?$char_traits@D@std@@V?$xalloc@D@@@std@@PAX@std@@PAX@2@@Z 0093cc50 f i stdafx.obj
 0001:0003bc60       ?_Isnil@?$_Tree_val@U?$_Tree_simple_types@U?$pair@$$CBV?$basic_string@DU?$char_traits@D@std@@V?$xalloc@D@@@std@@PAX@std@@@std@@@std@@SAAADPAU?$_Tree_node@U?$pair@$$CBV?$basic_string@DU?$char_traits@D@std@@V?$xalloc@D@@@std@@PAX@std@@PAX@2@@Z 0093cc60 f i stdafx.obj
 0001:0003bc70       ?_Myval@?$_Tree_val@U?$_Tree_simple_types@U?$pair@$$CBV?$basic_string@DU?$char_traits@D@std@@V?$xalloc@D@@@std@@PAX@std@@@std@@@std@@SAAAU?$pair@$$CBV?$basic_string@DU?$char_traits@D@std@@V?$xalloc@D@@@std@@PAX@2@PAU?$_Tree_node@U?$pair@$$CBV?$basic_string@DU?$char_traits@D@std@@V?$xalloc@D@@@std@@PAX@std@@PAX@2@@Z 0093cc70 f i stdafx.obj
 0001:0003bc80       ?_Max@?$_Tree_val@U?$_Tree_simple_types@U?$pair@$$CBV?$basic_string@DU?$char_traits@D@std@@V?$xalloc@D@@@std@@PAX@std@@@std@@@std@@SAPAU?$_Tree_node@U?$pair@$$CBV?$basic_string@DU?$char_traits@D@std@@V?$xalloc@D@@@std@@PAX@std@@PAX@2@PAU32@@Z 0093cc80 f i stdafx.obj
 0001:0003bca0       ?_Min@?$_Tree_val@U?$_Tree_simple_types@U?$pair@$$CBV?$basic_string@DU?$char_traits@D@std@@V?$xalloc@D@@@std@@PAX@std@@@std@@@std@@SAPAU?$_Tree_node@U?$pair@$$CBV?$basic_string@DU?$char_traits@D@std@@V?$xalloc@D@@@std@@PAX@std@@PAX@2@PAU32@@Z 0093cca0 f i stdafx.obj
 0001:0003bcc0       ??E?$_Tree_const_iterator@V?$_Tree_val@U?$_Tree_simple_types@PAUstr_value@@@std@@@std@@@std@@QAEAAV01@XZ 0093ccc0 f i stdafx.obj
 0001:0003bcd0       ??0?$_Tree_unchecked_const_iterator@V?$_Tree_val@U?$_Tree_simple_types@PAUstr_value@@@std@@@std@@U_Iterator_base0@2@@std@@QAE@PAU?$_Tree_node@PAUstr_value@@PAX@1@PBV?$_Tree_val@U?$_Tree_simple_types@PAUstr_value@@@std@@@1@@Z 0093ccd0 f i stdafx.obj
 0001:0003bce0       ?_Mynode@?$_Tree_unchecked_const_iterator@V?$_Tree_val@U?$_Tree_simple_types@PAUstr_value@@@std@@@std@@U_Iterator_base0@2@@std@@QBEPAU?$_Tree_node@PAUstr_value@@PAX@2@XZ 0093cce0 f i stdafx.obj
 0001:0003bcf0       ??0?$_Tree_const_iterator@V?$_Tree_val@U?$_Tree_simple_types@U?$pair@$$CBVshared_str@@PAUSect@CInifile@@@std@@@std@@@std@@@std@@QAE@PAU?$_Tree_node@U?$pair@$$CBVshared_str@@PAUSect@CInifile@@@std@@PAX@1@PBV?$_Tree_val@U?$_Tree_simple_types@U?$pair@$$CBVshared_str@@PAUSect@CInifile@@@std@@@std@@@1@@Z 0093ccf0 f i stdafx.obj
 0001:0003bd00       ??E?$_Tree_const_iterator@V?$_Tree_val@U?$_Tree_simple_types@U?$pair@$$CBVshared_str@@PAUSect@CInifile@@@std@@@std@@@std@@@std@@QAEAAV01@XZ 0093cd00 f i stdafx.obj
 0001:0003bd10       ?_Mynode@?$_Tree_unchecked_const_iterator@V?$_Tree_val@U?$_Tree_simple_types@U?$pair@$$CBVshared_str@@PAUSect@CInifile@@@std@@@std@@@std@@U_Iterator_base0@2@@std@@QBEPAU?$_Tree_node@U?$pair@$$CBVshared_str@@PAUSect@CInifile@@@std@@PAX@2@XZ 0093cd10 f i stdafx.obj
 0001:0003bd20       ??0?$_Tree_const_iterator@V?$_Tree_val@U?$_Tree_simple_types@U?$pair@$$CBVshared_str@@V1@@std@@@std@@@std@@@std@@QAE@PAU?$_Tree_node@U?$pair@$$CBVshared_str@@V1@@std@@PAX@1@PBV?$_Tree_val@U?$_Tree_simple_types@U?$pair@$$CBVshared_str@@V1@@std@@@std@@@1@@Z 0093cd20 f i stdafx.obj
 0001:0003bd30       ??E?$_Tree_const_iterator@V?$_Tree_val@U?$_Tree_simple_types@U?$pair@$$CBVshared_str@@V1@@std@@@std@@@std@@@std@@QAEAAV01@XZ 0093cd30 f i stdafx.obj
 0001:0003bd40       ?_Mynode@?$_Tree_unchecked_const_iterator@V?$_Tree_val@U?$_Tree_simple_types@U?$pair@$$CBVshared_str@@V1@@std@@@std@@@std@@U_Iterator_base0@2@@std@@QBEPAU?$_Tree_node@U?$pair@$$CBVshared_str@@V1@@std@@PAX@2@XZ 0093cd40 f i stdafx.obj
 0001:0003bd50       ??0?$_Tree_const_iterator@V?$_Tree_val@U?$_Tree_simple_types@U?$pair@QBDPAVFS_Path@@@std@@@std@@@std@@@std@@QAE@PAU?$_Tree_node@U?$pair@QBDPAVFS_Path@@@std@@PAX@1@PBV?$_Tree_val@U?$_Tree_simple_types@U?$pair@QBDPAVFS_Path@@@std@@@std@@@1@@Z 0093cd50 f i stdafx.obj
 0001:0003bd60       ??E?$_Tree_const_iterator@V?$_Tree_val@U?$_Tree_simple_types@U?$pair@QBDPAVFS_Path@@@std@@@std@@@std@@@std@@QAEAAV01@XZ 0093cd60 f i stdafx.obj
 0001:0003bd70       ?_Mynode@?$_Tree_unchecked_const_iterator@V?$_Tree_val@U?$_Tree_simple_types@U?$pair@QBDPAVFS_Path@@@std@@@std@@@std@@U_Iterator_base0@2@@std@@QBEPAU?$_Tree_node@U?$pair@QBDPAVFS_Path@@@std@@PAX@2@XZ 0093cd70 f i stdafx.obj
 0001:0003bd80       ??E?$_Tree_const_iterator@V?$_Tree_val@U?$_Tree_simple_types@Ufile@CLocatorAPI@@@std@@@std@@@std@@QAEAAV01@XZ 0093cd80 f i stdafx.obj
 0001:0003bd90       ??0?$_Tree_unchecked_const_iterator@V?$_Tree_val@U?$_Tree_simple_types@Ufile@CLocatorAPI@@@std@@@std@@U_Iterator_base0@2@@std@@QAE@PAU?$_Tree_node@Ufile@CLocatorAPI@@PAX@1@PBV?$_Tree_val@U?$_Tree_simple_types@Ufile@CLocatorAPI@@@std@@@1@@Z 0093cd90 f i stdafx.obj
 0001:0003bda0       ?_Mynode@?$_Tree_unchecked_const_iterator@V?$_Tree_val@U?$_Tree_simple_types@Ufile@CLocatorAPI@@@std@@@std@@U_Iterator_base0@2@@std@@QBEPAU?$_Tree_node@Ufile@CLocatorAPI@@PAX@2@XZ 0093cda0 f i stdafx.obj
 0001:0003bdb0       ??0?$_Tree_const_iterator@V?$_Tree_val@U?$_Tree_simple_types@U?$pair@$$CBVshared_str@@U_FILE_ACCESS_STAT@@@std@@@std@@@std@@@std@@QAE@PAU?$_Tree_node@U?$pair@$$CBVshared_str@@U_FILE_ACCESS_STAT@@@std@@PAX@1@PBV?$_Tree_val@U?$_Tree_simple_types@U?$pair@$$CBVshared_str@@U_FILE_ACCESS_STAT@@@std@@@std@@@1@@Z 0093cdb0 f i stdafx.obj
 0001:0003bdc0       ??E?$_Tree_const_iterator@V?$_Tree_val@U?$_Tree_simple_types@U?$pair@$$CBVshared_str@@U_FILE_ACCESS_STAT@@@std@@@std@@@std@@@std@@QAEAAV01@XZ 0093cdc0 f i stdafx.obj
 0001:0003bdd0       ?_Mynode@?$_Tree_unchecked_const_iterator@V?$_Tree_val@U?$_Tree_simple_types@U?$pair@$$CBVshared_str@@U_FILE_ACCESS_STAT@@@std@@@std@@@std@@U_Iterator_base0@2@@std@@QBEPAU?$_Tree_node@U?$pair@$$CBVshared_str@@U_FILE_ACCESS_STAT@@@std@@PAX@2@XZ 0093cdd0 f i stdafx.obj
 0001:0003bde0       ??0?$_Tree_const_iterator@V?$_Tree_val@U?$_Tree_simple_types@U?$pair@$$CBVshared_str@@V?$xr_vector@PAVIReader@@V?$xalloc@PAVIReader@@@@@@@std@@@std@@@std@@@std@@QAE@PAU?$_Tree_node@U?$pair@$$CBVshared_str@@V?$xr_vector@PAVIReader@@V?$xalloc@PAVIReader@@@@@@@std@@PAX@1@PBV?$_Tree_val@U?$_Tree_simple_types@U?$pair@$$CBVshared_str@@V?$xr_vector@PAVIReader@@V?$xalloc@PAVIReader@@@@@@@std@@@std@@@1@@Z 0093cde0 f i stdafx.obj
 0001:0003bdf0       ??E?$_Tree_const_iterator@V?$_Tree_val@U?$_Tree_simple_types@U?$pair@$$CBVshared_str@@V?$xr_vector@PAVIReader@@V?$xalloc@PAVIReader@@@@@@@std@@@std@@@std@@@std@@QAEAAV01@XZ 0093cdf0 f i stdafx.obj
 0001:0003be00       ?_Mynode@?$_Tree_unchecked_const_iterator@V?$_Tree_val@U?$_Tree_simple_types@U?$pair@$$CBVshared_str@@V?$xr_vector@PAVIReader@@V?$xalloc@PAVIReader@@@@@@@std@@@std@@@std@@U_Iterator_base0@2@@std@@QBEPAU?$_Tree_node@U?$pair@$$CBVshared_str@@V?$xr_vector@PAVIReader@@V?$xalloc@PAVIReader@@@@@@@std@@PAX@2@XZ 0093ce00 f i stdafx.obj
 0001:0003be10       ??0?$_Tree_const_iterator@V?$_Tree_val@U?$_Tree_simple_types@U?$pair@$$CBV?$basic_string@DU?$char_traits@D@std@@V?$xalloc@D@@@std@@PAX@std@@@std@@@std@@@std@@QAE@PAU?$_Tree_node@U?$pair@$$CBV?$basic_string@DU?$char_traits@D@std@@V?$xalloc@D@@@std@@PAX@std@@PAX@1@PBV?$_Tree_val@U?$_Tree_simple_types@U?$pair@$$CBV?$basic_string@DU?$char_traits@D@std@@V?$xalloc@D@@@std@@PAX@std@@@std@@@1@@Z 0093ce10 f i stdafx.obj
 0001:0003be20       ??E?$_Tree_const_iterator@V?$_Tree_val@U?$_Tree_simple_types@U?$pair@$$CBV?$basic_string@DU?$char_traits@D@std@@V?$xalloc@D@@@std@@PAX@std@@@std@@@std@@@std@@QAEAAV01@XZ 0093ce20 f i stdafx.obj
 0001:0003be30       ?_Mynode@?$_Tree_unchecked_const_iterator@V?$_Tree_val@U?$_Tree_simple_types@U?$pair@$$CBV?$basic_string@DU?$char_traits@D@std@@V?$xalloc@D@@@std@@PAX@std@@@std@@@std@@U_Iterator_base0@2@@std@@QBEPAU?$_Tree_node@U?$pair@$$CBV?$basic_string@DU?$char_traits@D@std@@V?$xalloc@D@@@std@@PAX@std@@PAX@2@XZ 0093ce30 f i stdafx.obj
 0001:0003be40       ?allocate@?$allocator@D@std@@QAEPADI@Z 0093ce40 f i stdafx.obj
 0001:0003be70       ?max_size@?$allocator_traits@V?$allocator@D@std@@@std@@SAIABV?$allocator@D@2@@Z 0093ce70 f i stdafx.obj
 0001:0003be80       ?_Buyheadnode@?$_Tree_alloc@$0A@U?$_Tree_base_types@PAUstr_value@@V?$xalloc@PAUstr_value@@@@@std@@@std@@QAEPAU?$_Tree_node@PAUstr_value@@PAX@2@XZ 0093ce80 f i stdafx.obj
 0001:0003bf20       ??0?$_Tree_val@U?$_Tree_simple_types@PAUstr_value@@@std@@@std@@QAE@XZ 0093cf20 f i stdafx.obj
 0001:0003bf30       ?allocate@?$xalloc@D@@QBEPADIPBX@Z 0093cf30 f i stdafx.obj
 0001:0003bf50       ?max_size@?$allocator_traits@V?$xalloc@D@@@std@@SAIABV?$xalloc@D@@@Z 0093cf50 f i stdafx.obj
 0001:0003bf60       ?_Buyheadnode@?$_Tree_alloc@$0A@U?$_Tree_base_types@U?$pair@$$CBVshared_str@@PAUSect@CInifile@@@std@@V?$xalloc@U?$pair@Vshared_str@@PAUSect@CInifile@@@std@@@@@std@@@std@@QAEPAU?$_Tree_node@U?$pair@$$CBVshared_str@@PAUSect@CInifile@@@std@@PAX@2@XZ 0093cf60 f i stdafx.obj
 0001:0003c000       ??0?$_Tree_val@U?$_Tree_simple_types@U?$pair@$$CBVshared_str@@PAUSect@CInifile@@@std@@@std@@@std@@QAE@XZ 0093d000 f i stdafx.obj
 0001:0003c010       ?_Buyheadnode@?$_Tree_alloc@$0A@U?$_Tree_base_types@U?$pair@$$CBVshared_str@@V1@@std@@V?$xalloc@U?$pair@Vshared_str@@V1@@std@@@@@std@@@std@@QAEPAU?$_Tree_node@U?$pair@$$CBVshared_str@@V1@@std@@PAX@2@XZ 0093d010 f i stdafx.obj
 0001:0003c0b0       ??0?$_Tree_val@U?$_Tree_simple_types@U?$pair@$$CBVshared_str@@V1@@std@@@std@@@std@@QAE@XZ 0093d0b0 f i stdafx.obj
 0001:0003c0c0       ?_Buyheadnode@?$_Tree_alloc@$0A@U?$_Tree_base_types@U?$pair@QBDPAVFS_Path@@@std@@V?$xalloc@U?$pair@PBDPAVFS_Path@@@std@@@@@std@@@std@@QAEPAU?$_Tree_node@U?$pair@QBDPAVFS_Path@@@std@@PAX@2@XZ 0093d0c0 f i stdafx.obj
 0001:0003c160       ??0?$_Tree_val@U?$_Tree_simple_types@U?$pair@QBDPAVFS_Path@@@std@@@std@@@std@@QAE@XZ 0093d160 f i stdafx.obj
 0001:0003c170       ?_Buyheadnode@?$_Tree_alloc@$0A@U?$_Tree_base_types@Ufile@CLocatorAPI@@V?$xalloc@Ufile@CLocatorAPI@@@@@std@@@std@@QAEPAU?$_Tree_node@Ufile@CLocatorAPI@@PAX@2@XZ 0093d170 f i stdafx.obj
 0001:0003c210       ??0?$_Tree_val@U?$_Tree_simple_types@Ufile@CLocatorAPI@@@std@@@std@@QAE@XZ 0093d210 f i stdafx.obj
 0001:0003c220       ?_Buyheadnode@?$_Tree_alloc@$0A@U?$_Tree_base_types@U?$pair@$$CBVshared_str@@U_FILE_ACCESS_STAT@@@std@@V?$xalloc@U?$pair@Vshared_str@@U_FILE_ACCESS_STAT@@@std@@@@@std@@@std@@QAEPAU?$_Tree_node@U?$pair@$$CBVshared_str@@U_FILE_ACCESS_STAT@@@std@@PAX@2@XZ 0093d220 f i stdafx.obj
 0001:0003c2c0       ??0?$_Tree_val@U?$_Tree_simple_types@U?$pair@$$CBVshared_str@@U_FILE_ACCESS_STAT@@@std@@@std@@@std@@QAE@XZ 0093d2c0 f i stdafx.obj
 0001:0003c2d0       ?_Buyheadnode@?$_Tree_alloc@$0A@U?$_Tree_base_types@U?$pair@$$CBVshared_str@@V?$xr_vector@PAVIReader@@V?$xalloc@PAVIReader@@@@@@@std@@V?$xalloc@U?$pair@Vshared_str@@V?$xr_vector@PAVIReader@@V?$xalloc@PAVIReader@@@@@@@std@@@@@std@@@std@@QAEPAU?$_Tree_node@U?$pair@$$CBVshared_str@@V?$xr_vector@PAVIReader@@V?$xalloc@PAVIReader@@@@@@@std@@PAX@2@XZ 0093d2d0 f i stdafx.obj
 0001:0003c370       ??0?$_Tree_val@U?$_Tree_simple_types@U?$pair@$$CBVshared_str@@V?$xr_vector@PAVIReader@@V?$xalloc@PAVIReader@@@@@@@std@@@std@@@std@@QAE@XZ 0093d370 f i stdafx.obj
 0001:0003c380       ?_Buyheadnode@?$_Tree_alloc@$0A@U?$_Tree_base_types@U?$pair@$$CBV?$basic_string@DU?$char_traits@D@std@@V?$xalloc@D@@@std@@PAX@std@@V?$xalloc@U?$pair@V?$basic_string@DU?$char_traits@D@std@@V?$xalloc@D@@@std@@PAX@std@@@@@std@@@std@@QAEPAU?$_Tree_node@U?$pair@$$CBV?$basic_string@DU?$char_traits@D@std@@V?$xalloc@D@@@std@@PAX@std@@PAX@2@XZ 0093d380 f i stdafx.obj
 0001:0003c420       ??0?$_Tree_val@U?$_Tree_simple_types@U?$pair@$$CBV?$basic_string@DU?$char_traits@D@std@@V?$xalloc@D@@@std@@PAX@std@@@std@@@std@@QAE@XZ 0093d420 f i stdafx.obj
 0001:0003c430       ??E?$_Tree_unchecked_const_iterator@V?$_Tree_val@U?$_Tree_simple_types@PAUstr_value@@@std@@@std@@U_Iterator_base0@2@@std@@QAEAAV01@XZ 0093d430 f i stdafx.obj
 0001:0003c480       ??0?$_Tree_unchecked_const_iterator@V?$_Tree_val@U?$_Tree_simple_types@U?$pair@$$CBVshared_str@@PAUSect@CInifile@@@std@@@std@@@std@@U_Iterator_base0@2@@std@@QAE@PAU?$_Tree_node@U?$pair@$$CBVshared_str@@PAUSect@CInifile@@@std@@PAX@1@PBV?$_Tree_val@U?$_Tree_simple_types@U?$pair@$$CBVshared_str@@PAUSect@CInifile@@@std@@@std@@@1@@Z 0093d480 f i stdafx.obj
 0001:0003c490       ??E?$_Tree_unchecked_const_iterator@V?$_Tree_val@U?$_Tree_simple_types@U?$pair@$$CBVshared_str@@PAUSect@CInifile@@@std@@@std@@@std@@U_Iterator_base0@2@@std@@QAEAAV01@XZ 0093d490 f i stdafx.obj
 0001:0003c4e0       ??0?$_Tree_unchecked_const_iterator@V?$_Tree_val@U?$_Tree_simple_types@U?$pair@$$CBVshared_str@@V1@@std@@@std@@@std@@U_Iterator_base0@2@@std@@QAE@PAU?$_Tree_node@U?$pair@$$CBVshared_str@@V1@@std@@PAX@1@PBV?$_Tree_val@U?$_Tree_simple_types@U?$pair@$$CBVshared_str@@V1@@std@@@std@@@1@@Z 0093d4e0 f i stdafx.obj
 0001:0003c4f0       ??E?$_Tree_unchecked_const_iterator@V?$_Tree_val@U?$_Tree_simple_types@U?$pair@$$CBVshared_str@@V1@@std@@@std@@@std@@U_Iterator_base0@2@@std@@QAEAAV01@XZ 0093d4f0 f i stdafx.obj
 0001:0003c540       ??0?$_Tree_unchecked_const_iterator@V?$_Tree_val@U?$_Tree_simple_types@U?$pair@QBDPAVFS_Path@@@std@@@std@@@std@@U_Iterator_base0@2@@std@@QAE@PAU?$_Tree_node@U?$pair@QBDPAVFS_Path@@@std@@PAX@1@PBV?$_Tree_val@U?$_Tree_simple_types@U?$pair@QBDPAVFS_Path@@@std@@@std@@@1@@Z 0093d540 f i stdafx.obj
 0001:0003c550       ??E?$_Tree_unchecked_const_iterator@V?$_Tree_val@U?$_Tree_simple_types@U?$pair@QBDPAVFS_Path@@@std@@@std@@@std@@U_Iterator_base0@2@@std@@QAEAAV01@XZ 0093d550 f i stdafx.obj
 0001:0003c5a0       ??E?$_Tree_unchecked_const_iterator@V?$_Tree_val@U?$_Tree_simple_types@Ufile@CLocatorAPI@@@std@@@std@@U_Iterator_base0@2@@std@@QAEAAV01@XZ 0093d5a0 f i stdafx.obj
 0001:0003c5f0       ??0?$_Tree_unchecked_const_iterator@V?$_Tree_val@U?$_Tree_simple_types@U?$pair@$$CBVshared_str@@U_FILE_ACCESS_STAT@@@std@@@std@@@std@@U_Iterator_base0@2@@std@@QAE@PAU?$_Tree_node@U?$pair@$$CBVshared_str@@U_FILE_ACCESS_STAT@@@std@@PAX@1@PBV?$_Tree_val@U?$_Tree_simple_types@U?$pair@$$CBVshared_str@@U_FILE_ACCESS_STAT@@@std@@@std@@@1@@Z 0093d5f0 f i stdafx.obj
 0001:0003c600       ??E?$_Tree_unchecked_const_iterator@V?$_Tree_val@U?$_Tree_simple_types@U?$pair@$$CBVshared_str@@U_FILE_ACCESS_STAT@@@std@@@std@@@std@@U_Iterator_base0@2@@std@@QAEAAV01@XZ 0093d600 f i stdafx.obj
 0001:0003c650       ??0?$_Tree_unchecked_const_iterator@V?$_Tree_val@U?$_Tree_simple_types@U?$pair@$$CBVshared_str@@V?$xr_vector@PAVIReader@@V?$xalloc@PAVIReader@@@@@@@std@@@std@@@std@@U_Iterator_base0@2@@std@@QAE@PAU?$_Tree_node@U?$pair@$$CBVshared_str@@V?$xr_vector@PAVIReader@@V?$xalloc@PAVIReader@@@@@@@std@@PAX@1@PBV?$_Tree_val@U?$_Tree_simple_types@U?$pair@$$CBVshared_str@@V?$xr_vector@PAVIReader@@V?$xalloc@PAVIReader@@@@@@@std@@@std@@@1@@Z 0093d650 f i stdafx.obj
 0001:0003c660       ??E?$_Tree_unchecked_const_iterator@V?$_Tree_val@U?$_Tree_simple_types@U?$pair@$$CBVshared_str@@V?$xr_vector@PAVIReader@@V?$xalloc@PAVIReader@@@@@@@std@@@std@@@std@@U_Iterator_base0@2@@std@@QAEAAV01@XZ 0093d660 f i stdafx.obj
 0001:0003c6b0       ??0?$_Tree_unchecked_const_iterator@V?$_Tree_val@U?$_Tree_simple_types@U?$pair@$$CBV?$basic_string@DU?$char_traits@D@std@@V?$xalloc@D@@@std@@PAX@std@@@std@@@std@@U_Iterator_base0@2@@std@@QAE@PAU?$_Tree_node@U?$pair@$$CBV?$basic_string@DU?$char_traits@D@std@@V?$xalloc@D@@@std@@PAX@std@@PAX@1@PBV?$_Tree_val@U?$_Tree_simple_types@U?$pair@$$CBV?$basic_string@DU?$char_traits@D@std@@V?$xalloc@D@@@std@@PAX@std@@@std@@@1@@Z 0093d6b0 f i stdafx.obj
 0001:0003c6c0       ??E?$_Tree_unchecked_const_iterator@V?$_Tree_val@U?$_Tree_simple_types@U?$pair@$$CBV?$basic_string@DU?$char_traits@D@std@@V?$xalloc@D@@@std@@PAX@std@@@std@@@std@@U_Iterator_base0@2@@std@@QAEAAV01@XZ 0093d6c0 f i stdafx.obj
 0001:0003c710       ?max_size@?$allocator@D@std@@QBEIXZ 0093d710 f i stdafx.obj
 0001:0003c720       ?allocate@?$_Wrap_alloc@V?$xalloc@U?$_Tree_node@PAUstr_value@@PAX@std@@@@@std@@QAEPAU?$_Tree_node@PAUstr_value@@PAX@2@I@Z 0093d720 f i stdafx.obj
 0001:0003c740       ?allocate@?$_Wrap_alloc@V?$xalloc@U?$_Tree_node@U?$pair@$$CBVshared_str@@PAUSect@CInifile@@@std@@PAX@std@@@@@std@@QAEPAU?$_Tree_node@U?$pair@$$CBVshared_str@@PAUSect@CInifile@@@std@@PAX@2@I@Z 0093d740 f i stdafx.obj
 0001:0003c760       ?allocate@?$_Wrap_alloc@V?$xalloc@U?$_Tree_node@U?$pair@$$CBVshared_str@@V1@@std@@PAX@std@@@@@std@@QAEPAU?$_Tree_node@U?$pair@$$CBVshared_str@@V1@@std@@PAX@2@I@Z 0093d760 f i stdafx.obj
 0001:0003c780       ?allocate@?$_Wrap_alloc@V?$xalloc@U?$_Tree_node@U?$pair@QBDPAVFS_Path@@@std@@PAX@std@@@@@std@@QAEPAU?$_Tree_node@U?$pair@QBDPAVFS_Path@@@std@@PAX@2@I@Z 0093d780 f i stdafx.obj
 0001:0003c7a0       ?allocate@?$_Wrap_alloc@V?$xalloc@U?$_Tree_node@Ufile@CLocatorAPI@@PAX@std@@@@@std@@QAEPAU?$_Tree_node@Ufile@CLocatorAPI@@PAX@2@I@Z 0093d7a0 f i stdafx.obj
 0001:0003c7c0       ?allocate@?$_Wrap_alloc@V?$xalloc@U?$_Tree_node@U?$pair@$$CBVshared_str@@U_FILE_ACCESS_STAT@@@std@@PAX@std@@@@@std@@QAEPAU?$_Tree_node@U?$pair@$$CBVshared_str@@U_FILE_ACCESS_STAT@@@std@@PAX@2@I@Z 0093d7c0 f i stdafx.obj
 0001:0003c7e0       ?allocate@?$_Wrap_alloc@V?$xalloc@U?$_Tree_node@U?$pair@$$CBVshared_str@@V?$xr_vector@PAVIReader@@V?$xalloc@PAVIReader@@@@@@@std@@PAX@std@@@@@std@@QAEPAU?$_Tree_node@U?$pair@$$CBVshared_str@@V?$xr_vector@PAVIReader@@V?$xalloc@PAVIReader@@@@@@@std@@PAX@2@I@Z 0093d7e0 f i stdafx.obj
 0001:0003c800       ?allocate@?$_Wrap_alloc@V?$xalloc@U?$_Tree_node@U?$pair@$$CBV?$basic_string@DU?$char_traits@D@std@@V?$xalloc@D@@@std@@PAX@std@@PAX@std@@@@@std@@QAEPAU?$_Tree_node@U?$pair@$$CBV?$basic_string@DU?$char_traits@D@std@@V?$xalloc@D@@@std@@PAX@std@@PAX@2@I@Z 0093d800 f i stdafx.obj
 0001:0003c820       ?allocate@?$xalloc@U?$_Tree_node@PAUstr_value@@PAX@std@@@@QBEPAU?$_Tree_node@PAUstr_value@@PAX@std@@IPBX@Z 0093d820 f i stdafx.obj
 0001:0003c840       ?allocate@?$xalloc@U?$_Tree_node@U?$pair@$$CBVshared_str@@PAUSect@CInifile@@@std@@PAX@std@@@@QBEPAU?$_Tree_node@U?$pair@$$CBVshared_str@@PAUSect@CInifile@@@std@@PAX@std@@IPBX@Z 0093d840 f i stdafx.obj
 0001:0003c850       ?allocate@?$xalloc@U?$_Tree_node@U?$pair@$$CBVshared_str@@V1@@std@@PAX@std@@@@QBEPAU?$_Tree_node@U?$pair@$$CBVshared_str@@V1@@std@@PAX@std@@IPBX@Z 0093d850 f i stdafx.obj
 0001:0003c860       ?allocate@?$xalloc@U?$_Tree_node@U?$pair@QBDPAVFS_Path@@@std@@PAX@std@@@@QBEPAU?$_Tree_node@U?$pair@QBDPAVFS_Path@@@std@@PAX@std@@IPBX@Z 0093d860 f i stdafx.obj
 0001:0003c870       ?allocate@?$xalloc@U?$_Tree_node@Ufile@CLocatorAPI@@PAX@std@@@@QBEPAU?$_Tree_node@Ufile@CLocatorAPI@@PAX@std@@IPBX@Z 0093d870 f i stdafx.obj
 0001:0003c880       ?allocate@?$xalloc@U?$_Tree_node@U?$pair@$$CBVshared_str@@U_FILE_ACCESS_STAT@@@std@@PAX@std@@@@QBEPAU?$_Tree_node@U?$pair@$$CBVshared_str@@U_FILE_ACCESS_STAT@@@std@@PAX@std@@IPBX@Z 0093d880 f i stdafx.obj
 0001:0003c890       ?allocate@?$xalloc@U?$_Tree_node@U?$pair@$$CBVshared_str@@V?$xr_vector@PAVIReader@@V?$xalloc@PAVIReader@@@@@@@std@@PAX@std@@@@QBEPAU?$_Tree_node@U?$pair@$$CBVshared_str@@V?$xr_vector@PAVIReader@@V?$xalloc@PAVIReader@@@@@@@std@@PAX@std@@IPBX@Z 0093d890 f i stdafx.obj
 0001:0003c8a0       ?allocate@?$xalloc@U?$_Tree_node@U?$pair@$$CBV?$basic_string@DU?$char_traits@D@std@@V?$xalloc@D@@@std@@PAX@std@@PAX@std@@@@QBEPAU?$_Tree_node@U?$pair@$$CBV?$basic_string@DU?$char_traits@D@std@@V?$xalloc@D@@@std@@PAX@std@@PAX@std@@IPBX@Z 0093d8a0 f i stdafx.obj
 0001:0003c8c0       ??$xr_free@D@@YAXAAPAD@Z   0093d8c0 f i stdafx.obj
 0001:0003c8e0       ??$xr_delete@VCResourceDesc@@@@YAXAAPAVCResourceDesc@@@Z 0093d8e0 f i stdafx.obj
 0001:0003c920       ??$_Ucopy@V?$_Vector_const_iterator@V?$_Vector_val@U?$_Simple_types@I@std@@@std@@@std@@@?$vector@IV?$xalloc@I@@@std@@IAEPAIV?$_Vector_const_iterator@V?$_Vector_val@U?$_Simple_types@I@std@@@std@@@1@0PAI@Z 0093d920 f i stdafx.obj
 0001:0003c940       ??$?9V?$xalloc@I@@V0@@std@@YA_NABU?$_Wrap_alloc@V?$xalloc@I@@@0@0@Z 0093d940 f i stdafx.obj
 0001:0003c950       ??$_Copy_impl@PAIPAI@std@@YAPAIPAI00@Z 0093d950 f i stdafx.obj
 0001:0003c980       ??$_Ucopy@PAI@?$vector@IV?$xalloc@I@@@std@@IAEPAIPAI00@Z 0093d980 f i stdafx.obj
 0001:0003c9a0       ??$_Ucopy@V?$_Vector_const_iterator@V?$_Vector_val@U?$_Simple_types@PAUsmem_value@@@std@@@std@@@std@@@?$vector@PAUsmem_value@@V?$xalloc@PAUsmem_value@@@@@std@@IAEPAPAUsmem_value@@V?$_Vector_const_iterator@V?$_Vector_val@U?$_Simple_types@PAUsmem_value@@@std@@@std@@@1@0PAPAU2@@Z 0093d9a0 f i stdafx.obj
 0001:0003c9c0       ??$?9V?$xalloc@PAUsmem_value@@@@V0@@std@@YA_NABU?$_Wrap_alloc@V?$xalloc@PAUsmem_value@@@@@0@0@Z 0093d9c0 f i stdafx.obj
 0001:0003c9d0       ??$_Copy_impl@PAPAUsmem_value@@PAPAU1@@std@@YAPAPAUsmem_value@@PAPAU1@00@Z 0093d9d0 f i stdafx.obj
 0001:0003ca00       ??$_Ucopy@PAPAUsmem_value@@@?$vector@PAUsmem_value@@V?$xalloc@PAUsmem_value@@@@@std@@IAEPAPAUsmem_value@@PAPAU2@00@Z 0093da00 f i stdafx.obj
 0001:0003ca20       ??$?0U?$_Tree_node@PAUstr_value@@PAX@std@@@?$xalloc@PAUstr_value@@@@QAE@ABV?$xalloc@U?$_Tree_node@PAUstr_value@@PAX@std@@@@@Z 0093da20 f i stdafx.obj
 0001:0003ca30       ??$?9V?$xalloc@D@@V0@@std@@YA_NABU?$_Wrap_alloc@V?$xalloc@D@@@0@0@Z 0093da30 f i stdafx.obj
 0001:0003ca40       ??$_Ucopy@V?$_Vector_const_iterator@V?$_Vector_val@U?$_Simple_types@UItem@CInifile@@@std@@@std@@@std@@@?$vector@UItem@CInifile@@V?$xalloc@UItem@CInifile@@@@@std@@IAEPAUItem@CInifile@@V?$_Vector_const_iterator@V?$_Vector_val@U?$_Simple_types@UItem@CInifile@@@std@@@std@@@1@0PAU23@@Z 0093da40 f i stdafx.obj
 0001:0003ca60       ??$?9V?$xalloc@UItem@CInifile@@@@V0@@std@@YA_NABU?$_Wrap_alloc@V?$xalloc@UItem@CInifile@@@@@0@0@Z 0093da60 f i stdafx.obj
 0001:0003ca70       ??$_Copy_impl@PAUItem@CInifile@@PAU12@@std@@YAPAUItem@CInifile@@PAU12@00@Z 0093da70 f i stdafx.obj
 0001:0003ca90       ??$_Ucopy@PAUItem@CInifile@@@?$vector@UItem@CInifile@@V?$xalloc@UItem@CInifile@@@@@std@@IAEPAUItem@CInifile@@PAU23@00@Z 0093da90 f i stdafx.obj
 0001:0003cab0       ??$?0U?$_Tree_node@U?$pair@$$CBVshared_str@@PAUSect@CInifile@@@std@@PAX@std@@@?$xalloc@U?$pair@Vshared_str@@PAUSect@CInifile@@@std@@@@QAE@ABV?$xalloc@U?$_Tree_node@U?$pair@$$CBVshared_str@@PAUSect@CInifile@@@std@@PAX@std@@@@@Z 0093dab0 f i stdafx.obj
 0001:0003cac0       ??$?0U?$_Tree_node@U?$pair@$$CBVshared_str@@V1@@std@@PAX@std@@@?$xalloc@U?$pair@Vshared_str@@V1@@std@@@@QAE@ABV?$xalloc@U?$_Tree_node@U?$pair@$$CBVshared_str@@V1@@std@@PAX@std@@@@@Z 0093dac0 f i stdafx.obj
 0001:0003cad0       ??$?0U?$_Tree_node@U?$pair@QBDPAVFS_Path@@@std@@PAX@std@@@?$xalloc@U?$pair@PBDPAVFS_Path@@@std@@@@QAE@ABV?$xalloc@U?$_Tree_node@U?$pair@QBDPAVFS_Path@@@std@@PAX@std@@@@@Z 0093dad0 f i stdafx.obj
 0001:0003cae0       ??$?0U?$_Tree_node@Ufile@CLocatorAPI@@PAX@std@@@?$xalloc@Ufile@CLocatorAPI@@@@QAE@ABV?$xalloc@U?$_Tree_node@Ufile@CLocatorAPI@@PAX@std@@@@@Z 0093dae0 f i stdafx.obj
 0001:0003caf0       ??$_Ucopy@V?$_Vector_const_iterator@V?$_Vector_val@U?$_Simple_types@Uarchive@CLocatorAPI@@@std@@@std@@@std@@@?$vector@Uarchive@CLocatorAPI@@V?$xalloc@Uarchive@CLocatorAPI@@@@@std@@IAEPAUarchive@CLocatorAPI@@V?$_Vector_const_iterator@V?$_Vector_val@U?$_Simple_types@Uarchive@CLocatorAPI@@@std@@@std@@@1@0PAU23@@Z 0093daf0 f i stdafx.obj
 0001:0003cb10       ??$?9V?$xalloc@Uarchive@CLocatorAPI@@@@V0@@std@@YA_NABU?$_Wrap_alloc@V?$xalloc@Uarchive@CLocatorAPI@@@@@0@0@Z 0093db10 f i stdafx.obj
 0001:0003cb20       ??$_Copy_impl@PAUarchive@CLocatorAPI@@PAU12@@std@@YAPAUarchive@CLocatorAPI@@PAU12@00@Z 0093db20 f i stdafx.obj
 0001:0003cb40       ??$_Ucopy@PAUarchive@CLocatorAPI@@@?$vector@Uarchive@CLocatorAPI@@V?$xalloc@Uarchive@CLocatorAPI@@@@@std@@IAEPAUarchive@CLocatorAPI@@PAU23@00@Z 0093db40 f i stdafx.obj
 0001:0003cb60       ??$_Ucopy@V?$_Vector_const_iterator@V?$_Vector_val@U?$_Simple_types@U_finddata64i32_t@@@std@@@std@@@std@@@?$vector@U_finddata64i32_t@@V?$xalloc@U_finddata64i32_t@@@@@std@@IAEPAU_finddata64i32_t@@V?$_Vector_const_iterator@V?$_Vector_val@U?$_Simple_types@U_finddata64i32_t@@@std@@@std@@@1@0PAU2@@Z 0093db60 f i stdafx.obj
 0001:0003cb80       ??$?9V?$xalloc@U_finddata64i32_t@@@@V0@@std@@YA_NABU?$_Wrap_alloc@V?$xalloc@U_finddata64i32_t@@@@@0@0@Z 0093db80 f i stdafx.obj
 0001:0003cb90       ??$_Copy_impl@PAU_finddata64i32_t@@PAU1@@std@@YAPAU_finddata64i32_t@@PAU1@00@Z 0093db90 f i stdafx.obj
 0001:0003cbc0       ??$_Ucopy@PAU_finddata64i32_t@@@?$vector@U_finddata64i32_t@@V?$xalloc@U_finddata64i32_t@@@@@std@@IAEPAU_finddata64i32_t@@PAU2@00@Z 0093dbc0 f i stdafx.obj
 0001:0003cbe0       ??$?0U?$_Tree_node@U?$pair@$$CBVshared_str@@U_FILE_ACCESS_STAT@@@std@@PAX@std@@@?$xalloc@U?$pair@Vshared_str@@U_FILE_ACCESS_STAT@@@std@@@@QAE@ABV?$xalloc@U?$_Tree_node@U?$pair@$$CBVshared_str@@U_FILE_ACCESS_STAT@@@std@@PAX@std@@@@@Z 0093dbe0 f i stdafx.obj
 0001:0003cbf0       ??$?0U?$_Tree_node@U?$pair@$$CBVshared_str@@V?$xr_vector@PAVIReader@@V?$xalloc@PAVIReader@@@@@@@std@@PAX@std@@@?$xalloc@U?$pair@Vshared_str@@V?$xr_vector@PAVIReader@@V?$xalloc@PAVIReader@@@@@@@std@@@@QAE@ABV?$xalloc@U?$_Tree_node@U?$pair@$$CBVshared_str@@V?$xr_vector@PAVIReader@@V?$xalloc@PAVIReader@@@@@@@std@@PAX@std@@@@@Z 0093dbf0 f i stdafx.obj
 0001:0003cc00       ??$?0U?$_Tree_node@U?$pair@$$CBV?$basic_string@DU?$char_traits@D@std@@V?$xalloc@D@@@std@@PAX@std@@PAX@std@@@?$xalloc@U?$pair@V?$basic_string@DU?$char_traits@D@std@@V?$xalloc@D@@@std@@PAX@std@@@@QAE@ABV?$xalloc@U?$_Tree_node@U?$pair@$$CBV?$basic_string@DU?$char_traits@D@std@@V?$xalloc@D@@@std@@PAX@std@@PAX@std@@@@@Z 0093dc00 f i stdafx.obj
 0001:0003cc10       ??$_Ucopy@V?$_Vector_const_iterator@V?$_Vector_val@U?$_Simple_types@PAVCTimer_paused@@@std@@@std@@@std@@@?$vector@PAVCTimer_paused@@V?$xalloc@PAVCTimer_paused@@@@@std@@IAEPAPAVCTimer_paused@@V?$_Vector_const_iterator@V?$_Vector_val@U?$_Simple_types@PAVCTimer_paused@@@std@@@std@@@1@0PAPAV2@@Z 0093dc10 f i stdafx.obj
 0001:0003cc30       ??$?9V?$xalloc@PAVCTimer_paused@@@@V0@@std@@YA_NABU?$_Wrap_alloc@V?$xalloc@PAVCTimer_paused@@@@@0@0@Z 0093dc30 f i stdafx.obj
 0001:0003cc40       ??$_Copy_impl@PAPAVCTimer_paused@@PAPAV1@@std@@YAPAPAVCTimer_paused@@PAPAV1@00@Z 0093dc40 f i stdafx.obj
 0001:0003cc70       ??$_Ucopy@PAPAVCTimer_paused@@@?$vector@PAVCTimer_paused@@V?$xalloc@PAVCTimer_paused@@@@@std@@IAEPAPAVCTimer_paused@@PAPAV2@00@Z 0093dc70 f i stdafx.obj
 0001:0003cc90       ??$construct@PADAAPAD@?$_Wrap_alloc@V?$allocator@D@std@@@std@@QAEXPAPADAAPAD@Z 0093dc90 f i stdafx.obj
 0001:0003cce0       ??$destroy@PAD@?$_Wrap_alloc@V?$allocator@D@std@@@std@@QAEXPAPAD@Z 0093dce0 f i stdafx.obj
 0001:0003ccf0       ??$addressof@D@std@@YAPADAAD@Z 0093dcf0 f i stdafx.obj
 0001:0003cd00       ??$_Destroy_range@U?$_Wrap_alloc@V?$xalloc@I@@@std@@@std@@YAXPAI0AAU?$_Wrap_alloc@V?$xalloc@I@@@0@@Z 0093dd00 f i stdafx.obj
 0001:0003cd10       ??$_Destroy_range@U?$_Wrap_alloc@V?$xalloc@PAUsmem_value@@@@@std@@@std@@YAXPAPAUsmem_value@@0AAU?$_Wrap_alloc@V?$xalloc@PAUsmem_value@@@@@0@@Z 0093dd10 f i stdafx.obj
 0001:0003cd20       ??$_Copy@U?$integral_constant@_N$0A@@std@@@?$_Tree@V?$_Tset_traits@PAUstr_value@@Ustr_value_cmp@@V?$xalloc@PAUstr_value@@@@$00@std@@@std@@IAEXABV01@U?$integral_constant@_N$0A@@1@@Z 0093dd20 f i stdafx.obj
 0001:0003cda0       ??$?9V?$xalloc@U?$_Tree_node@PAUstr_value@@PAX@std@@@@V0@@std@@YA_NABU?$_Wrap_alloc@V?$xalloc@U?$_Tree_node@PAUstr_value@@PAX@std@@@@@0@0@Z 0093dda0 f i stdafx.obj
 0001:0003cdb0       ??$destroy@PAD@?$_Wrap_alloc@V?$xalloc@D@@@std@@QAEXPAPAD@Z 0093ddb0 f i stdafx.obj
 0001:0003cdc0       ??$_Destroy_range@U?$_Wrap_alloc@V?$xalloc@UItem@CInifile@@@@@std@@@std@@YAXPAUItem@CInifile@@0AAU?$_Wrap_alloc@V?$xalloc@UItem@CInifile@@@@@0@@Z 0093ddc0 f i stdafx.obj
 0001:0003cdd0       ??$_Copy@U?$integral_constant@_N$0A@@std@@@?$_Tree@V?$_Tmap_traits@Vshared_str@@PAUSect@CInifile@@U?$less@Vshared_str@@@std@@V?$xalloc@U?$pair@Vshared_str@@PAUSect@CInifile@@@std@@@@$0A@@std@@@std@@IAEXABV01@U?$integral_constant@_N$0A@@1@@Z 0093ddd0 f i stdafx.obj
 0001:0003ce50       ??$?9V?$xalloc@U?$_Tree_node@U?$pair@$$CBVshared_str@@PAUSect@CInifile@@@std@@PAX@std@@@@V0@@std@@YA_NABU?$_Wrap_alloc@V?$xalloc@U?$_Tree_node@U?$pair@$$CBVshared_str@@PAUSect@CInifile@@@std@@PAX@std@@@@@0@0@Z 0093de50 f i stdafx.obj
 0001:0003ce60       ??$_Copy@U?$integral_constant@_N$0A@@std@@@?$_Tree@V?$_Tmap_traits@Vshared_str@@V1@U?$less@Vshared_str@@@std@@V?$xalloc@U?$pair@Vshared_str@@V1@@std@@@@$0A@@std@@@std@@IAEXABV01@U?$integral_constant@_N$0A@@1@@Z 0093de60 f i stdafx.obj
 0001:0003cee0       ??$?9V?$xalloc@U?$_Tree_node@U?$pair@$$CBVshared_str@@V1@@std@@PAX@std@@@@V0@@std@@YA_NABU?$_Wrap_alloc@V?$xalloc@U?$_Tree_node@U?$pair@$$CBVshared_str@@V1@@std@@PAX@std@@@@@0@0@Z 0093dee0 f i stdafx.obj
 0001:0003cef0       ??$_Copy@U?$integral_constant@_N$0A@@std@@@?$_Tree@V?$_Tmap_traits@PBDPAVFS_Path@@Upred_str@@V?$xalloc@U?$pair@PBDPAVFS_Path@@@std@@@@$0A@@std@@@std@@IAEXABV01@U?$integral_constant@_N$0A@@1@@Z 0093def0 f i stdafx.obj
 0001:0003cf70       ??$?9V?$xalloc@U?$_Tree_node@U?$pair@QBDPAVFS_Path@@@std@@PAX@std@@@@V0@@std@@YA_NABU?$_Wrap_alloc@V?$xalloc@U?$_Tree_node@U?$pair@QBDPAVFS_Path@@@std@@PAX@std@@@@@0@0@Z 0093df70 f i stdafx.obj
 0001:0003cf80       ??$_Copy@U?$integral_constant@_N$0A@@std@@@?$_Tree@V?$_Tset_traits@Ufile@CLocatorAPI@@Ufile_pred@2@V?$xalloc@Ufile@CLocatorAPI@@@@$0A@@std@@@std@@IAEXABV01@U?$integral_constant@_N$0A@@1@@Z 0093df80 f i stdafx.obj
 0001:0003d000       ??$?9V?$xalloc@U?$_Tree_node@Ufile@CLocatorAPI@@PAX@std@@@@V0@@std@@YA_NABU?$_Wrap_alloc@V?$xalloc@U?$_Tree_node@Ufile@CLocatorAPI@@PAX@std@@@@@0@0@Z 0093e000 f i stdafx.obj
 0001:0003d010       ??$_Destroy_range@U?$_Wrap_alloc@V?$xalloc@Uarchive@CLocatorAPI@@@@@std@@@std@@YAXPAUarchive@CLocatorAPI@@0AAU?$_Wrap_alloc@V?$xalloc@Uarchive@CLocatorAPI@@@@@0@@Z 0093e010 f i stdafx.obj
 0001:0003d070       ??$_Destroy_range@U?$_Wrap_alloc@V?$xalloc@U_finddata64i32_t@@@@@std@@@std@@YAXPAU_finddata64i32_t@@0AAU?$_Wrap_alloc@V?$xalloc@U_finddata64i32_t@@@@@0@@Z 0093e070 f i stdafx.obj
 0001:0003d080       ??$_Copy@U?$integral_constant@_N$0A@@std@@@?$_Tree@V?$_Tmap_traits@Vshared_str@@U_FILE_ACCESS_STAT@@U?$less@Vshared_str@@@std@@V?$xalloc@U?$pair@Vshared_str@@U_FILE_ACCESS_STAT@@@std@@@@$0A@@std@@@std@@IAEXABV01@U?$integral_constant@_N$0A@@1@@Z 0093e080 f i stdafx.obj
 0001:0003d100       ??$?9V?$xalloc@U?$_Tree_node@U?$pair@$$CBVshared_str@@U_FILE_ACCESS_STAT@@@std@@PAX@std@@@@V0@@std@@YA_NABU?$_Wrap_alloc@V?$xalloc@U?$_Tree_node@U?$pair@$$CBVshared_str@@U_FILE_ACCESS_STAT@@@std@@PAX@std@@@@@0@0@Z 0093e100 f i stdafx.obj
 0001:0003d110       ??$_Copy@U?$integral_constant@_N$0A@@std@@@?$_Tree@V?$_Tmap_traits@Vshared_str@@V?$xr_vector@PAVIReader@@V?$xalloc@PAVIReader@@@@@@U?$less@Vshared_str@@@std@@V?$xalloc@U?$pair@Vshared_str@@V?$xr_vector@PAVIReader@@V?$xalloc@PAVIReader@@@@@@@std@@@@$0A@@std@@@std@@IAEXABV01@U?$integral_constant@_N$0A@@1@@Z 0093e110 f i stdafx.obj
 0001:0003d190       ??$?9V?$xalloc@U?$_Tree_node@U?$pair@$$CBVshared_str@@V?$xr_vector@PAVIReader@@V?$xalloc@PAVIReader@@@@@@@std@@PAX@std@@@@V0@@std@@YA_NABU?$_Wrap_alloc@V?$xalloc@U?$_Tree_node@U?$pair@$$CBVshared_str@@V?$xr_vector@PAVIReader@@V?$xalloc@PAVIReader@@@@@@@std@@PAX@std@@@@@0@0@Z 0093e190 f i stdafx.obj
 0001:0003d1a0       ??$_Copy@U?$integral_constant@_N$0A@@std@@@?$_Tree@V?$_Tmap_traits@V?$basic_string@DU?$char_traits@D@std@@V?$xalloc@D@@@std@@PAXU?$less@V?$basic_string@DU?$char_traits@D@std@@V?$xalloc@D@@@std@@@2@V?$xalloc@U?$pair@V?$basic_string@DU?$char_traits@D@std@@V?$xalloc@D@@@std@@PAX@std@@@@$0A@@std@@@std@@IAEXABV01@U?$integral_constant@_N$0A@@1@@Z 0093e1a0 f i stdafx.obj
 0001:0003d220       ??$?9V?$xalloc@U?$_Tree_node@U?$pair@$$CBV?$basic_string@DU?$char_traits@D@std@@V?$xalloc@D@@@std@@PAX@std@@PAX@std@@@@V0@@std@@YA_NABU?$_Wrap_alloc@V?$xalloc@U?$_Tree_node@U?$pair@$$CBV?$basic_string@DU?$char_traits@D@std@@V?$xalloc@D@@@std@@PAX@std@@PAX@std@@@@@0@0@Z 0093e220 f i stdafx.obj
 0001:0003d230       ??$xr_free@I@@YAXAAPAI@Z   0093e230 f i stdafx.obj
 0001:0003d250       ??$_Fn@V?$xalloc@I@@@_Alloc_select@std@@SA?AV?$xalloc@I@@U_Wrap_int@1@ABV2@@Z 0093e250 f i stdafx.obj
 0001:0003d260       ??$xr_free@PAUsmem_value@@@@YAXAAPAPAUsmem_value@@@Z 0093e260 f i stdafx.obj
 0001:0003d280       ??$_Fn@V?$xalloc@PAUsmem_value@@@@@_Alloc_select@std@@SA?AV?$xalloc@PAUsmem_value@@@@U_Wrap_int@1@ABV2@@Z 0093e280 f i stdafx.obj
 0001:0003d290       ??$addressof@PAU?$_Tree_node@PAUstr_value@@PAX@std@@@std@@YAPAPAU?$_Tree_node@PAUstr_value@@PAX@0@AAPAU10@@Z 0093e290 f i stdafx.obj
 0001:0003d2a0       ??$destroy@PAU?$_Tree_node@PAUstr_value@@PAX@std@@@?$_Wrap_alloc@V?$xalloc@U?$_Tree_node@PAUstr_value@@PAX@std@@@@@std@@QAEXPAPAU?$_Tree_node@PAUstr_value@@PAX@1@@Z 0093e2a0 f i stdafx.obj
 0001:0003d2b0       ??$_Fn@V?$xalloc@U?$_Tree_node@PAUstr_value@@PAX@std@@@@@_Alloc_select@std@@SA?AV?$xalloc@U?$_Tree_node@PAUstr_value@@PAX@std@@@@U_Wrap_int@1@ABV2@@Z 0093e2b0 f i stdafx.obj
 0001:0003d2c0       ??$_Fn@V?$xalloc@D@@@_Alloc_select@std@@SA?AV?$xalloc@D@@U_Wrap_int@1@ABV2@@Z 0093e2c0 f i stdafx.obj
 0001:0003d2d0       ??$xr_free@UItem@CInifile@@@@YAXAAPAUItem@CInifile@@@Z 0093e2d0 f i stdafx.obj
 0001:0003d2f0       ??$_Fn@V?$xalloc@UItem@CInifile@@@@@_Alloc_select@std@@SA?AV?$xalloc@UItem@CInifile@@@@U_Wrap_int@1@ABV2@@Z 0093e2f0 f i stdafx.obj
 0001:0003d300       ??$addressof@PAU?$_Tree_node@U?$pair@$$CBVshared_str@@PAUSect@CInifile@@@std@@PAX@std@@@std@@YAPAPAU?$_Tree_node@U?$pair@$$CBVshared_str@@PAUSect@CInifile@@@std@@PAX@0@AAPAU10@@Z 0093e300 f i stdafx.obj
 0001:0003d310       ??$destroy@PAU?$_Tree_node@U?$pair@$$CBVshared_str@@PAUSect@CInifile@@@std@@PAX@std@@@?$_Wrap_alloc@V?$xalloc@U?$_Tree_node@U?$pair@$$CBVshared_str@@PAUSect@CInifile@@@std@@PAX@std@@@@@std@@QAEXPAPAU?$_Tree_node@U?$pair@$$CBVshared_str@@PAUSect@CInifile@@@std@@PAX@1@@Z 0093e310 f i stdafx.obj
 0001:0003d320       ??$_Fn@V?$xalloc@U?$_Tree_node@U?$pair@$$CBVshared_str@@PAUSect@CInifile@@@std@@PAX@std@@@@@_Alloc_select@std@@SA?AV?$xalloc@U?$_Tree_node@U?$pair@$$CBVshared_str@@PAUSect@CInifile@@@std@@PAX@std@@@@U_Wrap_int@1@ABV2@@Z 0093e320 f i stdafx.obj
 0001:0003d330       ??$addressof@PAU?$_Tree_node@U?$pair@$$CBVshared_str@@V1@@std@@PAX@std@@@std@@YAPAPAU?$_Tree_node@U?$pair@$$CBVshared_str@@V1@@std@@PAX@0@AAPAU10@@Z 0093e330 f i stdafx.obj
 0001:0003d340       ??$destroy@PAU?$_Tree_node@U?$pair@$$CBVshared_str@@V1@@std@@PAX@std@@@?$_Wrap_alloc@V?$xalloc@U?$_Tree_node@U?$pair@$$CBVshared_str@@V1@@std@@PAX@std@@@@@std@@QAEXPAPAU?$_Tree_node@U?$pair@$$CBVshared_str@@V1@@std@@PAX@1@@Z 0093e340 f i stdafx.obj
 0001:0003d350       ??$_Fn@V?$xalloc@U?$_Tree_node@U?$pair@$$CBVshared_str@@V1@@std@@PAX@std@@@@@_Alloc_select@std@@SA?AV?$xalloc@U?$_Tree_node@U?$pair@$$CBVshared_str@@V1@@std@@PAX@std@@@@U_Wrap_int@1@ABV2@@Z 0093e350 f i stdafx.obj
 0001:0003d360       ??$addressof@PAU?$_Tree_node@U?$pair@QBDPAVFS_Path@@@std@@PAX@std@@@std@@YAPAPAU?$_Tree_node@U?$pair@QBDPAVFS_Path@@@std@@PAX@0@AAPAU10@@Z 0093e360 f i stdafx.obj
 0001:0003d370       ??$destroy@PAU?$_Tree_node@U?$pair@QBDPAVFS_Path@@@std@@PAX@std@@@?$_Wrap_alloc@V?$xalloc@U?$_Tree_node@U?$pair@QBDPAVFS_Path@@@std@@PAX@std@@@@@std@@QAEXPAPAU?$_Tree_node@U?$pair@QBDPAVFS_Path@@@std@@PAX@1@@Z 0093e370 f i stdafx.obj
 0001:0003d380       ??$_Fn@V?$xalloc@U?$_Tree_node@U?$pair@QBDPAVFS_Path@@@std@@PAX@std@@@@@_Alloc_select@std@@SA?AV?$xalloc@U?$_Tree_node@U?$pair@QBDPAVFS_Path@@@std@@PAX@std@@@@U_Wrap_int@1@ABV2@@Z 0093e380 f i stdafx.obj
 0001:0003d390       ??$addressof@PAU?$_Tree_node@Ufile@CLocatorAPI@@PAX@std@@@std@@YAPAPAU?$_Tree_node@Ufile@CLocatorAPI@@PAX@0@AAPAU10@@Z 0093e390 f i stdafx.obj
 0001:0003d3a0       ??$destroy@PAU?$_Tree_node@Ufile@CLocatorAPI@@PAX@std@@@?$_Wrap_alloc@V?$xalloc@U?$_Tree_node@Ufile@CLocatorAPI@@PAX@std@@@@@std@@QAEXPAPAU?$_Tree_node@Ufile@CLocatorAPI@@PAX@1@@Z 0093e3a0 f i stdafx.obj
 0001:0003d3b0       ??$_Fn@V?$xalloc@U?$_Tree_node@Ufile@CLocatorAPI@@PAX@std@@@@@_Alloc_select@std@@SA?AV?$xalloc@U?$_Tree_node@Ufile@CLocatorAPI@@PAX@std@@@@U_Wrap_int@1@ABV2@@Z 0093e3b0 f i stdafx.obj
 0001:0003d3c0       ??$xr_free@Uarchive@CLocatorAPI@@@@YAXAAPAUarchive@CLocatorAPI@@@Z 0093e3c0 f i stdafx.obj
 0001:0003d3e0       ??$_Fn@V?$xalloc@Uarchive@CLocatorAPI@@@@@_Alloc_select@std@@SA?AV?$xalloc@Uarchive@CLocatorAPI@@@@U_Wrap_int@1@ABV2@@Z 0093e3e0 f i stdafx.obj
 0001:0003d3f0       ??$xr_free@U_finddata64i32_t@@@@YAXAAPAU_finddata64i32_t@@@Z 0093e3f0 f i stdafx.obj
 0001:0003d410       ??$_Fn@V?$xalloc@U_finddata64i32_t@@@@@_Alloc_select@std@@SA?AV?$xalloc@U_finddata64i32_t@@@@U_Wrap_int@1@ABV2@@Z 0093e410 f i stdafx.obj
 0001:0003d420       ??$addressof@PAU?$_Tree_node@U?$pair@$$CBVshared_str@@U_FILE_ACCESS_STAT@@@std@@PAX@std@@@std@@YAPAPAU?$_Tree_node@U?$pair@$$CBVshared_str@@U_FILE_ACCESS_STAT@@@std@@PAX@0@AAPAU10@@Z 0093e420 f i stdafx.obj
 0001:0003d430       ??$destroy@PAU?$_Tree_node@U?$pair@$$CBVshared_str@@U_FILE_ACCESS_STAT@@@std@@PAX@std@@@?$_Wrap_alloc@V?$xalloc@U?$_Tree_node@U?$pair@$$CBVshared_str@@U_FILE_ACCESS_STAT@@@std@@PAX@std@@@@@std@@QAEXPAPAU?$_Tree_node@U?$pair@$$CBVshared_str@@U_FILE_ACCESS_STAT@@@std@@PAX@1@@Z 0093e430 f i stdafx.obj
 0001:0003d440       ??$_Fn@V?$xalloc@U?$_Tree_node@U?$pair@$$CBVshared_str@@U_FILE_ACCESS_STAT@@@std@@PAX@std@@@@@_Alloc_select@std@@SA?AV?$xalloc@U?$_Tree_node@U?$pair@$$CBVshared_str@@U_FILE_ACCESS_STAT@@@std@@PAX@std@@@@U_Wrap_int@1@ABV2@@Z 0093e440 f i stdafx.obj
 0001:0003d450       ??$addressof@PAU?$_Tree_node@U?$pair@$$CBVshared_str@@V?$xr_vector@PAVIReader@@V?$xalloc@PAVIReader@@@@@@@std@@PAX@std@@@std@@YAPAPAU?$_Tree_node@U?$pair@$$CBVshared_str@@V?$xr_vector@PAVIReader@@V?$xalloc@PAVIReader@@@@@@@std@@PAX@0@AAPAU10@@Z 0093e450 f i stdafx.obj
 0001:0003d460       ??$destroy@PAU?$_Tree_node@U?$pair@$$CBVshared_str@@V?$xr_vector@PAVIReader@@V?$xalloc@PAVIReader@@@@@@@std@@PAX@std@@@?$_Wrap_alloc@V?$xalloc@U?$_Tree_node@U?$pair@$$CBVshared_str@@V?$xr_vector@PAVIReader@@V?$xalloc@PAVIReader@@@@@@@std@@PAX@std@@@@@std@@QAEXPAPAU?$_Tree_node@U?$pair@$$CBVshared_str@@V?$xr_vector@PAVIReader@@V?$xalloc@PAVIReader@@@@@@@std@@PAX@1@@Z 0093e460 f i stdafx.obj
 0001:0003d470       ??$_Fn@V?$xalloc@U?$_Tree_node@U?$pair@$$CBVshared_str@@V?$xr_vector@PAVIReader@@V?$xalloc@PAVIReader@@@@@@@std@@PAX@std@@@@@_Alloc_select@std@@SA?AV?$xalloc@U?$_Tree_node@U?$pair@$$CBVshared_str@@V?$xr_vector@PAVIReader@@V?$xalloc@PAVIReader@@@@@@@std@@PAX@std@@@@U_Wrap_int@1@ABV2@@Z 0093e470 f i stdafx.obj
 0001:0003d480       ??$addressof@PAU?$_Tree_node@U?$pair@$$CBV?$basic_string@DU?$char_traits@D@std@@V?$xalloc@D@@@std@@PAX@std@@PAX@std@@@std@@YAPAPAU?$_Tree_node@U?$pair@$$CBV?$basic_string@DU?$char_traits@D@std@@V?$xalloc@D@@@std@@PAX@std@@PAX@0@AAPAU10@@Z 0093e480 f i stdafx.obj
 0001:0003d490       ??$destroy@PAU?$_Tree_node@U?$pair@$$CBV?$basic_string@DU?$char_traits@D@std@@V?$xalloc@D@@@std@@PAX@std@@PAX@std@@@?$_Wrap_alloc@V?$xalloc@U?$_Tree_node@U?$pair@$$CBV?$basic_string@DU?$char_traits@D@std@@V?$xalloc@D@@@std@@PAX@std@@PAX@std@@@@@std@@QAEXPAPAU?$_Tree_node@U?$pair@$$CBV?$basic_string@DU?$char_traits@D@std@@V?$xalloc@D@@@std@@PAX@std@@PAX@1@@Z 0093e490 f i stdafx.obj
 0001:0003d4a0       ??$_Fn@V?$xalloc@U?$_Tree_node@U?$pair@$$CBV?$basic_string@DU?$char_traits@D@std@@V?$xalloc@D@@@std@@PAX@std@@PAX@std@@@@@_Alloc_select@std@@SA?AV?$xalloc@U?$_Tree_node@U?$pair@$$CBV?$basic_string@DU?$char_traits@D@std@@V?$xalloc@D@@@std@@PAX@std@@PAX@std@@@@U_Wrap_int@1@ABV2@@Z 0093e4a0 f i stdafx.obj
 0001:0003d4b0       ??$_Fn@V?$xalloc@PAVCTimer_paused@@@@@_Alloc_select@std@@SA?AV?$xalloc@PAVCTimer_paused@@@@U_Wrap_int@1@ABV2@@Z 0093e4b0 f i stdafx.obj
 0001:0003d4c0       ??$xr_alloc@I@@YAPAII@Z    0093e4c0 f i stdafx.obj
 0001:0003d4e0       ??$xr_alloc@PAUsmem_value@@@@YAPAPAUsmem_value@@I@Z 0093e4e0 f i stdafx.obj
 0001:0003d500       ??$swap@D@std@@YAXAAD0@Z   0093e500 f i stdafx.obj
 0001:0003d510       ??$addressof@PAUstr_value@@@std@@YAPAPAUstr_value@@AAPAU1@@Z 0093e510 f i stdafx.obj
 0001:0003d520       ??$destroy@PAUstr_value@@@?$_Wrap_alloc@V?$xalloc@U?$_Tree_node@PAUstr_value@@PAX@std@@@@@std@@QAEXPAPAUstr_value@@@Z 0093e520 f i stdafx.obj
 0001:0003d530       ??$construct@PADAAPAD@?$_Wrap_alloc@V?$xalloc@D@@@std@@QAEXPAPADAAPAD@Z 0093e530 f i stdafx.obj
 0001:0003d580       ??$xr_alloc@UItem@CInifile@@@@YAPAUItem@CInifile@@I@Z 0093e580 f i stdafx.obj
 0001:0003d5a0       ??$addressof@U?$pair@$$CBVshared_str@@PAUSect@CInifile@@@std@@@std@@YAPAU?$pair@$$CBVshared_str@@PAUSect@CInifile@@@0@AAU10@@Z 0093e5a0 f i stdafx.obj
 0001:0003d5b0       ??$destroy@U?$pair@$$CBVshared_str@@PAUSect@CInifile@@@std@@@?$_Wrap_alloc@V?$xalloc@U?$_Tree_node@U?$pair@$$CBVshared_str@@PAUSect@CInifile@@@std@@PAX@std@@@@@std@@QAEXPAU?$pair@$$CBVshared_str@@PAUSect@CInifile@@@1@@Z 0093e5b0 f i stdafx.obj
 0001:0003d600       ??$addressof@U?$pair@$$CBVshared_str@@V1@@std@@@std@@YAPAU?$pair@$$CBVshared_str@@V1@@0@AAU10@@Z 0093e600 f i stdafx.obj
 0001:0003d610       ??$destroy@U?$pair@$$CBVshared_str@@V1@@std@@@?$_Wrap_alloc@V?$xalloc@U?$_Tree_node@U?$pair@$$CBVshared_str@@V1@@std@@PAX@std@@@@@std@@QAEXPAU?$pair@$$CBVshared_str@@V1@@1@@Z 0093e610 f i stdafx.obj
 0001:0003d680       ??$addressof@U?$pair@QBDPAVFS_Path@@@std@@@std@@YAPAU?$pair@QBDPAVFS_Path@@@0@AAU10@@Z 0093e680 f i stdafx.obj
 0001:0003d690       ??$destroy@U?$pair@QBDPAVFS_Path@@@std@@@?$_Wrap_alloc@V?$xalloc@U?$_Tree_node@U?$pair@QBDPAVFS_Path@@@std@@PAX@std@@@@@std@@QAEXPAU?$pair@QBDPAVFS_Path@@@1@@Z 0093e690 f i stdafx.obj
 0001:0003d6a0       ??$addressof@Ufile@CLocatorAPI@@@std@@YAPAUfile@CLocatorAPI@@AAU12@@Z 0093e6a0 f i stdafx.obj
 0001:0003d6b0       ??$destroy@Ufile@CLocatorAPI@@@?$_Wrap_alloc@V?$xalloc@U?$_Tree_node@Ufile@CLocatorAPI@@PAX@std@@@@@std@@QAEXPAUfile@CLocatorAPI@@@Z 0093e6b0 f i stdafx.obj
 0001:0003d6c0       ??$xr_alloc@Uarchive@CLocatorAPI@@@@YAPAUarchive@CLocatorAPI@@I@Z 0093e6c0 f i stdafx.obj
 0001:0003d6e0       ??$xr_alloc@U_finddata64i32_t@@@@YAPAU_finddata64i32_t@@I@Z 0093e6e0 f i stdafx.obj
 0001:0003d700       ??$addressof@U?$pair@$$CBVshared_str@@U_FILE_ACCESS_STAT@@@std@@@std@@YAPAU?$pair@$$CBVshared_str@@U_FILE_ACCESS_STAT@@@0@AAU10@@Z 0093e700 f i stdafx.obj
 0001:0003d710       ??$destroy@U?$pair@$$CBVshared_str@@U_FILE_ACCESS_STAT@@@std@@@?$_Wrap_alloc@V?$xalloc@U?$_Tree_node@U?$pair@$$CBVshared_str@@U_FILE_ACCESS_STAT@@@std@@PAX@std@@@@@std@@QAEXPAU?$pair@$$CBVshared_str@@U_FILE_ACCESS_STAT@@@1@@Z 0093e710 f i stdafx.obj
 0001:0003d760       ??$addressof@U?$pair@$$CBVshared_str@@V?$xr_vector@PAVIReader@@V?$xalloc@PAVIReader@@@@@@@std@@@std@@YAPAU?$pair@$$CBVshared_str@@V?$xr_vector@PAVIReader@@V?$xalloc@PAVIReader@@@@@@@0@AAU10@@Z 0093e760 f i stdafx.obj
 0001:0003d770       ??$destroy@U?$pair@$$CBVshared_str@@V?$xr_vector@PAVIReader@@V?$xalloc@PAVIReader@@@@@@@std@@@?$_Wrap_alloc@V?$xalloc@U?$_Tree_node@U?$pair@$$CBVshared_str@@V?$xr_vector@PAVIReader@@V?$xalloc@PAVIReader@@@@@@@std@@PAX@std@@@@@std@@QAEXPAU?$pair@$$CBVshared_str@@V?$xr_vector@PAVIReader@@V?$xalloc@PAVIReader@@@@@@@1@@Z 0093e770 f i stdafx.obj
 0001:0003d780       ??$addressof@U?$pair@$$CBV?$basic_string@DU?$char_traits@D@std@@V?$xalloc@D@@@std@@PAX@std@@@std@@YAPAU?$pair@$$CBV?$basic_string@DU?$char_traits@D@std@@V?$xalloc@D@@@std@@PAX@0@AAU10@@Z 0093e780 f i stdafx.obj
 0001:0003d790       ??$destroy@U?$pair@$$CBV?$basic_string@DU?$char_traits@D@std@@V?$xalloc@D@@@std@@PAX@std@@@?$_Wrap_alloc@V?$xalloc@U?$_Tree_node@U?$pair@$$CBV?$basic_string@DU?$char_traits@D@std@@V?$xalloc@D@@@std@@PAX@std@@PAX@std@@@@@std@@QAEXPAU?$pair@$$CBV?$basic_string@DU?$char_traits@D@std@@V?$xalloc@D@@@std@@PAX@1@@Z 0093e790 f i stdafx.obj
 0001:0003d7f0       ??$_Fn@V?$xalloc@I@@@_Alloc_max_size@std@@SAIHABV?$xalloc@I@@@Z 0093e7f0 f i stdafx.obj
 0001:0003d800       ??$_Fn@V?$xalloc@PAUsmem_value@@@@@_Alloc_max_size@std@@SAIHABV?$xalloc@PAUsmem_value@@@@@Z 0093e800 f i stdafx.obj
 0001:0003d810       ??$xr_free@U?$_Tree_node@PAUstr_value@@PAX@std@@@@YAXAAPAU?$_Tree_node@PAUstr_value@@PAX@std@@@Z 0093e810 f i stdafx.obj
 0001:0003d830       ??$_Fn@V?$xalloc@UItem@CInifile@@@@@_Alloc_max_size@std@@SAIHABV?$xalloc@UItem@CInifile@@@@@Z 0093e830 f i stdafx.obj
 0001:0003d840       ??$xr_free@U?$_Tree_node@U?$pair@$$CBVshared_str@@PAUSect@CInifile@@@std@@PAX@std@@@@YAXAAPAU?$_Tree_node@U?$pair@$$CBVshared_str@@PAUSect@CInifile@@@std@@PAX@std@@@Z 0093e840 f i stdafx.obj
 0001:0003d860       ??$xr_free@U?$_Tree_node@U?$pair@$$CBVshared_str@@V1@@std@@PAX@std@@@@YAXAAPAU?$_Tree_node@U?$pair@$$CBVshared_str@@V1@@std@@PAX@std@@@Z 0093e860 f i stdafx.obj
 0001:0003d880       ??$xr_free@U?$_Tree_node@U?$pair@QBDPAVFS_Path@@@std@@PAX@std@@@@YAXAAPAU?$_Tree_node@U?$pair@QBDPAVFS_Path@@@std@@PAX@std@@@Z 0093e880 f i stdafx.obj
 0001:0003d8a0       ??$xr_free@U?$_Tree_node@Ufile@CLocatorAPI@@PAX@std@@@@YAXAAPAU?$_Tree_node@Ufile@CLocatorAPI@@PAX@std@@@Z 0093e8a0 f i stdafx.obj
 0001:0003d8c0       ??$_Fn@V?$xalloc@Uarchive@CLocatorAPI@@@@@_Alloc_max_size@std@@SAIHABV?$xalloc@Uarchive@CLocatorAPI@@@@@Z 0093e8c0 f i stdafx.obj
 0001:0003d8d0       ??$_Fn@V?$xalloc@U_finddata64i32_t@@@@@_Alloc_max_size@std@@SAIHABV?$xalloc@U_finddata64i32_t@@@@@Z 0093e8d0 f i stdafx.obj
 0001:0003d8e0       ??$xr_free@U?$_Tree_node@U?$pair@$$CBVshared_str@@U_FILE_ACCESS_STAT@@@std@@PAX@std@@@@YAXAAPAU?$_Tree_node@U?$pair@$$CBVshared_str@@U_FILE_ACCESS_STAT@@@std@@PAX@std@@@Z 0093e8e0 f i stdafx.obj
 0001:0003d900       ??$xr_free@U?$_Tree_node@U?$pair@$$CBVshared_str@@V?$xr_vector@PAVIReader@@V?$xalloc@PAVIReader@@@@@@@std@@PAX@std@@@@YAXAAPAU?$_Tree_node@U?$pair@$$CBVshared_str@@V?$xr_vector@PAVIReader@@V?$xalloc@PAVIReader@@@@@@@std@@PAX@std@@@Z 0093e900 f i stdafx.obj
 0001:0003d920       ??$xr_free@U?$_Tree_node@U?$pair@$$CBV?$basic_string@DU?$char_traits@D@std@@V?$xalloc@D@@@std@@PAX@std@@PAX@std@@@@YAXAAPAU?$_Tree_node@U?$pair@$$CBV?$basic_string@DU?$char_traits@D@std@@V?$xalloc@D@@@std@@PAX@std@@PAX@std@@@Z 0093e920 f i stdafx.obj
 0001:0003d940       ??$_Allocate@D@std@@YAPADIPAD@Z 0093e940 f i stdafx.obj
 0001:0003d970       ??$construct@PAU?$_Tree_node@PAUstr_value@@PAX@std@@AAPAU12@@?$_Wrap_alloc@V?$xalloc@U?$_Tree_node@PAUstr_value@@PAX@std@@@@@std@@QAEXPAPAU?$_Tree_node@PAUstr_value@@PAX@1@AAPAU21@@Z 0093e970 f i stdafx.obj
 0001:0003d9c0       ??$xr_alloc@D@@YAPADI@Z    0093e9c0 f i stdafx.obj
 0001:0003d9d0       ??$_Fn@V?$xalloc@D@@@_Alloc_max_size@std@@SAIHABV?$xalloc@D@@@Z 0093e9d0 f i stdafx.obj
 0001:0003d9e0       ??$construct@PAU?$_Tree_node@U?$pair@$$CBVshared_str@@PAUSect@CInifile@@@std@@PAX@std@@AAPAU12@@?$_Wrap_alloc@V?$xalloc@U?$_Tree_node@U?$pair@$$CBVshared_str@@PAUSect@CInifile@@@std@@PAX@std@@@@@std@@QAEXPAPAU?$_Tree_node@U?$pair@$$CBVshared_str@@PAUSect@CInifile@@@std@@PAX@1@AAPAU21@@Z 0093e9e0 f i stdafx.obj
 0001:0003da30       ??$construct@PAU?$_Tree_node@U?$pair@$$CBVshared_str@@V1@@std@@PAX@std@@AAPAU12@@?$_Wrap_alloc@V?$xalloc@U?$_Tree_node@U?$pair@$$CBVshared_str@@V1@@std@@PAX@std@@@@@std@@QAEXPAPAU?$_Tree_node@U?$pair@$$CBVshared_str@@V1@@std@@PAX@1@AAPAU21@@Z 0093ea30 f i stdafx.obj
 0001:0003da80       ??$construct@PAU?$_Tree_node@U?$pair@QBDPAVFS_Path@@@std@@PAX@std@@AAPAU12@@?$_Wrap_alloc@V?$xalloc@U?$_Tree_node@U?$pair@QBDPAVFS_Path@@@std@@PAX@std@@@@@std@@QAEXPAPAU?$_Tree_node@U?$pair@QBDPAVFS_Path@@@std@@PAX@1@AAPAU21@@Z 0093ea80 f i stdafx.obj
 0001:0003dad0       ??$construct@PAU?$_Tree_node@Ufile@CLocatorAPI@@PAX@std@@AAPAU12@@?$_Wrap_alloc@V?$xalloc@U?$_Tree_node@Ufile@CLocatorAPI@@PAX@std@@@@@std@@QAEXPAPAU?$_Tree_node@Ufile@CLocatorAPI@@PAX@1@AAPAU21@@Z 0093ead0 f i stdafx.obj
 0001:0003db20       ??$construct@PAU?$_Tree_node@U?$pair@$$CBVshared_str@@U_FILE_ACCESS_STAT@@@std@@PAX@std@@AAPAU12@@?$_Wrap_alloc@V?$xalloc@U?$_Tree_node@U?$pair@$$CBVshared_str@@U_FILE_ACCESS_STAT@@@std@@PAX@std@@@@@std@@QAEXPAPAU?$_Tree_node@U?$pair@$$CBVshared_str@@U_FILE_ACCESS_STAT@@@std@@PAX@1@AAPAU21@@Z 0093eb20 f i stdafx.obj
 0001:0003db70       ??$construct@PAU?$_Tree_node@U?$pair@$$CBVshared_str@@V?$xr_vector@PAVIReader@@V?$xalloc@PAVIReader@@@@@@@std@@PAX@std@@AAPAU12@@?$_Wrap_alloc@V?$xalloc@U?$_Tree_node@U?$pair@$$CBVshared_str@@V?$xr_vector@PAVIReader@@V?$xalloc@PAVIReader@@@@@@@std@@PAX@std@@@@@std@@QAEXPAPAU?$_Tree_node@U?$pair@$$CBVshared_str@@V?$xr_vector@PAVIReader@@V?$xalloc@PAVIReader@@@@@@@std@@PAX@1@AAPAU21@@Z 0093eb70 f i stdafx.obj
 0001:0003dbc0       ??$construct@PAU?$_Tree_node@U?$pair@$$CBV?$basic_string@DU?$char_traits@D@std@@V?$xalloc@D@@@std@@PAX@std@@PAX@std@@AAPAU12@@?$_Wrap_alloc@V?$xalloc@U?$_Tree_node@U?$pair@$$CBV?$basic_string@DU?$char_traits@D@std@@V?$xalloc@D@@@std@@PAX@std@@PAX@std@@@@@std@@QAEXPAPAU?$_Tree_node@U?$pair@$$CBV?$basic_string@DU?$char_traits@D@std@@V?$xalloc@D@@@std@@PAX@std@@PAX@1@AAPAU21@@Z 0093ebc0 f i stdafx.obj
 0001:0003dc10       ??$xr_alloc@U?$_Tree_node@PAUstr_value@@PAX@std@@@@YAPAU?$_Tree_node@PAUstr_value@@PAX@std@@I@Z 0093ec10 f i stdafx.obj
 0001:0003dc30       ??$xr_alloc@U?$_Tree_node@U?$pair@$$CBVshared_str@@PAUSect@CInifile@@@std@@PAX@std@@@@YAPAU?$_Tree_node@U?$pair@$$CBVshared_str@@PAUSect@CInifile@@@std@@PAX@std@@I@Z 0093ec30 f i stdafx.obj
 0001:0003dc40       ??$xr_alloc@U?$_Tree_node@U?$pair@$$CBVshared_str@@V1@@std@@PAX@std@@@@YAPAU?$_Tree_node@U?$pair@$$CBVshared_str@@V1@@std@@PAX@std@@I@Z 0093ec40 f i stdafx.obj
 0001:0003dc50       ??$xr_alloc@U?$_Tree_node@U?$pair@QBDPAVFS_Path@@@std@@PAX@std@@@@YAPAU?$_Tree_node@U?$pair@QBDPAVFS_Path@@@std@@PAX@std@@I@Z 0093ec50 f i stdafx.obj
 0001:0003dc60       ??$xr_alloc@U?$_Tree_node@Ufile@CLocatorAPI@@PAX@std@@@@YAPAU?$_Tree_node@Ufile@CLocatorAPI@@PAX@std@@I@Z 0093ec60 f i stdafx.obj
 0001:0003dc70       ??$xr_alloc@U?$_Tree_node@U?$pair@$$CBVshared_str@@U_FILE_ACCESS_STAT@@@std@@PAX@std@@@@YAPAU?$_Tree_node@U?$pair@$$CBVshared_str@@U_FILE_ACCESS_STAT@@@std@@PAX@std@@I@Z 0093ec70 f i stdafx.obj
 0001:0003dc80       ??$xr_alloc@U?$_Tree_node@U?$pair@$$CBVshared_str@@V?$xr_vector@PAVIReader@@V?$xalloc@PAVIReader@@@@@@@std@@PAX@std@@@@YAPAU?$_Tree_node@U?$pair@$$CBVshared_str@@V?$xr_vector@PAVIReader@@V?$xalloc@PAVIReader@@@@@@@std@@PAX@std@@I@Z 0093ec80 f i stdafx.obj
 0001:0003dc90       ??$xr_alloc@U?$_Tree_node@U?$pair@$$CBV?$basic_string@DU?$char_traits@D@std@@V?$xalloc@D@@@std@@PAX@std@@PAX@std@@@@YAPAU?$_Tree_node@U?$pair@$$CBV?$basic_string@DU?$char_traits@D@std@@V?$xalloc@D@@@std@@PAX@std@@PAX@std@@I@Z 0093ec90 f i stdafx.obj
 0001:0003dca0       ?max_size@?$xalloc@I@@QBEIXZ 0093eca0 f i stdafx.obj
 0001:0003dcb0       ?max_size@?$xalloc@PAUsmem_value@@@@QBEIXZ 0093ecb0 f i stdafx.obj
 0001:0003dcc0       ?size@?$_Tree@V?$_Tset_traits@PAUstr_value@@Ustr_value_cmp@@V?$xalloc@PAUstr_value@@@@$00@std@@@std@@QBEIXZ 0093ecc0 f i stdafx.obj
 0001:0003dcd0       ?max_size@?$xalloc@D@@QBEIXZ 0093ecd0 f i stdafx.obj
 0001:0003dce0       ?max_size@?$xalloc@UItem@CInifile@@@@QBEIXZ 0093ece0 f i stdafx.obj
 0001:0003dcf0       ?size@?$_Tree@V?$_Tmap_traits@Vshared_str@@PAUSect@CInifile@@U?$less@Vshared_str@@@std@@V?$xalloc@U?$pair@Vshared_str@@PAUSect@CInifile@@@std@@@@$0A@@std@@@std@@QBEIXZ 0093ecf0 f i stdafx.obj
 0001:0003dd00       ?size@?$_Tree@V?$_Tmap_traits@Vshared_str@@V1@U?$less@Vshared_str@@@std@@V?$xalloc@U?$pair@Vshared_str@@V1@@std@@@@$0A@@std@@@std@@QBEIXZ 0093ed00 f i stdafx.obj
 0001:0003dd10       ?size@?$_Tree@V?$_Tmap_traits@PBDPAVFS_Path@@Upred_str@@V?$xalloc@U?$pair@PBDPAVFS_Path@@@std@@@@$0A@@std@@@std@@QBEIXZ 0093ed10 f i stdafx.obj
 0001:0003dd20       ?size@?$_Tree@V?$_Tset_traits@Ufile@CLocatorAPI@@Ufile_pred@2@V?$xalloc@Ufile@CLocatorAPI@@@@$0A@@std@@@std@@QBEIXZ 0093ed20 f i stdafx.obj
 0001:0003dd30       ?max_size@?$xalloc@Uarchive@CLocatorAPI@@@@QBEIXZ 0093ed30 f i stdafx.obj
 0001:0003dd40       ?max_size@?$xalloc@U_finddata64i32_t@@@@QBEIXZ 0093ed40 f i stdafx.obj
 0001:0003dd50       ?size@?$_Tree@V?$_Tmap_traits@Vshared_str@@U_FILE_ACCESS_STAT@@U?$less@Vshared_str@@@std@@V?$xalloc@U?$pair@Vshared_str@@U_FILE_ACCESS_STAT@@@std@@@@$0A@@std@@@std@@QBEIXZ 0093ed50 f i stdafx.obj
 0001:0003dd60       ?size@?$_Tree@V?$_Tmap_traits@Vshared_str@@V?$xr_vector@PAVIReader@@V?$xalloc@PAVIReader@@@@@@U?$less@Vshared_str@@@std@@V?$xalloc@U?$pair@Vshared_str@@V?$xr_vector@PAVIReader@@V?$xalloc@PAVIReader@@@@@@@std@@@@$0A@@std@@@std@@QBEIXZ 0093ed60 f i stdafx.obj
 0001:0003dd70       ?size@?$_Tree@V?$_Tmap_traits@V?$basic_string@DU?$char_traits@D@std@@V?$xalloc@D@@@std@@PAXU?$less@V?$basic_string@DU?$char_traits@D@std@@V?$xalloc@D@@@std@@@2@V?$xalloc@U?$pair@V?$basic_string@DU?$char_traits@D@std@@V?$xalloc@D@@@std@@PAX@std@@@@$0A@@std@@@std@@QBEIXZ 0093ed70 f i stdafx.obj
 0001:0003dd80       ??R?$xr_special_free@$00VCResourceDesc@@@@QAEXAAPAVCResourceDesc@@@Z 0093ed80 f i stdafx.obj
 0001:0003ddb0       ??$_Uninitialized_copy@V?$_Vector_const_iterator@V?$_Vector_val@U?$_Simple_types@I@std@@@std@@@std@@PAIU?$_Wrap_alloc@V?$xalloc@I@@@2@@std@@YAPAIV?$_Vector_const_iterator@V?$_Vector_val@U?$_Simple_types@I@std@@@std@@@0@0PAIAAU?$_Wrap_alloc@V?$xalloc@I@@@0@@Z 0093edb0 f i stdafx.obj
 0001:0003ddd0       ??$?8V?$xalloc@I@@V0@@std@@YA_NABU?$_Wrap_alloc@V?$xalloc@I@@@0@0@Z 0093edd0 f i stdafx.obj
 0001:0003dde0       ??$_Ptr_cat@II@std@@YA?AU_Scalar_ptr_iterator_tag@0@PAI0@Z 0093ede0 f i stdafx.obj
 0001:0003ddf0       ??$_Copy_impl@PAIPAI@std@@YAPAIPAI00U_Scalar_ptr_iterator_tag@0@@Z 0093edf0 f i stdafx.obj
 0001:0003de20       ??$_Uninitialized_copy@PAIPAIU?$_Wrap_alloc@V?$xalloc@I@@@std@@@std@@YAPAIPAI00AAU?$_Wrap_alloc@V?$xalloc@I@@@0@@Z 0093ee20 f i stdafx.obj
 0001:0003de40       ??$_Uninitialized_copy@V?$_Vector_const_iterator@V?$_Vector_val@U?$_Simple_types@PAUsmem_value@@@std@@@std@@@std@@PAPAUsmem_value@@U?$_Wrap_alloc@V?$xalloc@PAUsmem_value@@@@@2@@std@@YAPAPAUsmem_value@@V?$_Vector_const_iterator@V?$_Vector_val@U?$_Simple_types@PAUsmem_value@@@std@@@std@@@0@0PAPAU1@AAU?$_Wrap_alloc@V?$xalloc@PAUsmem_value@@@@@0@@Z 0093ee40 f i stdafx.obj
 0001:0003de60       ??$?8V?$xalloc@PAUsmem_value@@@@V0@@std@@YA_NABU?$_Wrap_alloc@V?$xalloc@PAUsmem_value@@@@@0@0@Z 0093ee60 f i stdafx.obj
 0001:0003de70       ??$_Ptr_cat@PAUsmem_value@@PAU1@@std@@YA?AU_Scalar_ptr_iterator_tag@0@PAPAUsmem_value@@0@Z 0093ee70 f i stdafx.obj
 0001:0003de80       ??$_Copy_impl@PAPAUsmem_value@@PAPAU1@@std@@YAPAPAUsmem_value@@PAPAU1@00U_Scalar_ptr_iterator_tag@0@@Z 0093ee80 f i stdafx.obj
 0001:0003deb0       ??$_Uninitialized_copy@PAPAUsmem_value@@PAPAU1@U?$_Wrap_alloc@V?$xalloc@PAUsmem_value@@@@@std@@@std@@YAPAPAUsmem_value@@PAPAU1@00AAU?$_Wrap_alloc@V?$xalloc@PAUsmem_value@@@@@0@@Z 0093eeb0 f i stdafx.obj
 0001:0003ded0       ??$?8V?$xalloc@D@@V0@@std@@YA_NABU?$_Wrap_alloc@V?$xalloc@D@@@0@0@Z 0093eed0 f i stdafx.obj
 0001:0003dee0       ??$_Uninitialized_copy@V?$_Vector_const_iterator@V?$_Vector_val@U?$_Simple_types@UItem@CInifile@@@std@@@std@@@std@@PAUItem@CInifile@@U?$_Wrap_alloc@V?$xalloc@UItem@CInifile@@@@@2@@std@@YAPAUItem@CInifile@@V?$_Vector_const_iterator@V?$_Vector_val@U?$_Simple_types@UItem@CInifile@@@std@@@std@@@0@0PAU12@AAU?$_Wrap_alloc@V?$xalloc@UItem@CInifile@@@@@0@@Z 0093eee0 f i stdafx.obj
 0001:0003df00       ??$?8V?$xalloc@UItem@CInifile@@@@V0@@std@@YA_NABU?$_Wrap_alloc@V?$xalloc@UItem@CInifile@@@@@0@0@Z 0093ef00 f i stdafx.obj
 0001:0003df10       ??$_Ptr_cat@UItem@CInifile@@U12@@std@@YA?AU_Nonscalar_ptr_iterator_tag@0@PAUItem@CInifile@@0@Z 0093ef10 f i stdafx.obj
 0001:0003df20       ??$_Copy_impl@PAUItem@CInifile@@PAU12@@std@@YAPAUItem@CInifile@@PAU12@00U_Nonscalar_ptr_iterator_tag@0@@Z 0093ef20 f i stdafx.obj
 0001:0003df80       ??$_Uninitialized_copy@PAUItem@CInifile@@PAU12@U?$_Wrap_alloc@V?$xalloc@UItem@CInifile@@@@@std@@@std@@YAPAUItem@CInifile@@PAU12@00AAU?$_Wrap_alloc@V?$xalloc@UItem@CInifile@@@@@0@@Z 0093ef80 f i stdafx.obj
 0001:0003dfa0       ??$_Uninitialized_copy@V?$_Vector_const_iterator@V?$_Vector_val@U?$_Simple_types@Uarchive@CLocatorAPI@@@std@@@std@@@std@@PAUarchive@CLocatorAPI@@U?$_Wrap_alloc@V?$xalloc@Uarchive@CLocatorAPI@@@@@2@@std@@YAPAUarchive@CLocatorAPI@@V?$_Vector_const_iterator@V?$_Vector_val@U?$_Simple_types@Uarchive@CLocatorAPI@@@std@@@std@@@0@0PAU12@AAU?$_Wrap_alloc@V?$xalloc@Uarchive@CLocatorAPI@@@@@0@@Z 0093efa0 f i stdafx.obj
 0001:0003dfc0       ??$?8V?$xalloc@Uarchive@CLocatorAPI@@@@V0@@std@@YA_NABU?$_Wrap_alloc@V?$xalloc@Uarchive@CLocatorAPI@@@@@0@0@Z 0093efc0 f i stdafx.obj
 0001:0003dfd0       ??$_Ptr_cat@Uarchive@CLocatorAPI@@U12@@std@@YA?AU_Nonscalar_ptr_iterator_tag@0@PAUarchive@CLocatorAPI@@0@Z 0093efd0 f i stdafx.obj
 0001:0003dfe0       ??$_Copy_impl@PAUarchive@CLocatorAPI@@PAU12@@std@@YAPAUarchive@CLocatorAPI@@PAU12@00U_Nonscalar_ptr_iterator_tag@0@@Z 0093efe0 f i stdafx.obj
 0001:0003e040       ??$_Uninitialized_copy@PAUarchive@CLocatorAPI@@PAU12@U?$_Wrap_alloc@V?$xalloc@Uarchive@CLocatorAPI@@@@@std@@@std@@YAPAUarchive@CLocatorAPI@@PAU12@00AAU?$_Wrap_alloc@V?$xalloc@Uarchive@CLocatorAPI@@@@@0@@Z 0093f040 f i stdafx.obj
 0001:0003e060       ??$_Uninitialized_copy@V?$_Vector_const_iterator@V?$_Vector_val@U?$_Simple_types@U_finddata64i32_t@@@std@@@std@@@std@@PAU_finddata64i32_t@@U?$_Wrap_alloc@V?$xalloc@U_finddata64i32_t@@@@@2@@std@@YAPAU_finddata64i32_t@@V?$_Vector_const_iterator@V?$_Vector_val@U?$_Simple_types@U_finddata64i32_t@@@std@@@std@@@0@0PAU1@AAU?$_Wrap_alloc@V?$xalloc@U_finddata64i32_t@@@@@0@@Z 0093f060 f i stdafx.obj
 0001:0003e080       ??$?8V?$xalloc@U_finddata64i32_t@@@@V0@@std@@YA_NABU?$_Wrap_alloc@V?$xalloc@U_finddata64i32_t@@@@@0@0@Z 0093f080 f i stdafx.obj
 0001:0003e090       ??$_Ptr_cat@U_finddata64i32_t@@U1@@std@@YA?AU_Nonscalar_ptr_iterator_tag@0@PAU_finddata64i32_t@@0@Z 0093f090 f i stdafx.obj
 0001:0003e0a0       ??$_Copy_impl@PAU_finddata64i32_t@@PAU1@@std@@YAPAU_finddata64i32_t@@PAU1@00U_Nonscalar_ptr_iterator_tag@0@@Z 0093f0a0 f i stdafx.obj
 0001:0003e0e0       ??$_Uninitialized_copy@PAU_finddata64i32_t@@PAU1@U?$_Wrap_alloc@V?$xalloc@U_finddata64i32_t@@@@@std@@@std@@YAPAU_finddata64i32_t@@PAU1@00AAU?$_Wrap_alloc@V?$xalloc@U_finddata64i32_t@@@@@0@@Z 0093f0e0 f i stdafx.obj
 0001:0003e100       ??$_Uninitialized_copy@V?$_Vector_const_iterator@V?$_Vector_val@U?$_Simple_types@PAVCTimer_paused@@@std@@@std@@@std@@PAPAVCTimer_paused@@U?$_Wrap_alloc@V?$xalloc@PAVCTimer_paused@@@@@2@@std@@YAPAPAVCTimer_paused@@V?$_Vector_const_iterator@V?$_Vector_val@U?$_Simple_types@PAVCTimer_paused@@@std@@@std@@@0@0PAPAV1@AAU?$_Wrap_alloc@V?$xalloc@PAVCTimer_paused@@@@@0@@Z 0093f100 f i stdafx.obj
 0001:0003e120       ??$?8V?$xalloc@PAVCTimer_paused@@@@V0@@std@@YA_NABU?$_Wrap_alloc@V?$xalloc@PAVCTimer_paused@@@@@0@0@Z 0093f120 f i stdafx.obj
 0001:0003e130       ??$_Copy_impl@PAPAVCTimer_paused@@PAPAV1@@std@@YAPAPAVCTimer_paused@@PAPAV1@00U_Scalar_ptr_iterator_tag@0@@Z 0093f130 f i stdafx.obj
 0001:0003e160       ??$_Uninitialized_copy@PAPAVCTimer_paused@@PAPAV1@U?$_Wrap_alloc@V?$xalloc@PAVCTimer_paused@@@@@std@@@std@@YAPAPAVCTimer_paused@@PAPAV1@00AAU?$_Wrap_alloc@V?$xalloc@PAVCTimer_paused@@@@@0@@Z 0093f160 f i stdafx.obj
 0001:0003e180       ??$forward@AAPAD@std@@YAAAPADAAPAD@Z 0093f180 f i stdafx.obj
 0001:0003e190       ??$construct@PADAAPAD@?$allocator_traits@V?$allocator@D@std@@@std@@SAXAAV?$allocator@D@1@PAPADAAPAD@Z 0093f190 f i stdafx.obj
 0001:0003e1d0       ??$destroy@PAD@?$allocator_traits@V?$allocator@D@std@@@std@@SAXAAV?$allocator@D@1@PAPAD@Z 0093f1d0 f i stdafx.obj
 0001:0003e1e0       ??$_Destroy_range@U?$_Wrap_alloc@V?$xalloc@I@@@std@@@std@@YAXPAI0AAU?$_Wrap_alloc@V?$xalloc@I@@@0@U_Scalar_ptr_iterator_tag@0@@Z 0093f1e0 f i stdafx.obj
 0001:0003e1f0       ??$_Destroy_range@U?$_Wrap_alloc@V?$xalloc@PAUsmem_value@@@@@std@@@std@@YAXPAPAUsmem_value@@0AAU?$_Wrap_alloc@V?$xalloc@PAUsmem_value@@@@@0@U_Scalar_ptr_iterator_tag@0@@Z 0093f1f0 f i stdafx.obj
 0001:0003e200       ??$_Copy_nodes@U?$integral_constant@_N$0A@@std@@@?$_Tree@V?$_Tset_traits@PAUstr_value@@Ustr_value_cmp@@V?$xalloc@PAUstr_value@@@@$00@std@@@std@@IAEPAU?$_Tree_node@PAUstr_value@@PAX@1@PAU21@0U?$integral_constant@_N$0A@@1@@Z 0093f200 f i stdafx.obj
 0001:0003e2c0       ??$?8V?$xalloc@U?$_Tree_node@PAUstr_value@@PAX@std@@@@V0@@std@@YA_NABU?$_Wrap_alloc@V?$xalloc@U?$_Tree_node@PAUstr_value@@PAX@std@@@@@0@0@Z 0093f2c0 f i stdafx.obj
 0001:0003e2d0       ??$destroy@PAD@?$allocator_traits@V?$xalloc@D@@@std@@SAXAAV?$xalloc@D@@PAPAD@Z 0093f2d0 f i stdafx.obj
 0001:0003e2e0       ??$_Destroy_range@U?$_Wrap_alloc@V?$xalloc@UItem@CInifile@@@@@std@@@std@@YAXPAUItem@CInifile@@0AAU?$_Wrap_alloc@V?$xalloc@UItem@CInifile@@@@@0@U_Nonscalar_ptr_iterator_tag@0@@Z 0093f2e0 f i stdafx.obj
 0001:0003e360       ??$_Copy_nodes@U?$integral_constant@_N$0A@@std@@@?$_Tree@V?$_Tmap_traits@Vshared_str@@PAUSect@CInifile@@U?$less@Vshared_str@@@std@@V?$xalloc@U?$pair@Vshared_str@@PAUSect@CInifile@@@std@@@@$0A@@std@@@std@@IAEPAU?$_Tree_node@U?$pair@$$CBVshared_str@@PAUSect@CInifile@@@std@@PAX@1@PAU21@0U?$integral_constant@_N$0A@@1@@Z 0093f360 f i stdafx.obj
 0001:0003e420       ??$?8V?$xalloc@U?$_Tree_node@U?$pair@$$CBVshared_str@@PAUSect@CInifile@@@std@@PAX@std@@@@V0@@std@@YA_NABU?$_Wrap_alloc@V?$xalloc@U?$_Tree_node@U?$pair@$$CBVshared_str@@PAUSect@CInifile@@@std@@PAX@std@@@@@0@0@Z 0093f420 f i stdafx.obj
 0001:0003e430       ??$_Copy_nodes@U?$integral_constant@_N$0A@@std@@@?$_Tree@V?$_Tmap_traits@Vshared_str@@V1@U?$less@Vshared_str@@@std@@V?$xalloc@U?$pair@Vshared_str@@V1@@std@@@@$0A@@std@@@std@@IAEPAU?$_Tree_node@U?$pair@$$CBVshared_str@@V1@@std@@PAX@1@PAU21@0U?$integral_constant@_N$0A@@1@@Z 0093f430 f i stdafx.obj
 0001:0003e4f0       ??$?8V?$xalloc@U?$_Tree_node@U?$pair@$$CBVshared_str@@V1@@std@@PAX@std@@@@V0@@std@@YA_NABU?$_Wrap_alloc@V?$xalloc@U?$_Tree_node@U?$pair@$$CBVshared_str@@V1@@std@@PAX@std@@@@@0@0@Z 0093f4f0 f i stdafx.obj
 0001:0003e500       ??$_Copy_nodes@U?$integral_constant@_N$0A@@std@@@?$_Tree@V?$_Tmap_traits@PBDPAVFS_Path@@Upred_str@@V?$xalloc@U?$pair@PBDPAVFS_Path@@@std@@@@$0A@@std@@@std@@IAEPAU?$_Tree_node@U?$pair@QBDPAVFS_Path@@@std@@PAX@1@PAU21@0U?$integral_constant@_N$0A@@1@@Z 0093f500 f i stdafx.obj
 0001:0003e5c0       ??$?8V?$xalloc@U?$_Tree_node@U?$pair@QBDPAVFS_Path@@@std@@PAX@std@@@@V0@@std@@YA_NABU?$_Wrap_alloc@V?$xalloc@U?$_Tree_node@U?$pair@QBDPAVFS_Path@@@std@@PAX@std@@@@@0@0@Z 0093f5c0 f i stdafx.obj
 0001:0003e5d0       ??$_Copy_nodes@U?$integral_constant@_N$0A@@std@@@?$_Tree@V?$_Tset_traits@Ufile@CLocatorAPI@@Ufile_pred@2@V?$xalloc@Ufile@CLocatorAPI@@@@$0A@@std@@@std@@IAEPAU?$_Tree_node@Ufile@CLocatorAPI@@PAX@1@PAU21@0U?$integral_constant@_N$0A@@1@@Z 0093f5d0 f i stdafx.obj
 0001:0003e690       ??$?8V?$xalloc@U?$_Tree_node@Ufile@CLocatorAPI@@PAX@std@@@@V0@@std@@YA_NABU?$_Wrap_alloc@V?$xalloc@U?$_Tree_node@Ufile@CLocatorAPI@@PAX@std@@@@@0@0@Z 0093f690 f i stdafx.obj
 0001:0003e6a0       ??$_Destroy_range@U?$_Wrap_alloc@V?$xalloc@Uarchive@CLocatorAPI@@@@@std@@@std@@YAXPAUarchive@CLocatorAPI@@0AAU?$_Wrap_alloc@V?$xalloc@Uarchive@CLocatorAPI@@@@@0@U_Nonscalar_ptr_iterator_tag@0@@Z 0093f6a0 f i stdafx.obj
 0001:0003e700       ??$_Destroy_range@U?$_Wrap_alloc@V?$xalloc@U_finddata64i32_t@@@@@std@@@std@@YAXPAU_finddata64i32_t@@0AAU?$_Wrap_alloc@V?$xalloc@U_finddata64i32_t@@@@@0@U_Nonscalar_ptr_iterator_tag@0@@Z 0093f700 f i stdafx.obj
 0001:0003e710       ??$_Copy_nodes@U?$integral_constant@_N$0A@@std@@@?$_Tree@V?$_Tmap_traits@Vshared_str@@U_FILE_ACCESS_STAT@@U?$less@Vshared_str@@@std@@V?$xalloc@U?$pair@Vshared_str@@U_FILE_ACCESS_STAT@@@std@@@@$0A@@std@@@std@@IAEPAU?$_Tree_node@U?$pair@$$CBVshared_str@@U_FILE_ACCESS_STAT@@@std@@PAX@1@PAU21@0U?$integral_constant@_N$0A@@1@@Z 0093f710 f i stdafx.obj
 0001:0003e7d0       ??$?8V?$xalloc@U?$_Tree_node@U?$pair@$$CBVshared_str@@U_FILE_ACCESS_STAT@@@std@@PAX@std@@@@V0@@std@@YA_NABU?$_Wrap_alloc@V?$xalloc@U?$_Tree_node@U?$pair@$$CBVshared_str@@U_FILE_ACCESS_STAT@@@std@@PAX@std@@@@@0@0@Z 0093f7d0 f i stdafx.obj
 0001:0003e7e0       ??$_Copy_nodes@U?$integral_constant@_N$0A@@std@@@?$_Tree@V?$_Tmap_traits@Vshared_str@@V?$xr_vector@PAVIReader@@V?$xalloc@PAVIReader@@@@@@U?$less@Vshared_str@@@std@@V?$xalloc@U?$pair@Vshared_str@@V?$xr_vector@PAVIReader@@V?$xalloc@PAVIReader@@@@@@@std@@@@$0A@@std@@@std@@IAEPAU?$_Tree_node@U?$pair@$$CBVshared_str@@V?$xr_vector@PAVIReader@@V?$xalloc@PAVIReader@@@@@@@std@@PAX@1@PAU21@0U?$integral_constant@_N$0A@@1@@Z 0093f7e0 f i stdafx.obj
 0001:0003e8a0       ??$?8V?$xalloc@U?$_Tree_node@U?$pair@$$CBVshared_str@@V?$xr_vector@PAVIReader@@V?$xalloc@PAVIReader@@@@@@@std@@PAX@std@@@@V0@@std@@YA_NABU?$_Wrap_alloc@V?$xalloc@U?$_Tree_node@U?$pair@$$CBVshared_str@@V?$xr_vector@PAVIReader@@V?$xalloc@PAVIReader@@@@@@@std@@PAX@std@@@@@0@0@Z 0093f8a0 f i stdafx.obj
 0001:0003e8b0       ??$_Copy_nodes@U?$integral_constant@_N$0A@@std@@@?$_Tree@V?$_Tmap_traits@V?$basic_string@DU?$char_traits@D@std@@V?$xalloc@D@@@std@@PAXU?$less@V?$basic_string@DU?$char_traits@D@std@@V?$xalloc@D@@@std@@@2@V?$xalloc@U?$pair@V?$basic_string@DU?$char_traits@D@std@@V?$xalloc@D@@@std@@PAX@std@@@@$0A@@std@@@std@@IAEPAU?$_Tree_node@U?$pair@$$CBV?$basic_string@DU?$char_traits@D@std@@V?$xalloc@D@@@std@@PAX@std@@PAX@1@PAU21@0U?$integral_constant@_N$0A@@1@@Z 0093f8b0 f i stdafx.obj
 0001:0003e970       ??$?8V?$xalloc@U?$_Tree_node@U?$pair@$$CBV?$basic_string@DU?$char_traits@D@std@@V?$xalloc@D@@@std@@PAX@std@@PAX@std@@@@V0@@std@@YA_NABU?$_Wrap_alloc@V?$xalloc@U?$_Tree_node@U?$pair@$$CBV?$basic_string@DU?$char_traits@D@std@@V?$xalloc@D@@@std@@PAX@std@@PAX@std@@@@@0@0@Z 0093f970 f i stdafx.obj
 0001:0003e980       ??$destroy@PAU?$_Tree_node@PAUstr_value@@PAX@std@@@?$allocator_traits@V?$xalloc@U?$_Tree_node@PAUstr_value@@PAX@std@@@@@std@@SAXAAV?$xalloc@U?$_Tree_node@PAUstr_value@@PAX@std@@@@PAPAU?$_Tree_node@PAUstr_value@@PAX@1@@Z 0093f980 f i stdafx.obj
 0001:0003e990       ??$destroy@PAU?$_Tree_node@U?$pair@$$CBVshared_str@@PAUSect@CInifile@@@std@@PAX@std@@@?$allocator_traits@V?$xalloc@U?$_Tree_node@U?$pair@$$CBVshared_str@@PAUSect@CInifile@@@std@@PAX@std@@@@@std@@SAXAAV?$xalloc@U?$_Tree_node@U?$pair@$$CBVshared_str@@PAUSect@CInifile@@@std@@PAX@std@@@@PAPAU?$_Tree_node@U?$pair@$$CBVshared_str@@PAUSect@CInifile@@@std@@PAX@1@@Z 0093f990 f i stdafx.obj
 0001:0003e9a0       ??$destroy@PAU?$_Tree_node@U?$pair@$$CBVshared_str@@V1@@std@@PAX@std@@@?$allocator_traits@V?$xalloc@U?$_Tree_node@U?$pair@$$CBVshared_str@@V1@@std@@PAX@std@@@@@std@@SAXAAV?$xalloc@U?$_Tree_node@U?$pair@$$CBVshared_str@@V1@@std@@PAX@std@@@@PAPAU?$_Tree_node@U?$pair@$$CBVshared_str@@V1@@std@@PAX@1@@Z 0093f9a0 f i stdafx.obj
 0001:0003e9b0       ??$destroy@PAU?$_Tree_node@U?$pair@QBDPAVFS_Path@@@std@@PAX@std@@@?$allocator_traits@V?$xalloc@U?$_Tree_node@U?$pair@QBDPAVFS_Path@@@std@@PAX@std@@@@@std@@SAXAAV?$xalloc@U?$_Tree_node@U?$pair@QBDPAVFS_Path@@@std@@PAX@std@@@@PAPAU?$_Tree_node@U?$pair@QBDPAVFS_Path@@@std@@PAX@1@@Z 0093f9b0 f i stdafx.obj
 0001:0003e9c0       ??$destroy@PAU?$_Tree_node@Ufile@CLocatorAPI@@PAX@std@@@?$allocator_traits@V?$xalloc@U?$_Tree_node@Ufile@CLocatorAPI@@PAX@std@@@@@std@@SAXAAV?$xalloc@U?$_Tree_node@Ufile@CLocatorAPI@@PAX@std@@@@PAPAU?$_Tree_node@Ufile@CLocatorAPI@@PAX@1@@Z 0093f9c0 f i stdafx.obj
 0001:0003e9d0       ??$destroy@PAU?$_Tree_node@U?$pair@$$CBVshared_str@@U_FILE_ACCESS_STAT@@@std@@PAX@std@@@?$allocator_traits@V?$xalloc@U?$_Tree_node@U?$pair@$$CBVshared_str@@U_FILE_ACCESS_STAT@@@std@@PAX@std@@@@@std@@SAXAAV?$xalloc@U?$_Tree_node@U?$pair@$$CBVshared_str@@U_FILE_ACCESS_STAT@@@std@@PAX@std@@@@PAPAU?$_Tree_node@U?$pair@$$CBVshared_str@@U_FILE_ACCESS_STAT@@@std@@PAX@1@@Z 0093f9d0 f i stdafx.obj
 0001:0003e9e0       ??$destroy@PAU?$_Tree_node@U?$pair@$$CBVshared_str@@V?$xr_vector@PAVIReader@@V?$xalloc@PAVIReader@@@@@@@std@@PAX@std@@@?$allocator_traits@V?$xalloc@U?$_Tree_node@U?$pair@$$CBVshared_str@@V?$xr_vector@PAVIReader@@V?$xalloc@PAVIReader@@@@@@@std@@PAX@std@@@@@std@@SAXAAV?$xalloc@U?$_Tree_node@U?$pair@$$CBVshared_str@@V?$xr_vector@PAVIReader@@V?$xalloc@PAVIReader@@@@@@@std@@PAX@std@@@@PAPAU?$_Tree_node@U?$pair@$$CBVshared_str@@V?$xr_vector@PAVIReader@@V?$xalloc@PAVIReader@@@@@@@std@@PAX@1@@Z 0093f9e0 f i stdafx.obj
 0001:0003e9f0       ??$destroy@PAU?$_Tree_node@U?$pair@$$CBV?$basic_string@DU?$char_traits@D@std@@V?$xalloc@D@@@std@@PAX@std@@PAX@std@@@?$allocator_traits@V?$xalloc@U?$_Tree_node@U?$pair@$$CBV?$basic_string@DU?$char_traits@D@std@@V?$xalloc@D@@@std@@PAX@std@@PAX@std@@@@@std@@SAXAAV?$xalloc@U?$_Tree_node@U?$pair@$$CBV?$basic_string@DU?$char_traits@D@std@@V?$xalloc@D@@@std@@PAX@std@@PAX@std@@@@PAPAU?$_Tree_node@U?$pair@$$CBV?$basic_string@DU?$char_traits@D@std@@V?$xalloc@D@@@std@@PAX@std@@PAX@1@@Z 0093f9f0 f i stdafx.obj
 0001:0003ea00       ??$_Move@AAD@std@@YA$$QADAAD@Z 0093fa00 f i stdafx.obj
 0001:0003ea10       ??$destroy@PAUstr_value@@@?$allocator_traits@V?$xalloc@U?$_Tree_node@PAUstr_value@@PAX@std@@@@@std@@SAXAAV?$xalloc@U?$_Tree_node@PAUstr_value@@PAX@std@@@@PAPAUstr_value@@@Z 0093fa10 f i stdafx.obj
 0001:0003ea20       ??$construct@PADAAPAD@?$allocator_traits@V?$xalloc@D@@@std@@SAXAAV?$xalloc@D@@PAPADAAPAD@Z 0093fa20 f i stdafx.obj
 0001:0003ea60       ??$destroy@U?$pair@$$CBVshared_str@@PAUSect@CInifile@@@std@@@?$allocator_traits@V?$xalloc@U?$_Tree_node@U?$pair@$$CBVshared_str@@PAUSect@CInifile@@@std@@PAX@std@@@@@std@@SAXAAV?$xalloc@U?$_Tree_node@U?$pair@$$CBVshared_str@@PAUSect@CInifile@@@std@@PAX@std@@@@PAU?$pair@$$CBVshared_str@@PAUSect@CInifile@@@1@@Z 0093fa60 f i stdafx.obj
 0001:0003eab0       ??$destroy@U?$pair@$$CBVshared_str@@V1@@std@@@?$allocator_traits@V?$xalloc@U?$_Tree_node@U?$pair@$$CBVshared_str@@V1@@std@@PAX@std@@@@@std@@SAXAAV?$xalloc@U?$_Tree_node@U?$pair@$$CBVshared_str@@V1@@std@@PAX@std@@@@PAU?$pair@$$CBVshared_str@@V1@@1@@Z 0093fab0 f i stdafx.obj
 0001:0003eb20       ??$destroy@U?$pair@QBDPAVFS_Path@@@std@@@?$allocator_traits@V?$xalloc@U?$_Tree_node@U?$pair@QBDPAVFS_Path@@@std@@PAX@std@@@@@std@@SAXAAV?$xalloc@U?$_Tree_node@U?$pair@QBDPAVFS_Path@@@std@@PAX@std@@@@PAU?$pair@QBDPAVFS_Path@@@1@@Z 0093fb20 f i stdafx.obj
 0001:0003eb30       ??$destroy@Ufile@CLocatorAPI@@@?$allocator_traits@V?$xalloc@U?$_Tree_node@Ufile@CLocatorAPI@@PAX@std@@@@@std@@SAXAAV?$xalloc@U?$_Tree_node@Ufile@CLocatorAPI@@PAX@std@@@@PAUfile@CLocatorAPI@@@Z 0093fb30 f i stdafx.obj
 0001:0003eb40       ??$destroy@U?$pair@$$CBVshared_str@@U_FILE_ACCESS_STAT@@@std@@@?$allocator_traits@V?$xalloc@U?$_Tree_node@U?$pair@$$CBVshared_str@@U_FILE_ACCESS_STAT@@@std@@PAX@std@@@@@std@@SAXAAV?$xalloc@U?$_Tree_node@U?$pair@$$CBVshared_str@@U_FILE_ACCESS_STAT@@@std@@PAX@std@@@@PAU?$pair@$$CBVshared_str@@U_FILE_ACCESS_STAT@@@1@@Z 0093fb40 f i stdafx.obj
 0001:0003eb90       ??$destroy@U?$pair@$$CBVshared_str@@V?$xr_vector@PAVIReader@@V?$xalloc@PAVIReader@@@@@@@std@@@?$allocator_traits@V?$xalloc@U?$_Tree_node@U?$pair@$$CBVshared_str@@V?$xr_vector@PAVIReader@@V?$xalloc@PAVIReader@@@@@@@std@@PAX@std@@@@@std@@SAXAAV?$xalloc@U?$_Tree_node@U?$pair@$$CBVshared_str@@V?$xr_vector@PAVIReader@@V?$xalloc@PAVIReader@@@@@@@std@@PAX@std@@@@PAU?$pair@$$CBVshared_str@@V?$xr_vector@PAVIReader@@V?$xalloc@PAVIReader@@@@@@@1@@Z 0093fb90 f i stdafx.obj
 0001:0003eba0       ??$destroy@U?$pair@$$CBV?$basic_string@DU?$char_traits@D@std@@V?$xalloc@D@@@std@@PAX@std@@@?$allocator_traits@V?$xalloc@U?$_Tree_node@U?$pair@$$CBV?$basic_string@DU?$char_traits@D@std@@V?$xalloc@D@@@std@@PAX@std@@PAX@std@@@@@std@@SAXAAV?$xalloc@U?$_Tree_node@U?$pair@$$CBV?$basic_string@DU?$char_traits@D@std@@V?$xalloc@D@@@std@@PAX@std@@PAX@std@@@@PAU?$pair@$$CBV?$basic_string@DU?$char_traits@D@std@@V?$xalloc@D@@@std@@PAX@1@@Z 0093fba0 f i stdafx.obj
 0001:0003ec00       ??$forward@AAPAU?$_Tree_node@PAUstr_value@@PAX@std@@@std@@YAAAPAU?$_Tree_node@PAUstr_value@@PAX@0@AAPAU10@@Z 0093fc00 f i stdafx.obj
 0001:0003ec10       ??$construct@PAU?$_Tree_node@PAUstr_value@@PAX@std@@AAPAU12@@?$allocator_traits@V?$xalloc@U?$_Tree_node@PAUstr_value@@PAX@std@@@@@std@@SAXAAV?$xalloc@U?$_Tree_node@PAUstr_value@@PAX@std@@@@PAPAU?$_Tree_node@PAUstr_value@@PAX@1@AAPAU31@@Z 0093fc10 f i stdafx.obj
 0001:0003ec50       ??$forward@AAPAU?$_Tree_node@U?$pair@$$CBVshared_str@@PAUSect@CInifile@@@std@@PAX@std@@@std@@YAAAPAU?$_Tree_node@U?$pair@$$CBVshared_str@@PAUSect@CInifile@@@std@@PAX@0@AAPAU10@@Z 0093fc50 f i stdafx.obj
 0001:0003ec60       ??$construct@PAU?$_Tree_node@U?$pair@$$CBVshared_str@@PAUSect@CInifile@@@std@@PAX@std@@AAPAU12@@?$allocator_traits@V?$xalloc@U?$_Tree_node@U?$pair@$$CBVshared_str@@PAUSect@CInifile@@@std@@PAX@std@@@@@std@@SAXAAV?$xalloc@U?$_Tree_node@U?$pair@$$CBVshared_str@@PAUSect@CInifile@@@std@@PAX@std@@@@PAPAU?$_Tree_node@U?$pair@$$CBVshared_str@@PAUSect@CInifile@@@std@@PAX@1@AAPAU31@@Z 0093fc60 f i stdafx.obj
 0001:0003eca0       ??$forward@AAPAU?$_Tree_node@U?$pair@$$CBVshared_str@@V1@@std@@PAX@std@@@std@@YAAAPAU?$_Tree_node@U?$pair@$$CBVshared_str@@V1@@std@@PAX@0@AAPAU10@@Z 0093fca0 f i stdafx.obj
 0001:0003ecb0       ??$construct@PAU?$_Tree_node@U?$pair@$$CBVshared_str@@V1@@std@@PAX@std@@AAPAU12@@?$allocator_traits@V?$xalloc@U?$_Tree_node@U?$pair@$$CBVshared_str@@V1@@std@@PAX@std@@@@@std@@SAXAAV?$xalloc@U?$_Tree_node@U?$pair@$$CBVshared_str@@V1@@std@@PAX@std@@@@PAPAU?$_Tree_node@U?$pair@$$CBVshared_str@@V1@@std@@PAX@1@AAPAU31@@Z 0093fcb0 f i stdafx.obj
 0001:0003ecf0       ??$forward@AAPAU?$_Tree_node@U?$pair@QBDPAVFS_Path@@@std@@PAX@std@@@std@@YAAAPAU?$_Tree_node@U?$pair@QBDPAVFS_Path@@@std@@PAX@0@AAPAU10@@Z 0093fcf0 f i stdafx.obj
 0001:0003ed00       ??$construct@PAU?$_Tree_node@U?$pair@QBDPAVFS_Path@@@std@@PAX@std@@AAPAU12@@?$allocator_traits@V?$xalloc@U?$_Tree_node@U?$pair@QBDPAVFS_Path@@@std@@PAX@std@@@@@std@@SAXAAV?$xalloc@U?$_Tree_node@U?$pair@QBDPAVFS_Path@@@std@@PAX@std@@@@PAPAU?$_Tree_node@U?$pair@QBDPAVFS_Path@@@std@@PAX@1@AAPAU31@@Z 0093fd00 f i stdafx.obj
 0001:0003ed40       ??$forward@AAPAU?$_Tree_node@Ufile@CLocatorAPI@@PAX@std@@@std@@YAAAPAU?$_Tree_node@Ufile@CLocatorAPI@@PAX@0@AAPAU10@@Z 0093fd40 f i stdafx.obj
 0001:0003ed50       ??$construct@PAU?$_Tree_node@Ufile@CLocatorAPI@@PAX@std@@AAPAU12@@?$allocator_traits@V?$xalloc@U?$_Tree_node@Ufile@CLocatorAPI@@PAX@std@@@@@std@@SAXAAV?$xalloc@U?$_Tree_node@Ufile@CLocatorAPI@@PAX@std@@@@PAPAU?$_Tree_node@Ufile@CLocatorAPI@@PAX@1@AAPAU31@@Z 0093fd50 f i stdafx.obj
 0001:0003ed90       ??$forward@AAPAU?$_Tree_node@U?$pair@$$CBVshared_str@@U_FILE_ACCESS_STAT@@@std@@PAX@std@@@std@@YAAAPAU?$_Tree_node@U?$pair@$$CBVshared_str@@U_FILE_ACCESS_STAT@@@std@@PAX@0@AAPAU10@@Z 0093fd90 f i stdafx.obj
 0001:0003eda0       ??$construct@PAU?$_Tree_node@U?$pair@$$CBVshared_str@@U_FILE_ACCESS_STAT@@@std@@PAX@std@@AAPAU12@@?$allocator_traits@V?$xalloc@U?$_Tree_node@U?$pair@$$CBVshared_str@@U_FILE_ACCESS_STAT@@@std@@PAX@std@@@@@std@@SAXAAV?$xalloc@U?$_Tree_node@U?$pair@$$CBVshared_str@@U_FILE_ACCESS_STAT@@@std@@PAX@std@@@@PAPAU?$_Tree_node@U?$pair@$$CBVshared_str@@U_FILE_ACCESS_STAT@@@std@@PAX@1@AAPAU31@@Z 0093fda0 f i stdafx.obj
 0001:0003ede0       ??$forward@AAPAU?$_Tree_node@U?$pair@$$CBVshared_str@@V?$xr_vector@PAVIReader@@V?$xalloc@PAVIReader@@@@@@@std@@PAX@std@@@std@@YAAAPAU?$_Tree_node@U?$pair@$$CBVshared_str@@V?$xr_vector@PAVIReader@@V?$xalloc@PAVIReader@@@@@@@std@@PAX@0@AAPAU10@@Z 0093fde0 f i stdafx.obj
 0001:0003edf0       ??$construct@PAU?$_Tree_node@U?$pair@$$CBVshared_str@@V?$xr_vector@PAVIReader@@V?$xalloc@PAVIReader@@@@@@@std@@PAX@std@@AAPAU12@@?$allocator_traits@V?$xalloc@U?$_Tree_node@U?$pair@$$CBVshared_str@@V?$xr_vector@PAVIReader@@V?$xalloc@PAVIReader@@@@@@@std@@PAX@std@@@@@std@@SAXAAV?$xalloc@U?$_Tree_node@U?$pair@$$CBVshared_str@@V?$xr_vector@PAVIReader@@V?$xalloc@PAVIReader@@@@@@@std@@PAX@std@@@@PAPAU?$_Tree_node@U?$pair@$$CBVshared_str@@V?$xr_vector@PAVIReader@@V?$xalloc@PAVIReader@@@@@@@std@@PAX@1@AAPAU31@@Z 0093fdf0 f i stdafx.obj
 0001:0003ee30       ??$forward@AAPAU?$_Tree_node@U?$pair@$$CBV?$basic_string@DU?$char_traits@D@std@@V?$xalloc@D@@@std@@PAX@std@@PAX@std@@@std@@YAAAPAU?$_Tree_node@U?$pair@$$CBV?$basic_string@DU?$char_traits@D@std@@V?$xalloc@D@@@std@@PAX@std@@PAX@0@AAPAU10@@Z 0093fe30 f i stdafx.obj
 0001:0003ee40       ??$construct@PAU?$_Tree_node@U?$pair@$$CBV?$basic_string@DU?$char_traits@D@std@@V?$xalloc@D@@@std@@PAX@std@@PAX@std@@AAPAU12@@?$allocator_traits@V?$xalloc@U?$_Tree_node@U?$pair@$$CBV?$basic_string@DU?$char_traits@D@std@@V?$xalloc@D@@@std@@PAX@std@@PAX@std@@@@@std@@SAXAAV?$xalloc@U?$_Tree_node@U?$pair@$$CBV?$basic_string@DU?$char_traits@D@std@@V?$xalloc@D@@@std@@PAX@std@@PAX@std@@@@PAPAU?$_Tree_node@U?$pair@$$CBV?$basic_string@DU?$char_traits@D@std@@V?$xalloc@D@@@std@@PAX@std@@PAX@1@AAPAU31@@Z 0093fe40 f i stdafx.obj
 0001:0003ee80       ??4archive@CLocatorAPI@@QAEAAU01@ABU01@@Z 0093fe80 f i stdafx.obj
 0001:0003eed0       ??$_Unchecked@V?$_Vector_val@U?$_Simple_types@I@std@@@std@@@std@@YAPBIV?$_Vector_const_iterator@V?$_Vector_val@U?$_Simple_types@I@std@@@std@@@0@@Z 0093fed0 f i stdafx.obj
 0001:0003eee0       ??$_Unchecked@PAI@std@@YAPAIPAI@Z 0093fee0 f i stdafx.obj
 0001:0003eef0       ??$_Uninit_copy@PBIPAIU?$_Wrap_alloc@V?$xalloc@I@@@std@@@std@@YAPAIPBI0PAIAAU?$_Wrap_alloc@V?$xalloc@I@@@0@@Z 0093fef0 f i stdafx.obj
 0001:0003ef10       ??$_Rechecked@PAIPAI@std@@YAAAPAIAAPAIPAI@Z 0093ff10 f i stdafx.obj
 0001:0003ef20       ??$?8II@@YA_NABV?$xalloc@I@@0@Z 0093ff20 f i stdafx.obj
 0001:0003ef30       ??$_Uninit_copy@PAIPAIU?$_Wrap_alloc@V?$xalloc@I@@@std@@@std@@YAPAIPAI00AAU?$_Wrap_alloc@V?$xalloc@I@@@0@@Z 0093ff30 f i stdafx.obj
 0001:0003ef50       ??$_Unchecked@V?$_Vector_val@U?$_Simple_types@PAUsmem_value@@@std@@@std@@@std@@YAPBQAUsmem_value@@V?$_Vector_const_iterator@V?$_Vector_val@U?$_Simple_types@PAUsmem_value@@@std@@@std@@@0@@Z 0093ff50 f i stdafx.obj
 0001:0003ef60       ??$_Unchecked@PAPAUsmem_value@@@std@@YAPAPAUsmem_value@@PAPAU1@@Z 0093ff60 f i stdafx.obj
 0001:0003ef70       ??$_Uninit_copy@PBQAUsmem_value@@PAPAU1@U?$_Wrap_alloc@V?$xalloc@PAUsmem_value@@@@@std@@@std@@YAPAPAUsmem_value@@PBQAU1@0PAPAU1@AAU?$_Wrap_alloc@V?$xalloc@PAUsmem_value@@@@@0@@Z 0093ff70 f i stdafx.obj
 0001:0003ef90       ??$_Rechecked@PAPAUsmem_value@@PAPAU1@@std@@YAAAPAPAUsmem_value@@AAPAPAU1@PAPAU1@@Z 0093ff90 f i stdafx.obj
 0001:0003efa0       ??$?8PAUsmem_value@@PAU0@@@YA_NABV?$xalloc@PAUsmem_value@@@@0@Z 0093ffa0 f i stdafx.obj
 0001:0003efb0       ??$_Uninit_copy@PAPAUsmem_value@@PAPAU1@U?$_Wrap_alloc@V?$xalloc@PAUsmem_value@@@@@std@@@std@@YAPAPAUsmem_value@@PAPAU1@00AAU?$_Wrap_alloc@V?$xalloc@PAUsmem_value@@@@@0@@Z 0093ffb0 f i stdafx.obj
 0001:0003efd0       ??$?8DD@@YA_NABV?$xalloc@D@@0@Z 0093ffd0 f i stdafx.obj
 0001:0003efe0       ??$_Unchecked@V?$_Vector_val@U?$_Simple_types@UItem@CInifile@@@std@@@std@@@std@@YAPBUItem@CInifile@@V?$_Vector_const_iterator@V?$_Vector_val@U?$_Simple_types@UItem@CInifile@@@std@@@std@@@0@@Z 0093ffe0 f i stdafx.obj
 0001:0003eff0       ??$_Unchecked@PAUItem@CInifile@@@std@@YAPAUItem@CInifile@@PAU12@@Z 0093fff0 f i stdafx.obj
 0001:0003f000       ??$_Uninit_copy@PBUItem@CInifile@@PAU12@U?$_Wrap_alloc@V?$xalloc@UItem@CInifile@@@@@std@@@std@@YAPAUItem@CInifile@@PBU12@0PAU12@AAU?$_Wrap_alloc@V?$xalloc@UItem@CInifile@@@@@0@@Z 00940000 f i stdafx.obj
 0001:0003f020       ??$_Rechecked@PAUItem@CInifile@@PAU12@@std@@YAAAPAUItem@CInifile@@AAPAU12@PAU12@@Z 00940020 f i stdafx.obj
 0001:0003f030       ??$?8UItem@CInifile@@U01@@@YA_NABV?$xalloc@UItem@CInifile@@@@0@Z 00940030 f i stdafx.obj
 0001:0003f040       ??$_Uninit_copy@PAUItem@CInifile@@PAU12@U?$_Wrap_alloc@V?$xalloc@UItem@CInifile@@@@@std@@@std@@YAPAUItem@CInifile@@PAU12@00AAU?$_Wrap_alloc@V?$xalloc@UItem@CInifile@@@@@0@@Z 00940040 f i stdafx.obj
 0001:0003f060       ??$_Unchecked@V?$_Vector_val@U?$_Simple_types@Uarchive@CLocatorAPI@@@std@@@std@@@std@@YAPBUarchive@CLocatorAPI@@V?$_Vector_const_iterator@V?$_Vector_val@U?$_Simple_types@Uarchive@CLocatorAPI@@@std@@@std@@@0@@Z 00940060 f i stdafx.obj
 0001:0003f070       ??$_Unchecked@PAUarchive@CLocatorAPI@@@std@@YAPAUarchive@CLocatorAPI@@PAU12@@Z 00940070 f i stdafx.obj
 0001:0003f080       ??$_Uninit_copy@PBUarchive@CLocatorAPI@@PAU12@U?$_Wrap_alloc@V?$xalloc@Uarchive@CLocatorAPI@@@@@std@@@std@@YAPAUarchive@CLocatorAPI@@PBU12@0PAU12@AAU?$_Wrap_alloc@V?$xalloc@Uarchive@CLocatorAPI@@@@@0@@Z 00940080 f i stdafx.obj
 0001:0003f0a0       ??$_Rechecked@PAUarchive@CLocatorAPI@@PAU12@@std@@YAAAPAUarchive@CLocatorAPI@@AAPAU12@PAU12@@Z 009400a0 f i stdafx.obj
 0001:0003f0b0       ??$?8Uarchive@CLocatorAPI@@U01@@@YA_NABV?$xalloc@Uarchive@CLocatorAPI@@@@0@Z 009400b0 f i stdafx.obj
 0001:0003f0c0       ??$_Uninit_copy@PAUarchive@CLocatorAPI@@PAU12@U?$_Wrap_alloc@V?$xalloc@Uarchive@CLocatorAPI@@@@@std@@@std@@YAPAUarchive@CLocatorAPI@@PAU12@00AAU?$_Wrap_alloc@V?$xalloc@Uarchive@CLocatorAPI@@@@@0@@Z 009400c0 f i stdafx.obj
 0001:0003f0e0       ??$_Unchecked@V?$_Vector_val@U?$_Simple_types@U_finddata64i32_t@@@std@@@std@@@std@@YAPBU_finddata64i32_t@@V?$_Vector_const_iterator@V?$_Vector_val@U?$_Simple_types@U_finddata64i32_t@@@std@@@std@@@0@@Z 009400e0 f i stdafx.obj
 0001:0003f0f0       ??$_Unchecked@PAU_finddata64i32_t@@@std@@YAPAU_finddata64i32_t@@PAU1@@Z 009400f0 f i stdafx.obj
 0001:0003f100       ??$_Uninit_copy@PBU_finddata64i32_t@@PAU1@U?$_Wrap_alloc@V?$xalloc@U_finddata64i32_t@@@@@std@@@std@@YAPAU_finddata64i32_t@@PBU1@0PAU1@AAU?$_Wrap_alloc@V?$xalloc@U_finddata64i32_t@@@@@0@@Z 00940100 f i stdafx.obj
 0001:0003f120       ??$_Rechecked@PAU_finddata64i32_t@@PAU1@@std@@YAAAPAU_finddata64i32_t@@AAPAU1@PAU1@@Z 00940120 f i stdafx.obj
 0001:0003f130       ??$?8U_finddata64i32_t@@U0@@@YA_NABV?$xalloc@U_finddata64i32_t@@@@0@Z 00940130 f i stdafx.obj
 0001:0003f140       ??$_Uninit_copy@PAU_finddata64i32_t@@PAU1@U?$_Wrap_alloc@V?$xalloc@U_finddata64i32_t@@@@@std@@@std@@YAPAU_finddata64i32_t@@PAU1@00AAU?$_Wrap_alloc@V?$xalloc@U_finddata64i32_t@@@@@0@@Z 00940140 f i stdafx.obj
 0001:0003f160       ??$_Unchecked@V?$_Vector_val@U?$_Simple_types@PAVCTimer_paused@@@std@@@std@@@std@@YAPBQAVCTimer_paused@@V?$_Vector_const_iterator@V?$_Vector_val@U?$_Simple_types@PAVCTimer_paused@@@std@@@std@@@0@@Z 00940160 f i stdafx.obj
 0001:0003f170       ??$_Uninit_copy@PBQAVCTimer_paused@@PAPAV1@U?$_Wrap_alloc@V?$xalloc@PAVCTimer_paused@@@@@std@@@std@@YAPAPAVCTimer_paused@@PBQAV1@0PAPAV1@AAU?$_Wrap_alloc@V?$xalloc@PAVCTimer_paused@@@@@0@@Z 00940170 f i stdafx.obj
 0001:0003f190       ??$?8PAVCTimer_paused@@PAV0@@@YA_NABV?$xalloc@PAVCTimer_paused@@@@0@Z 00940190 f i stdafx.obj
 0001:0003f1a0       ??$_Uninit_copy@PAPAVCTimer_paused@@PAPAV1@U?$_Wrap_alloc@V?$xalloc@PAVCTimer_paused@@@@@std@@@std@@YAPAPAVCTimer_paused@@PAPAV1@00AAU?$_Wrap_alloc@V?$xalloc@PAVCTimer_paused@@@@@0@@Z 009401a0 f i stdafx.obj
 0001:0003f1c0       ??$construct@PADAAPAD@?$allocator@D@std@@QAEXPAPADAAPAD@Z 009401c0 f i stdafx.obj
 0001:0003f210       ??$destroy@PAD@?$allocator@D@std@@QAEXPAPAD@Z 00940210 f i stdafx.obj
 0001:0003f220       ??$_Copy_or_move@U?$integral_constant@_N$0A@@std@@U?$integral_constant@_N$00@2@U32@H@?$_Tree@V?$_Tset_traits@PAUstr_value@@Ustr_value_cmp@@V?$xalloc@PAUstr_value@@@@$00@std@@@std@@IAEPAU?$_Tree_node@PAUstr_value@@PAX@1@PAU21@U?$integral_constant@_N$0A@@1@U?$integral_constant@_N$00@1@2H@Z 00940220 f i stdafx.obj
 0001:0003f230       ??$?8U?$_Tree_node@PAUstr_value@@PAX@std@@U01@@@YA_NABV?$xalloc@U?$_Tree_node@PAUstr_value@@PAX@std@@@@0@Z 00940230 f i stdafx.obj
 0001:0003f240       ??$_Fn@V?$xalloc@D@@PAD@_Alloc_destroy@std@@SAXU_Wrap_int@1@AAV?$xalloc@D@@PAPAD@Z 00940240 f i stdafx.obj
 0001:0003f250       ??$destroy@UItem@CInifile@@@?$_Wrap_alloc@V?$xalloc@UItem@CInifile@@@@@std@@QAEXPAUItem@CInifile@@@Z 00940250 f i stdafx.obj
 0001:0003f2c0       ??$_Copy_or_move@U?$integral_constant@_N$0A@@std@@U?$integral_constant@_N$00@2@U12@H@?$_Tree@V?$_Tmap_traits@Vshared_str@@PAUSect@CInifile@@U?$less@Vshared_str@@@std@@V?$xalloc@U?$pair@Vshared_str@@PAUSect@CInifile@@@std@@@@$0A@@std@@@std@@IAEPAU?$_Tree_node@U?$pair@$$CBVshared_str@@PAUSect@CInifile@@@std@@PAX@1@PAU21@U?$integral_constant@_N$0A@@1@U?$integral_constant@_N$00@1@1H@Z 009402c0 f i stdafx.obj
 0001:0003f2d0       ??$?8U?$_Tree_node@U?$pair@$$CBVshared_str@@PAUSect@CInifile@@@std@@PAX@std@@U01@@@YA_NABV?$xalloc@U?$_Tree_node@U?$pair@$$CBVshared_str@@PAUSect@CInifile@@@std@@PAX@std@@@@0@Z 009402d0 f i stdafx.obj
 0001:0003f2e0       ??$_Copy_or_move@U?$integral_constant@_N$0A@@std@@U?$integral_constant@_N$00@2@U12@H@?$_Tree@V?$_Tmap_traits@Vshared_str@@V1@U?$less@Vshared_str@@@std@@V?$xalloc@U?$pair@Vshared_str@@V1@@std@@@@$0A@@std@@@std@@IAEPAU?$_Tree_node@U?$pair@$$CBVshared_str@@V1@@std@@PAX@1@PAU21@U?$integral_constant@_N$0A@@1@U?$integral_constant@_N$00@1@1H@Z 009402e0 f i stdafx.obj
 0001:0003f2f0       ??$?8U?$_Tree_node@U?$pair@$$CBVshared_str@@V1@@std@@PAX@std@@U01@@@YA_NABV?$xalloc@U?$_Tree_node@U?$pair@$$CBVshared_str@@V1@@std@@PAX@std@@@@0@Z 009402f0 f i stdafx.obj
 0001:0003f300       ??$_Copy_or_move@U?$integral_constant@_N$0A@@std@@U?$integral_constant@_N$00@2@U12@H@?$_Tree@V?$_Tmap_traits@PBDPAVFS_Path@@Upred_str@@V?$xalloc@U?$pair@PBDPAVFS_Path@@@std@@@@$0A@@std@@@std@@IAEPAU?$_Tree_node@U?$pair@QBDPAVFS_Path@@@std@@PAX@1@PAU21@U?$integral_constant@_N$0A@@1@U?$integral_constant@_N$00@1@1H@Z 00940300 f i stdafx.obj
 0001:0003f310       ??$?8U?$_Tree_node@U?$pair@QBDPAVFS_Path@@@std@@PAX@std@@U01@@@YA_NABV?$xalloc@U?$_Tree_node@U?$pair@QBDPAVFS_Path@@@std@@PAX@std@@@@0@Z 00940310 f i stdafx.obj
 0001:0003f320       ??$_Copy_or_move@U?$integral_constant@_N$0A@@std@@U?$integral_constant@_N$00@2@U32@H@?$_Tree@V?$_Tset_traits@Ufile@CLocatorAPI@@Ufile_pred@2@V?$xalloc@Ufile@CLocatorAPI@@@@$0A@@std@@@std@@IAEPAU?$_Tree_node@Ufile@CLocatorAPI@@PAX@1@PAU21@U?$integral_constant@_N$0A@@1@U?$integral_constant@_N$00@1@2H@Z 00940320 f i stdafx.obj
 0001:0003f330       ??$?8U?$_Tree_node@Ufile@CLocatorAPI@@PAX@std@@U01@@@YA_NABV?$xalloc@U?$_Tree_node@Ufile@CLocatorAPI@@PAX@std@@@@0@Z 00940330 f i stdafx.obj
 0001:0003f340       ??$destroy@Uarchive@CLocatorAPI@@@?$_Wrap_alloc@V?$xalloc@Uarchive@CLocatorAPI@@@@@std@@QAEXPAUarchive@CLocatorAPI@@@Z 00940340 f i stdafx.obj
 0001:0003f390       ??$destroy@U_finddata64i32_t@@@?$_Wrap_alloc@V?$xalloc@U_finddata64i32_t@@@@@std@@QAEXPAU_finddata64i32_t@@@Z 00940390 f i stdafx.obj
 0001:0003f3a0       ??$_Copy_or_move@U?$integral_constant@_N$0A@@std@@U?$integral_constant@_N$00@2@U12@H@?$_Tree@V?$_Tmap_traits@Vshared_str@@U_FILE_ACCESS_STAT@@U?$less@Vshared_str@@@std@@V?$xalloc@U?$pair@Vshared_str@@U_FILE_ACCESS_STAT@@@std@@@@$0A@@std@@@std@@IAEPAU?$_Tree_node@U?$pair@$$CBVshared_str@@U_FILE_ACCESS_STAT@@@std@@PAX@1@PAU21@U?$integral_constant@_N$0A@@1@U?$integral_constant@_N$00@1@1H@Z 009403a0 f i stdafx.obj
 0001:0003f3b0       ??$?8U?$_Tree_node@U?$pair@$$CBVshared_str@@U_FILE_ACCESS_STAT@@@std@@PAX@std@@U01@@@YA_NABV?$xalloc@U?$_Tree_node@U?$pair@$$CBVshared_str@@U_FILE_ACCESS_STAT@@@std@@PAX@std@@@@0@Z 009403b0 f i stdafx.obj
 0001:0003f3c0       ??$_Copy_or_move@U?$integral_constant@_N$0A@@std@@U?$integral_constant@_N$00@2@U12@H@?$_Tree@V?$_Tmap_traits@Vshared_str@@V?$xr_vector@PAVIReader@@V?$xalloc@PAVIReader@@@@@@U?$less@Vshared_str@@@std@@V?$xalloc@U?$pair@Vshared_str@@V?$xr_vector@PAVIReader@@V?$xalloc@PAVIReader@@@@@@@std@@@@$0A@@std@@@std@@IAEPAU?$_Tree_node@U?$pair@$$CBVshared_str@@V?$xr_vector@PAVIReader@@V?$xalloc@PAVIReader@@@@@@@std@@PAX@1@PAU21@U?$integral_constant@_N$0A@@1@U?$integral_constant@_N$00@1@1H@Z 009403c0 f i stdafx.obj
 0001:0003f3d0       ??$?8U?$_Tree_node@U?$pair@$$CBVshared_str@@V?$xr_vector@PAVIReader@@V?$xalloc@PAVIReader@@@@@@@std@@PAX@std@@U01@@@YA_NABV?$xalloc@U?$_Tree_node@U?$pair@$$CBVshared_str@@V?$xr_vector@PAVIReader@@V?$xalloc@PAVIReader@@@@@@@std@@PAX@std@@@@0@Z 009403d0 f i stdafx.obj
 0001:0003f3e0       ??$_Copy_or_move@U?$integral_constant@_N$0A@@std@@U?$integral_constant@_N$00@2@U12@H@?$_Tree@V?$_Tmap_traits@V?$basic_string@DU?$char_traits@D@std@@V?$xalloc@D@@@std@@PAXU?$less@V?$basic_string@DU?$char_traits@D@std@@V?$xalloc@D@@@std@@@2@V?$xalloc@U?$pair@V?$basic_string@DU?$char_traits@D@std@@V?$xalloc@D@@@std@@PAX@std@@@@$0A@@std@@@std@@IAEPAU?$_Tree_node@U?$pair@$$CBV?$basic_string@DU?$char_traits@D@std@@V?$xalloc@D@@@std@@PAX@std@@PAX@1@PAU21@U?$integral_constant@_N$0A@@1@U?$integral_constant@_N$00@1@1H@Z 009403e0 f i stdafx.obj
 0001:0003f3f0       ??$?8U?$_Tree_node@U?$pair@$$CBV?$basic_string@DU?$char_traits@D@std@@V?$xalloc@D@@@std@@PAX@std@@PAX@std@@U01@@@YA_NABV?$xalloc@U?$_Tree_node@U?$pair@$$CBV?$basic_string@DU?$char_traits@D@std@@V?$xalloc@D@@@std@@PAX@std@@PAX@std@@@@0@Z 009403f0 f i stdafx.obj
 0001:0003f400       ??$_Fn@V?$xalloc@U?$_Tree_node@PAUstr_value@@PAX@std@@@@PAU?$_Tree_node@PAUstr_value@@PAX@std@@@_Alloc_destroy@std@@SAXU_Wrap_int@1@AAV?$xalloc@U?$_Tree_node@PAUstr_value@@PAX@std@@@@PAPAU?$_Tree_node@PAUstr_value@@PAX@1@@Z 00940400 f i stdafx.obj
 0001:0003f410       ??$_Fn@V?$xalloc@U?$_Tree_node@U?$pair@$$CBVshared_str@@PAUSect@CInifile@@@std@@PAX@std@@@@PAU?$_Tree_node@U?$pair@$$CBVshared_str@@PAUSect@CInifile@@@std@@PAX@std@@@_Alloc_destroy@std@@SAXU_Wrap_int@1@AAV?$xalloc@U?$_Tree_node@U?$pair@$$CBVshared_str@@PAUSect@CInifile@@@std@@PAX@std@@@@PAPAU?$_Tree_node@U?$pair@$$CBVshared_str@@PAUSect@CInifile@@@std@@PAX@1@@Z 00940410 f i stdafx.obj
 0001:0003f420       ??$_Fn@V?$xalloc@U?$_Tree_node@U?$pair@$$CBVshared_str@@V1@@std@@PAX@std@@@@PAU?$_Tree_node@U?$pair@$$CBVshared_str@@V1@@std@@PAX@std@@@_Alloc_destroy@std@@SAXU_Wrap_int@1@AAV?$xalloc@U?$_Tree_node@U?$pair@$$CBVshared_str@@V1@@std@@PAX@std@@@@PAPAU?$_Tree_node@U?$pair@$$CBVshared_str@@V1@@std@@PAX@1@@Z 00940420 f i stdafx.obj
 0001:0003f430       ??$_Fn@V?$xalloc@U?$_Tree_node@U?$pair@QBDPAVFS_Path@@@std@@PAX@std@@@@PAU?$_Tree_node@U?$pair@QBDPAVFS_Path@@@std@@PAX@std@@@_Alloc_destroy@std@@SAXU_Wrap_int@1@AAV?$xalloc@U?$_Tree_node@U?$pair@QBDPAVFS_Path@@@std@@PAX@std@@@@PAPAU?$_Tree_node@U?$pair@QBDPAVFS_Path@@@std@@PAX@1@@Z 00940430 f i stdafx.obj
 0001:0003f440       ??$_Fn@V?$xalloc@U?$_Tree_node@Ufile@CLocatorAPI@@PAX@std@@@@PAU?$_Tree_node@Ufile@CLocatorAPI@@PAX@std@@@_Alloc_destroy@std@@SAXU_Wrap_int@1@AAV?$xalloc@U?$_Tree_node@Ufile@CLocatorAPI@@PAX@std@@@@PAPAU?$_Tree_node@Ufile@CLocatorAPI@@PAX@1@@Z 00940440 f i stdafx.obj
 0001:0003f450       ??$_Fn@V?$xalloc@U?$_Tree_node@U?$pair@$$CBVshared_str@@U_FILE_ACCESS_STAT@@@std@@PAX@std@@@@PAU?$_Tree_node@U?$pair@$$CBVshared_str@@U_FILE_ACCESS_STAT@@@std@@PAX@std@@@_Alloc_destroy@std@@SAXU_Wrap_int@1@AAV?$xalloc@U?$_Tree_node@U?$pair@$$CBVshared_str@@U_FILE_ACCESS_STAT@@@std@@PAX@std@@@@PAPAU?$_Tree_node@U?$pair@$$CBVshared_str@@U_FILE_ACCESS_STAT@@@std@@PAX@1@@Z 00940450 f i stdafx.obj
 0001:0003f460       ??$_Fn@V?$xalloc@U?$_Tree_node@U?$pair@$$CBVshared_str@@V?$xr_vector@PAVIReader@@V?$xalloc@PAVIReader@@@@@@@std@@PAX@std@@@@PAU?$_Tree_node@U?$pair@$$CBVshared_str@@V?$xr_vector@PAVIReader@@V?$xalloc@PAVIReader@@@@@@@std@@PAX@std@@@_Alloc_destroy@std@@SAXU_Wrap_int@1@AAV?$xalloc@U?$_Tree_node@U?$pair@$$CBVshared_str@@V?$xr_vector@PAVIReader@@V?$xalloc@PAVIReader@@@@@@@std@@PAX@std@@@@PAPAU?$_Tree_node@U?$pair@$$CBVshared_str@@V?$xr_vector@PAVIReader@@V?$xalloc@PAVIReader@@@@@@@std@@PAX@1@@Z 00940460 f i stdafx.obj
 0001:0003f470       ??$_Fn@V?$xalloc@U?$_Tree_node@U?$pair@$$CBV?$basic_string@DU?$char_traits@D@std@@V?$xalloc@D@@@std@@PAX@std@@PAX@std@@@@PAU?$_Tree_node@U?$pair@$$CBV?$basic_string@DU?$char_traits@D@std@@V?$xalloc@D@@@std@@PAX@std@@PAX@std@@@_Alloc_destroy@std@@SAXU_Wrap_int@1@AAV?$xalloc@U?$_Tree_node@U?$pair@$$CBV?$basic_string@DU?$char_traits@D@std@@V?$xalloc@D@@@std@@PAX@std@@PAX@std@@@@PAPAU?$_Tree_node@U?$pair@$$CBV?$basic_string@DU?$char_traits@D@std@@V?$xalloc@D@@@std@@PAX@std@@PAX@1@@Z 00940470 f i stdafx.obj
 0001:0003f480       ??$_Fn@V?$xalloc@U?$_Tree_node@PAUstr_value@@PAX@std@@@@PAUstr_value@@@_Alloc_destroy@std@@SAXU_Wrap_int@1@AAV?$xalloc@U?$_Tree_node@PAUstr_value@@PAX@std@@@@PAPAUstr_value@@@Z 00940480 f i stdafx.obj
 0001:0003f490       ??$_Fn@V?$xalloc@D@@PADAAPAD@_Alloc_construct@std@@SAXU_Wrap_int@1@AAV?$xalloc@D@@PAPADAAPAD@Z 00940490 f i stdafx.obj
 0001:0003f4d0       ??$_Fn@V?$xalloc@U?$_Tree_node@U?$pair@$$CBVshared_str@@PAUSect@CInifile@@@std@@PAX@std@@@@U?$pair@$$CBVshared_str@@PAUSect@CInifile@@@std@@@_Alloc_destroy@std@@SAXU_Wrap_int@1@AAV?$xalloc@U?$_Tree_node@U?$pair@$$CBVshared_str@@PAUSect@CInifile@@@std@@PAX@std@@@@PAU?$pair@$$CBVshared_str@@PAUSect@CInifile@@@1@@Z 009404d0 f i stdafx.obj
 0001:0003f520       ??$_Fn@V?$xalloc@U?$_Tree_node@U?$pair@$$CBVshared_str@@V1@@std@@PAX@std@@@@U?$pair@$$CBVshared_str@@V1@@std@@@_Alloc_destroy@std@@SAXU_Wrap_int@1@AAV?$xalloc@U?$_Tree_node@U?$pair@$$CBVshared_str@@V1@@std@@PAX@std@@@@PAU?$pair@$$CBVshared_str@@V1@@1@@Z 00940520 f i stdafx.obj
 0001:0003f590       ??$_Fn@V?$xalloc@U?$_Tree_node@U?$pair@QBDPAVFS_Path@@@std@@PAX@std@@@@U?$pair@QBDPAVFS_Path@@@std@@@_Alloc_destroy@std@@SAXU_Wrap_int@1@AAV?$xalloc@U?$_Tree_node@U?$pair@QBDPAVFS_Path@@@std@@PAX@std@@@@PAU?$pair@QBDPAVFS_Path@@@1@@Z 00940590 f i stdafx.obj
 0001:0003f5a0       ??$_Fn@V?$xalloc@U?$_Tree_node@Ufile@CLocatorAPI@@PAX@std@@@@Ufile@CLocatorAPI@@@_Alloc_destroy@std@@SAXU_Wrap_int@1@AAV?$xalloc@U?$_Tree_node@Ufile@CLocatorAPI@@PAX@std@@@@PAUfile@CLocatorAPI@@@Z 009405a0 f i stdafx.obj
 0001:0003f5b0       ??$_Fn@V?$xalloc@U?$_Tree_node@U?$pair@$$CBVshared_str@@U_FILE_ACCESS_STAT@@@std@@PAX@std@@@@U?$pair@$$CBVshared_str@@U_FILE_ACCESS_STAT@@@std@@@_Alloc_destroy@std@@SAXU_Wrap_int@1@AAV?$xalloc@U?$_Tree_node@U?$pair@$$CBVshared_str@@U_FILE_ACCESS_STAT@@@std@@PAX@std@@@@PAU?$pair@$$CBVshared_str@@U_FILE_ACCESS_STAT@@@1@@Z 009405b0 f i stdafx.obj
 0001:0003f600       ??$_Fn@V?$xalloc@U?$_Tree_node@U?$pair@$$CBVshared_str@@V?$xr_vector@PAVIReader@@V?$xalloc@PAVIReader@@@@@@@std@@PAX@std@@@@U?$pair@$$CBVshared_str@@V?$xr_vector@PAVIReader@@V?$xalloc@PAVIReader@@@@@@@std@@@_Alloc_destroy@std@@SAXU_Wrap_int@1@AAV?$xalloc@U?$_Tree_node@U?$pair@$$CBVshared_str@@V?$xr_vector@PAVIReader@@V?$xalloc@PAVIReader@@@@@@@std@@PAX@std@@@@PAU?$pair@$$CBVshared_str@@V?$xr_vector@PAVIReader@@V?$xalloc@PAVIReader@@@@@@@1@@Z 00940600 f i stdafx.obj
 0001:0003f610       ??$_Fn@V?$xalloc@U?$_Tree_node@U?$pair@$$CBV?$basic_string@DU?$char_traits@D@std@@V?$xalloc@D@@@std@@PAX@std@@PAX@std@@@@U?$pair@$$CBV?$basic_string@DU?$char_traits@D@std@@V?$xalloc@D@@@std@@PAX@std@@@_Alloc_destroy@std@@SAXU_Wrap_int@1@AAV?$xalloc@U?$_Tree_node@U?$pair@$$CBV?$basic_string@DU?$char_traits@D@std@@V?$xalloc@D@@@std@@PAX@std@@PAX@std@@@@PAU?$pair@$$CBV?$basic_string@DU?$char_traits@D@std@@V?$xalloc@D@@@std@@PAX@1@@Z 00940610 f i stdafx.obj
 0001:0003f670       ??$_Fn@V?$xalloc@U?$_Tree_node@PAUstr_value@@PAX@std@@@@PAU?$_Tree_node@PAUstr_value@@PAX@std@@AAPAU23@@_Alloc_construct@std@@SAXU_Wrap_int@1@AAV?$xalloc@U?$_Tree_node@PAUstr_value@@PAX@std@@@@PAPAU?$_Tree_node@PAUstr_value@@PAX@1@AAPAU41@@Z 00940670 f i stdafx.obj
 0001:0003f6b0       ??$_Fn@V?$xalloc@U?$_Tree_node@U?$pair@$$CBVshared_str@@PAUSect@CInifile@@@std@@PAX@std@@@@PAU?$_Tree_node@U?$pair@$$CBVshared_str@@PAUSect@CInifile@@@std@@PAX@std@@AAPAU23@@_Alloc_construct@std@@SAXU_Wrap_int@1@AAV?$xalloc@U?$_Tree_node@U?$pair@$$CBVshared_str@@PAUSect@CInifile@@@std@@PAX@std@@@@PAPAU?$_Tree_node@U?$pair@$$CBVshared_str@@PAUSect@CInifile@@@std@@PAX@1@AAPAU41@@Z 009406b0 f i stdafx.obj
 0001:0003f6f0       ??$_Fn@V?$xalloc@U?$_Tree_node@U?$pair@$$CBVshared_str@@V1@@std@@PAX@std@@@@PAU?$_Tree_node@U?$pair@$$CBVshared_str@@V1@@std@@PAX@std@@AAPAU23@@_Alloc_construct@std@@SAXU_Wrap_int@1@AAV?$xalloc@U?$_Tree_node@U?$pair@$$CBVshared_str@@V1@@std@@PAX@std@@@@PAPAU?$_Tree_node@U?$pair@$$CBVshared_str@@V1@@std@@PAX@1@AAPAU41@@Z 009406f0 f i stdafx.obj
 0001:0003f730       ??$_Fn@V?$xalloc@U?$_Tree_node@U?$pair@QBDPAVFS_Path@@@std@@PAX@std@@@@PAU?$_Tree_node@U?$pair@QBDPAVFS_Path@@@std@@PAX@std@@AAPAU23@@_Alloc_construct@std@@SAXU_Wrap_int@1@AAV?$xalloc@U?$_Tree_node@U?$pair@QBDPAVFS_Path@@@std@@PAX@std@@@@PAPAU?$_Tree_node@U?$pair@QBDPAVFS_Path@@@std@@PAX@1@AAPAU41@@Z 00940730 f i stdafx.obj
 0001:0003f770       ??$_Fn@V?$xalloc@U?$_Tree_node@Ufile@CLocatorAPI@@PAX@std@@@@PAU?$_Tree_node@Ufile@CLocatorAPI@@PAX@std@@AAPAU23@@_Alloc_construct@std@@SAXU_Wrap_int@1@AAV?$xalloc@U?$_Tree_node@Ufile@CLocatorAPI@@PAX@std@@@@PAPAU?$_Tree_node@Ufile@CLocatorAPI@@PAX@1@AAPAU41@@Z 00940770 f i stdafx.obj
 0001:0003f7b0       ??$_Fn@V?$xalloc@U?$_Tree_node@U?$pair@$$CBVshared_str@@U_FILE_ACCESS_STAT@@@std@@PAX@std@@@@PAU?$_Tree_node@U?$pair@$$CBVshared_str@@U_FILE_ACCESS_STAT@@@std@@PAX@std@@AAPAU23@@_Alloc_construct@std@@SAXU_Wrap_int@1@AAV?$xalloc@U?$_Tree_node@U?$pair@$$CBVshared_str@@U_FILE_ACCESS_STAT@@@std@@PAX@std@@@@PAPAU?$_Tree_node@U?$pair@$$CBVshared_str@@U_FILE_ACCESS_STAT@@@std@@PAX@1@AAPAU41@@Z 009407b0 f i stdafx.obj
 0001:0003f7f0       ??$_Fn@V?$xalloc@U?$_Tree_node@U?$pair@$$CBVshared_str@@V?$xr_vector@PAVIReader@@V?$xalloc@PAVIReader@@@@@@@std@@PAX@std@@@@PAU?$_Tree_node@U?$pair@$$CBVshared_str@@V?$xr_vector@PAVIReader@@V?$xalloc@PAVIReader@@@@@@@std@@PAX@std@@AAPAU23@@_Alloc_construct@std@@SAXU_Wrap_int@1@AAV?$xalloc@U?$_Tree_node@U?$pair@$$CBVshared_str@@V?$xr_vector@PAVIReader@@V?$xalloc@PAVIReader@@@@@@@std@@PAX@std@@@@PAPAU?$_Tree_node@U?$pair@$$CBVshared_str@@V?$xr_vector@PAVIReader@@V?$xalloc@PAVIReader@@@@@@@std@@PAX@1@AAPAU41@@Z 009407f0 f i stdafx.obj
 0001:0003f830       ??$_Fn@V?$xalloc@U?$_Tree_node@U?$pair@$$CBV?$basic_string@DU?$char_traits@D@std@@V?$xalloc@D@@@std@@PAX@std@@PAX@std@@@@PAU?$_Tree_node@U?$pair@$$CBV?$basic_string@DU?$char_traits@D@std@@V?$xalloc@D@@@std@@PAX@std@@PAX@std@@AAPAU23@@_Alloc_construct@std@@SAXU_Wrap_int@1@AAV?$xalloc@U?$_Tree_node@U?$pair@$$CBV?$basic_string@DU?$char_traits@D@std@@V?$xalloc@D@@@std@@PAX@std@@PAX@std@@@@PAPAU?$_Tree_node@U?$pair@$$CBV?$basic_string@DU?$char_traits@D@std@@V?$xalloc@D@@@std@@PAX@std@@PAX@1@AAPAU41@@Z 00940830 f i stdafx.obj
 0001:0003f870       ??_G?$pair@$$CBVshared_str@@PAUSect@CInifile@@@std@@QAEPAXI@Z 00940870 f i stdafx.obj
 0001:0003f8d0       ??_G?$pair@$$CBVshared_str@@V1@@std@@QAEPAXI@Z 009408d0 f i stdafx.obj
 0001:0003f950       ??_G?$pair@$$CBVshared_str@@U_FILE_ACCESS_STAT@@@std@@QAEPAXI@Z 00940950 f i stdafx.obj
 0001:0003f9b0       ??_G?$pair@$$CBVshared_str@@V?$xr_vector@PAVIReader@@V?$xalloc@PAVIReader@@@@@@@std@@QAEPAXI@Z 009409b0 f i stdafx.obj
 0001:0003fa50       ??_G?$pair@$$CBV?$basic_string@DU?$char_traits@D@std@@V?$xalloc@D@@@std@@PAX@std@@QAEPAXI@Z 00940a50 f i stdafx.obj
 0001:0003fac0       ??1?$pair@$$CBVshared_str@@PAUSect@CInifile@@@std@@QAE@XZ 00940ac0 f i stdafx.obj
 0001:0003fb10       ??1?$pair@$$CBVshared_str@@V1@@std@@QAE@XZ 00940b10 f i stdafx.obj
 0001:0003fb80       ??1?$pair@$$CBVshared_str@@U_FILE_ACCESS_STAT@@@std@@QAE@XZ 00940b80 f i stdafx.obj
 0001:0003fbd0       ??1?$pair@$$CBVshared_str@@V?$xr_vector@PAVIReader@@V?$xalloc@PAVIReader@@@@@@@std@@QAE@XZ 00940bd0 f i stdafx.obj
 0001:0003fc60       ??1?$pair@$$CBV?$basic_string@DU?$char_traits@D@std@@V?$xalloc@D@@@std@@PAX@std@@QAE@XZ 00940c60 f i stdafx.obj
 0001:0003fcc0       ??1?$xr_vector@PAVIReader@@V?$xalloc@PAVIReader@@@@@@QAE@XZ 00940cc0 f i stdafx.obj
 0001:0003fd20       ?_Unchecked@?$_Vector_const_iterator@V?$_Vector_val@U?$_Simple_types@I@std@@@std@@@std@@QBEPBIXZ 00940d20 f i stdafx.obj
 0001:0003fd30       ?_Unchecked@?$_Vector_const_iterator@V?$_Vector_val@U?$_Simple_types@PAUsmem_value@@@std@@@std@@@std@@QBEPBQAUsmem_value@@XZ 00940d30 f i stdafx.obj
 0001:0003fd40       ?_Unchecked@?$_Vector_const_iterator@V?$_Vector_val@U?$_Simple_types@UItem@CInifile@@@std@@@std@@@std@@QBEPBUItem@CInifile@@XZ 00940d40 f i stdafx.obj
 0001:0003fd50       ?_Unchecked@?$_Vector_const_iterator@V?$_Vector_val@U?$_Simple_types@Uarchive@CLocatorAPI@@@std@@@std@@@std@@QBEPBUarchive@CLocatorAPI@@XZ 00940d50 f i stdafx.obj
 0001:0003fd60       ?_Unchecked@?$_Vector_const_iterator@V?$_Vector_val@U?$_Simple_types@U_finddata64i32_t@@@std@@@std@@@std@@QBEPBU_finddata64i32_t@@XZ 00940d60 f i stdafx.obj
 0001:0003fd70       ?_Unchecked@?$_Vector_const_iterator@V?$_Vector_val@U?$_Simple_types@PAVCTimer_paused@@@std@@@std@@@std@@QBEPBQAVCTimer_paused@@XZ 00940d70 f i stdafx.obj
 0001:0003fd80       ??1?$vector@PAVIReader@@V?$xalloc@PAVIReader@@@@@std@@QAE@XZ 00940d80 f i stdafx.obj
 0001:0003fdb0       ?_Tidy@?$vector@PAVIReader@@V?$xalloc@PAVIReader@@@@@std@@IAEXXZ 00940db0 f i stdafx.obj
 0001:0003fde0       ?_Destroy@?$vector@PAVIReader@@V?$xalloc@PAVIReader@@@@@std@@IAEXPAPAVIReader@@0@Z 00940de0 f i stdafx.obj
 0001:0003fdf0       ?_Getal@?$_Vector_alloc@$0A@U?$_Vec_base_types@PAVIReader@@V?$xalloc@PAVIReader@@@@@std@@@std@@QBE?AU?$_Wrap_alloc@V?$xalloc@PAVIReader@@@@@2@XZ 00940df0 f i stdafx.obj
 0001:0003fe00       ?deallocate@?$_Wrap_alloc@V?$xalloc@PAVIReader@@@@@std@@QAEXPAPAVIReader@@I@Z 00940e00 f i stdafx.obj
 0001:0003fe20       ?deallocate@?$xalloc@PAVIReader@@@@QBEXPAPAVIReader@@I@Z 00940e20 f i stdafx.obj
 0001:0003fe40       ??0?$_Wrap_alloc@V?$xalloc@PAVIReader@@@@@std@@QAE@XZ 00940e40 f i stdafx.obj
 0001:0003fe50       ??0?$xalloc@PAVIReader@@@@QAE@XZ 00940e50 f i stdafx.obj
 0001:0003fe60       ??$_Ptr_cat@II@std@@YA?AU_Scalar_ptr_iterator_tag@0@PBIPAI@Z 00940e60 f i stdafx.obj
 0001:0003fe70       ??$_Uninit_copy@PBIPAIV?$xalloc@I@@@std@@YAPAIPBI0PAIAAU?$_Wrap_alloc@V?$xalloc@I@@@0@U_Scalar_ptr_iterator_tag@0@@Z 00940e70 f i stdafx.obj
 0001:0003fe90       ??$_Uninit_copy@PAIPAIV?$xalloc@I@@@std@@YAPAIPAI00AAU?$_Wrap_alloc@V?$xalloc@I@@@0@U_Scalar_ptr_iterator_tag@0@@Z 00940e90 f i stdafx.obj
 0001:0003feb0       ??$_Ptr_cat@PAUsmem_value@@PAU1@@std@@YA?AU_Scalar_ptr_iterator_tag@0@PBQAUsmem_value@@PAPAU2@@Z 00940eb0 f i stdafx.obj
 0001:0003fec0       ??$_Uninit_copy@PBQAUsmem_value@@PAPAU1@V?$xalloc@PAUsmem_value@@@@@std@@YAPAPAUsmem_value@@PBQAU1@0PAPAU1@AAU?$_Wrap_alloc@V?$xalloc@PAUsmem_value@@@@@0@U_Scalar_ptr_iterator_tag@0@@Z 00940ec0 f i stdafx.obj
 0001:0003fee0       ??$_Uninit_copy@PAPAUsmem_value@@PAPAU1@V?$xalloc@PAUsmem_value@@@@@std@@YAPAPAUsmem_value@@PAPAU1@00AAU?$_Wrap_alloc@V?$xalloc@PAUsmem_value@@@@@0@U_Scalar_ptr_iterator_tag@0@@Z 00940ee0 f i stdafx.obj
 0001:0003ff00       ??$_Ptr_cat@UItem@CInifile@@U12@@std@@YA?AU_Nonscalar_ptr_iterator_tag@0@PBUItem@CInifile@@PAU23@@Z 00940f00 f i stdafx.obj
 0001:0003ff10       ??$_Uninit_copy@PBUItem@CInifile@@PAU12@V?$xalloc@UItem@CInifile@@@@@std@@YAPAUItem@CInifile@@PBU12@0PAU12@AAU?$_Wrap_alloc@V?$xalloc@UItem@CInifile@@@@@0@U_Nonscalar_ptr_iterator_tag@0@@Z 00940f10 f i stdafx.obj
 0001:0003ffa0       ??$_Uninit_copy@PAUItem@CInifile@@PAU12@V?$xalloc@UItem@CInifile@@@@@std@@YAPAUItem@CInifile@@PAU12@00AAU?$_Wrap_alloc@V?$xalloc@UItem@CInifile@@@@@0@U_Nonscalar_ptr_iterator_tag@0@@Z 00940fa0 f i stdafx.obj
 0001:00040030       ??$_Ptr_cat@Uarchive@CLocatorAPI@@U12@@std@@YA?AU_Nonscalar_ptr_iterator_tag@0@PBUarchive@CLocatorAPI@@PAU23@@Z 00941030 f i stdafx.obj
 0001:00040040       ??$_Uninit_copy@PBUarchive@CLocatorAPI@@PAU12@V?$xalloc@Uarchive@CLocatorAPI@@@@@std@@YAPAUarchive@CLocatorAPI@@PBU12@0PAU12@AAU?$_Wrap_alloc@V?$xalloc@Uarchive@CLocatorAPI@@@@@0@U_Nonscalar_ptr_iterator_tag@0@@Z 00941040 f i stdafx.obj
 0001:00040120       ??$_Uninit_copy@PAUarchive@CLocatorAPI@@PAU12@V?$xalloc@Uarchive@CLocatorAPI@@@@@std@@YAPAUarchive@CLocatorAPI@@PAU12@00AAU?$_Wrap_alloc@V?$xalloc@Uarchive@CLocatorAPI@@@@@0@U_Nonscalar_ptr_iterator_tag@0@@Z 00941120 f i stdafx.obj
 0001:00040200       ??$_Ptr_cat@U_finddata64i32_t@@U1@@std@@YA?AU_Nonscalar_ptr_iterator_tag@0@PBU_finddata64i32_t@@PAU2@@Z 00941200 f i stdafx.obj
 0001:00040210       ??$_Uninit_copy@PBU_finddata64i32_t@@PAU1@V?$xalloc@U_finddata64i32_t@@@@@std@@YAPAU_finddata64i32_t@@PBU1@0PAU1@AAU?$_Wrap_alloc@V?$xalloc@U_finddata64i32_t@@@@@0@U_Nonscalar_ptr_iterator_tag@0@@Z 00941210 f i stdafx.obj
 0001:00040290       ??$_Uninit_copy@PAU_finddata64i32_t@@PAU1@V?$xalloc@U_finddata64i32_t@@@@@std@@YAPAU_finddata64i32_t@@PAU1@00AAU?$_Wrap_alloc@V?$xalloc@U_finddata64i32_t@@@@@0@U_Nonscalar_ptr_iterator_tag@0@@Z 00941290 f i stdafx.obj
 0001:00040310       ??$_Ptr_cat@PAVCTimer_paused@@PAV1@@std@@YA?AU_Scalar_ptr_iterator_tag@0@PBQAVCTimer_paused@@PAPAV2@@Z 00941310 f i stdafx.obj
 0001:00040320       ??$_Uninit_copy@PBQAVCTimer_paused@@PAPAV1@V?$xalloc@PAVCTimer_paused@@@@@std@@YAPAPAVCTimer_paused@@PBQAV1@0PAPAV1@AAU?$_Wrap_alloc@V?$xalloc@PAVCTimer_paused@@@@@0@U_Scalar_ptr_iterator_tag@0@@Z 00941320 f i stdafx.obj
 0001:00040340       ??$_Uninit_copy@PAPAVCTimer_paused@@PAPAV1@V?$xalloc@PAVCTimer_paused@@@@@std@@YAPAPAVCTimer_paused@@PAPAV1@00AAU?$_Wrap_alloc@V?$xalloc@PAVCTimer_paused@@@@@0@U_Scalar_ptr_iterator_tag@0@@Z 00941340 f i stdafx.obj
 0001:00040360       ??$_Buynode@AAPAUstr_value@@@?$_Tree_buy@PAUstr_value@@V?$xalloc@PAUstr_value@@@@@std@@QAEPAU?$_Tree_node@PAUstr_value@@PAX@1@AAPAUstr_value@@@Z 00941360 f i stdafx.obj
 0001:000403e0       ??$destroy@UItem@CInifile@@@?$allocator_traits@V?$xalloc@UItem@CInifile@@@@@std@@SAXAAV?$xalloc@UItem@CInifile@@@@PAUItem@CInifile@@@Z 009413e0 f i stdafx.obj
 0001:00040450       ??$_Buynode@AAU?$pair@$$CBVshared_str@@PAUSect@CInifile@@@std@@@?$_Tree_buy@U?$pair@$$CBVshared_str@@PAUSect@CInifile@@@std@@V?$xalloc@U?$pair@Vshared_str@@PAUSect@CInifile@@@std@@@@@std@@QAEPAU?$_Tree_node@U?$pair@$$CBVshared_str@@PAUSect@CInifile@@@std@@PAX@1@AAU?$pair@$$CBVshared_str@@PAUSect@CInifile@@@1@@Z 00941450 f i stdafx.obj
 0001:000404d0       ??$_Buynode@AAU?$pair@$$CBVshared_str@@V1@@std@@@?$_Tree_buy@U?$pair@$$CBVshared_str@@V1@@std@@V?$xalloc@U?$pair@Vshared_str@@V1@@std@@@@@std@@QAEPAU?$_Tree_node@U?$pair@$$CBVshared_str@@V1@@std@@PAX@1@AAU?$pair@$$CBVshared_str@@V1@@1@@Z 009414d0 f i stdafx.obj
 0001:00040550       ??$_Buynode@AAU?$pair@QBDPAVFS_Path@@@std@@@?$_Tree_buy@U?$pair@QBDPAVFS_Path@@@std@@V?$xalloc@U?$pair@PBDPAVFS_Path@@@std@@@@@std@@QAEPAU?$_Tree_node@U?$pair@QBDPAVFS_Path@@@std@@PAX@1@AAU?$pair@QBDPAVFS_Path@@@1@@Z 00941550 f i stdafx.obj
 0001:000405d0       ??$_Buynode@AAUfile@CLocatorAPI@@@?$_Tree_buy@Ufile@CLocatorAPI@@V?$xalloc@Ufile@CLocatorAPI@@@@@std@@QAEPAU?$_Tree_node@Ufile@CLocatorAPI@@PAX@1@AAUfile@CLocatorAPI@@@Z 009415d0 f i stdafx.obj
 0001:00040650       ??$destroy@Uarchive@CLocatorAPI@@@?$allocator_traits@V?$xalloc@Uarchive@CLocatorAPI@@@@@std@@SAXAAV?$xalloc@Uarchive@CLocatorAPI@@@@PAUarchive@CLocatorAPI@@@Z 00941650 f i stdafx.obj
 0001:000406a0       ??$destroy@U_finddata64i32_t@@@?$allocator_traits@V?$xalloc@U_finddata64i32_t@@@@@std@@SAXAAV?$xalloc@U_finddata64i32_t@@@@PAU_finddata64i32_t@@@Z 009416a0 f i stdafx.obj
 0001:000406b0       ??$_Buynode@AAU?$pair@$$CBVshared_str@@U_FILE_ACCESS_STAT@@@std@@@?$_Tree_buy@U?$pair@$$CBVshared_str@@U_FILE_ACCESS_STAT@@@std@@V?$xalloc@U?$pair@Vshared_str@@U_FILE_ACCESS_STAT@@@std@@@@@std@@QAEPAU?$_Tree_node@U?$pair@$$CBVshared_str@@U_FILE_ACCESS_STAT@@@std@@PAX@1@AAU?$pair@$$CBVshared_str@@U_FILE_ACCESS_STAT@@@1@@Z 009416b0 f i stdafx.obj
 0001:00040730       ??$_Buynode@AAU?$pair@$$CBVshared_str@@V?$xr_vector@PAVIReader@@V?$xalloc@PAVIReader@@@@@@@std@@@?$_Tree_buy@U?$pair@$$CBVshared_str@@V?$xr_vector@PAVIReader@@V?$xalloc@PAVIReader@@@@@@@std@@V?$xalloc@U?$pair@Vshared_str@@V?$xr_vector@PAVIReader@@V?$xalloc@PAVIReader@@@@@@@std@@@@@std@@QAEPAU?$_Tree_node@U?$pair@$$CBVshared_str@@V?$xr_vector@PAVIReader@@V?$xalloc@PAVIReader@@@@@@@std@@PAX@1@AAU?$pair@$$CBVshared_str@@V?$xr_vector@PAVIReader@@V?$xalloc@PAVIReader@@@@@@@1@@Z 00941730 f i stdafx.obj
 0001:000407b0       ??$_Buynode@AAU?$pair@$$CBV?$basic_string@DU?$char_traits@D@std@@V?$xalloc@D@@@std@@PAX@std@@@?$_Tree_buy@U?$pair@$$CBV?$basic_string@DU?$char_traits@D@std@@V?$xalloc@D@@@std@@PAX@std@@V?$xalloc@U?$pair@V?$basic_string@DU?$char_traits@D@std@@V?$xalloc@D@@@std@@PAX@std@@@@@std@@QAEPAU?$_Tree_node@U?$pair@$$CBV?$basic_string@DU?$char_traits@D@std@@V?$xalloc@D@@@std@@PAX@std@@PAX@1@AAU?$pair@$$CBV?$basic_string@DU?$char_traits@D@std@@V?$xalloc@D@@@std@@PAX@1@@Z 009417b0 f i stdafx.obj
 0001:00040830       ??$_Destroy_range@U?$_Wrap_alloc@V?$xalloc@PAVIReader@@@@@std@@@std@@YAXPAPAVIReader@@0AAU?$_Wrap_alloc@V?$xalloc@PAVIReader@@@@@0@@Z 00941830 f i stdafx.obj
 0001:00040840       ??$xr_free@PAVIReader@@@@YAXAAPAPAVIReader@@@Z 00941840 f i stdafx.obj
 0001:00040860       ?_Buynode0@?$_Tree_buy@PAUstr_value@@V?$xalloc@PAUstr_value@@@@@std@@QAEPAU?$_Tree_node@PAUstr_value@@PAX@2@XZ 00941860 f i stdafx.obj
 0001:000408f0       ?_Freenode0@?$_Tree_buy@PAUstr_value@@V?$xalloc@PAUstr_value@@@@@std@@QAEXPAU?$_Tree_node@PAUstr_value@@PAX@2@@Z 009418f0 f i stdafx.obj
 0001:00040910       ?_Buynode0@?$_Tree_buy@U?$pair@$$CBVshared_str@@PAUSect@CInifile@@@std@@V?$xalloc@U?$pair@Vshared_str@@PAUSect@CInifile@@@std@@@@@std@@QAEPAU?$_Tree_node@U?$pair@$$CBVshared_str@@PAUSect@CInifile@@@std@@PAX@2@XZ 00941910 f i stdafx.obj
 0001:000409a0       ?_Freenode0@?$_Tree_buy@U?$pair@$$CBVshared_str@@PAUSect@CInifile@@@std@@V?$xalloc@U?$pair@Vshared_str@@PAUSect@CInifile@@@std@@@@@std@@QAEXPAU?$_Tree_node@U?$pair@$$CBVshared_str@@PAUSect@CInifile@@@std@@PAX@2@@Z 009419a0 f i stdafx.obj
 0001:000409c0       ?_Buynode0@?$_Tree_buy@U?$pair@$$CBVshared_str@@V1@@std@@V?$xalloc@U?$pair@Vshared_str@@V1@@std@@@@@std@@QAEPAU?$_Tree_node@U?$pair@$$CBVshared_str@@V1@@std@@PAX@2@XZ 009419c0 f i stdafx.obj
 0001:00040a50       ?_Freenode0@?$_Tree_buy@U?$pair@$$CBVshared_str@@V1@@std@@V?$xalloc@U?$pair@Vshared_str@@V1@@std@@@@@std@@QAEXPAU?$_Tree_node@U?$pair@$$CBVshared_str@@V1@@std@@PAX@2@@Z 00941a50 f i stdafx.obj
 0001:00040a70       ?_Buynode0@?$_Tree_buy@U?$pair@QBDPAVFS_Path@@@std@@V?$xalloc@U?$pair@PBDPAVFS_Path@@@std@@@@@std@@QAEPAU?$_Tree_node@U?$pair@QBDPAVFS_Path@@@std@@PAX@2@XZ 00941a70 f i stdafx.obj
 0001:00040b00       ?_Freenode0@?$_Tree_buy@U?$pair@QBDPAVFS_Path@@@std@@V?$xalloc@U?$pair@PBDPAVFS_Path@@@std@@@@@std@@QAEXPAU?$_Tree_node@U?$pair@QBDPAVFS_Path@@@std@@PAX@2@@Z 00941b00 f i stdafx.obj
 0001:00040b20       ?_Buynode0@?$_Tree_buy@Ufile@CLocatorAPI@@V?$xalloc@Ufile@CLocatorAPI@@@@@std@@QAEPAU?$_Tree_node@Ufile@CLocatorAPI@@PAX@2@XZ 00941b20 f i stdafx.obj
 0001:00040bb0       ?_Freenode0@?$_Tree_buy@Ufile@CLocatorAPI@@V?$xalloc@Ufile@CLocatorAPI@@@@@std@@QAEXPAU?$_Tree_node@Ufile@CLocatorAPI@@PAX@2@@Z 00941bb0 f i stdafx.obj
 0001:00040bd0       ?_Buynode0@?$_Tree_buy@U?$pair@$$CBVshared_str@@U_FILE_ACCESS_STAT@@@std@@V?$xalloc@U?$pair@Vshared_str@@U_FILE_ACCESS_STAT@@@std@@@@@std@@QAEPAU?$_Tree_node@U?$pair@$$CBVshared_str@@U_FILE_ACCESS_STAT@@@std@@PAX@2@XZ 00941bd0 f i stdafx.obj
 0001:00040c60       ?_Freenode0@?$_Tree_buy@U?$pair@$$CBVshared_str@@U_FILE_ACCESS_STAT@@@std@@V?$xalloc@U?$pair@Vshared_str@@U_FILE_ACCESS_STAT@@@std@@@@@std@@QAEXPAU?$_Tree_node@U?$pair@$$CBVshared_str@@U_FILE_ACCESS_STAT@@@std@@PAX@2@@Z 00941c60 f i stdafx.obj
 0001:00040c80       ?_Buynode0@?$_Tree_buy@U?$pair@$$CBVshared_str@@V?$xr_vector@PAVIReader@@V?$xalloc@PAVIReader@@@@@@@std@@V?$xalloc@U?$pair@Vshared_str@@V?$xr_vector@PAVIReader@@V?$xalloc@PAVIReader@@@@@@@std@@@@@std@@QAEPAU?$_Tree_node@U?$pair@$$CBVshared_str@@V?$xr_vector@PAVIReader@@V?$xalloc@PAVIReader@@@@@@@std@@PAX@2@XZ 00941c80 f i stdafx.obj
 0001:00040d10       ?_Freenode0@?$_Tree_buy@U?$pair@$$CBVshared_str@@V?$xr_vector@PAVIReader@@V?$xalloc@PAVIReader@@@@@@@std@@V?$xalloc@U?$pair@Vshared_str@@V?$xr_vector@PAVIReader@@V?$xalloc@PAVIReader@@@@@@@std@@@@@std@@QAEXPAU?$_Tree_node@U?$pair@$$CBVshared_str@@V?$xr_vector@PAVIReader@@V?$xalloc@PAVIReader@@@@@@@std@@PAX@2@@Z 00941d10 f i stdafx.obj
 0001:00040d30       ?_Buynode0@?$_Tree_buy@U?$pair@$$CBV?$basic_string@DU?$char_traits@D@std@@V?$xalloc@D@@@std@@PAX@std@@V?$xalloc@U?$pair@V?$basic_string@DU?$char_traits@D@std@@V?$xalloc@D@@@std@@PAX@std@@@@@std@@QAEPAU?$_Tree_node@U?$pair@$$CBV?$basic_string@DU?$char_traits@D@std@@V?$xalloc@D@@@std@@PAX@std@@PAX@2@XZ 00941d30 f i stdafx.obj
 0001:00040dc0       ?_Freenode0@?$_Tree_buy@U?$pair@$$CBV?$basic_string@DU?$char_traits@D@std@@V?$xalloc@D@@@std@@PAX@std@@V?$xalloc@U?$pair@V?$basic_string@DU?$char_traits@D@std@@V?$xalloc@D@@@std@@PAX@std@@@@@std@@QAEXPAU?$_Tree_node@U?$pair@$$CBV?$basic_string@DU?$char_traits@D@std@@V?$xalloc@D@@@std@@PAX@std@@PAX@2@@Z 00941dc0 f i stdafx.obj
 0001:00040de0       ??$_Uninit_copy@PBIPAIV?$xalloc@I@@@std@@YAPAIPBI0PAIAAU?$_Wrap_alloc@V?$xalloc@I@@@0@U_Nonscalar_ptr_iterator_tag@0@@Z 00941de0 f i stdafx.obj
 0001:00040e50       ??$_Uninit_copy@PAIPAIV?$xalloc@I@@@std@@YAPAIPAI00AAU?$_Wrap_alloc@V?$xalloc@I@@@0@U_Nonscalar_ptr_iterator_tag@0@@Z 00941e50 f i stdafx.obj
 0001:00040ec0       ??$_Uninit_copy@PBQAUsmem_value@@PAPAU1@V?$xalloc@PAUsmem_value@@@@@std@@YAPAPAUsmem_value@@PBQAU1@0PAPAU1@AAU?$_Wrap_alloc@V?$xalloc@PAUsmem_value@@@@@0@U_Nonscalar_ptr_iterator_tag@0@@Z 00941ec0 f i stdafx.obj
 0001:00040f30       ??$_Uninit_copy@PAPAUsmem_value@@PAPAU1@V?$xalloc@PAUsmem_value@@@@@std@@YAPAPAUsmem_value@@PAPAU1@00AAU?$_Wrap_alloc@V?$xalloc@PAUsmem_value@@@@@0@U_Nonscalar_ptr_iterator_tag@0@@Z 00941f30 f i stdafx.obj
 0001:00040fa0       ??$construct@UItem@CInifile@@ABU12@@?$_Wrap_alloc@V?$xalloc@UItem@CInifile@@@@@std@@QAEXPAUItem@CInifile@@ABU23@@Z 00941fa0 f i stdafx.obj
 0001:00040ff0       ??$construct@UItem@CInifile@@AAU12@@?$_Wrap_alloc@V?$xalloc@UItem@CInifile@@@@@std@@QAEXPAUItem@CInifile@@AAU23@@Z 00941ff0 f i stdafx.obj
 0001:00041040       ??$construct@Uarchive@CLocatorAPI@@ABU12@@?$_Wrap_alloc@V?$xalloc@Uarchive@CLocatorAPI@@@@@std@@QAEXPAUarchive@CLocatorAPI@@ABU23@@Z 00942040 f i stdafx.obj
 0001:00041050       ??$construct@Uarchive@CLocatorAPI@@AAU12@@?$_Wrap_alloc@V?$xalloc@Uarchive@CLocatorAPI@@@@@std@@QAEXPAUarchive@CLocatorAPI@@AAU23@@Z 00942050 f i stdafx.obj
 0001:00041060       ??$construct@U_finddata64i32_t@@ABU1@@?$_Wrap_alloc@V?$xalloc@U_finddata64i32_t@@@@@std@@QAEXPAU_finddata64i32_t@@ABU2@@Z 00942060 f i stdafx.obj
 0001:000410b0       ??$construct@U_finddata64i32_t@@AAU1@@?$_Wrap_alloc@V?$xalloc@U_finddata64i32_t@@@@@std@@QAEXPAU_finddata64i32_t@@AAU2@@Z 009420b0 f i stdafx.obj
 0001:00041100       ??$_Uninit_copy@PBQAVCTimer_paused@@PAPAV1@V?$xalloc@PAVCTimer_paused@@@@@std@@YAPAPAVCTimer_paused@@PBQAV1@0PAPAV1@AAU?$_Wrap_alloc@V?$xalloc@PAVCTimer_paused@@@@@0@U_Nonscalar_ptr_iterator_tag@0@@Z 00942100 f i stdafx.obj
 0001:00041170       ??$_Uninit_copy@PAPAVCTimer_paused@@PAPAV1@V?$xalloc@PAVCTimer_paused@@@@@std@@YAPAPAVCTimer_paused@@PAPAV1@00AAU?$_Wrap_alloc@V?$xalloc@PAVCTimer_paused@@@@@0@U_Nonscalar_ptr_iterator_tag@0@@Z 00942170 f i stdafx.obj
 0001:000411e0       ??$forward@AAPAUstr_value@@@std@@YAAAPAUstr_value@@AAPAU1@@Z 009421e0 f i stdafx.obj
 0001:000411f0       ??$construct@PAUstr_value@@AAPAU1@@?$_Wrap_alloc@V?$xalloc@U?$_Tree_node@PAUstr_value@@PAX@std@@@@@std@@QAEXPAPAUstr_value@@AAPAU2@@Z 009421f0 f i stdafx.obj
 0001:00041240       ??$_Fn@V?$xalloc@UItem@CInifile@@@@UItem@CInifile@@@_Alloc_destroy@std@@SAXHAAV?$xalloc@UItem@CInifile@@@@PAUItem@CInifile@@@Z 00942240 f i stdafx.obj
 0001:000412b0       ??$forward@AAU?$pair@$$CBVshared_str@@PAUSect@CInifile@@@std@@@std@@YAAAU?$pair@$$CBVshared_str@@PAUSect@CInifile@@@0@AAU10@@Z 009422b0 f i stdafx.obj
 0001:000412c0       ??$construct@U?$pair@$$CBVshared_str@@PAUSect@CInifile@@@std@@AAU12@@?$_Wrap_alloc@V?$xalloc@U?$_Tree_node@U?$pair@$$CBVshared_str@@PAUSect@CInifile@@@std@@PAX@std@@@@@std@@QAEXPAU?$pair@$$CBVshared_str@@PAUSect@CInifile@@@1@AAU21@@Z 009422c0 f i stdafx.obj
 0001:000412e0       ??$forward@AAU?$pair@$$CBVshared_str@@V1@@std@@@std@@YAAAU?$pair@$$CBVshared_str@@V1@@0@AAU10@@Z 009422e0 f i stdafx.obj
 0001:000412f0       ??$construct@U?$pair@$$CBVshared_str@@V1@@std@@AAU12@@?$_Wrap_alloc@V?$xalloc@U?$_Tree_node@U?$pair@$$CBVshared_str@@V1@@std@@PAX@std@@@@@std@@QAEXPAU?$pair@$$CBVshared_str@@V1@@1@AAU21@@Z 009422f0 f i stdafx.obj
 0001:00041340       ??$forward@AAU?$pair@QBDPAVFS_Path@@@std@@@std@@YAAAU?$pair@QBDPAVFS_Path@@@0@AAU10@@Z 00942340 f i stdafx.obj
 0001:00041350       ??$construct@U?$pair@QBDPAVFS_Path@@@std@@AAU12@@?$_Wrap_alloc@V?$xalloc@U?$_Tree_node@U?$pair@QBDPAVFS_Path@@@std@@PAX@std@@@@@std@@QAEXPAU?$pair@QBDPAVFS_Path@@@1@AAU21@@Z 00942350 f i stdafx.obj
 0001:000413a0       ??$forward@AAUfile@CLocatorAPI@@@std@@YAAAUfile@CLocatorAPI@@AAU12@@Z 009423a0 f i stdafx.obj
 0001:000413b0       ??$construct@Ufile@CLocatorAPI@@AAU12@@?$_Wrap_alloc@V?$xalloc@U?$_Tree_node@Ufile@CLocatorAPI@@PAX@std@@@@@std@@QAEXPAUfile@CLocatorAPI@@AAU23@@Z 009423b0 f i stdafx.obj
 0001:00041420       ??$_Fn@V?$xalloc@Uarchive@CLocatorAPI@@@@Uarchive@CLocatorAPI@@@_Alloc_destroy@std@@SAXHAAV?$xalloc@Uarchive@CLocatorAPI@@@@PAUarchive@CLocatorAPI@@@Z 00942420 f i stdafx.obj
 0001:00041470       ??$_Fn@V?$xalloc@U_finddata64i32_t@@@@U_finddata64i32_t@@@_Alloc_destroy@std@@SAXHAAV?$xalloc@U_finddata64i32_t@@@@PAU_finddata64i32_t@@@Z 00942470 f i stdafx.obj
 0001:00041480       ??$forward@AAU?$pair@$$CBVshared_str@@U_FILE_ACCESS_STAT@@@std@@@std@@YAAAU?$pair@$$CBVshared_str@@U_FILE_ACCESS_STAT@@@0@AAU10@@Z 00942480 f i stdafx.obj
 0001:00041490       ??$construct@U?$pair@$$CBVshared_str@@U_FILE_ACCESS_STAT@@@std@@AAU12@@?$_Wrap_alloc@V?$xalloc@U?$_Tree_node@U?$pair@$$CBVshared_str@@U_FILE_ACCESS_STAT@@@std@@PAX@std@@@@@std@@QAEXPAU?$pair@$$CBVshared_str@@U_FILE_ACCESS_STAT@@@1@AAU21@@Z 00942490 f i stdafx.obj
 0001:000414e0       ??$forward@AAU?$pair@$$CBVshared_str@@V?$xr_vector@PAVIReader@@V?$xalloc@PAVIReader@@@@@@@std@@@std@@YAAAU?$pair@$$CBVshared_str@@V?$xr_vector@PAVIReader@@V?$xalloc@PAVIReader@@@@@@@0@AAU10@@Z 009424e0 f i stdafx.obj
 0001:000414f0       ??$construct@U?$pair@$$CBVshared_str@@V?$xr_vector@PAVIReader@@V?$xalloc@PAVIReader@@@@@@@std@@AAU12@@?$_Wrap_alloc@V?$xalloc@U?$_Tree_node@U?$pair@$$CBVshared_str@@V?$xr_vector@PAVIReader@@V?$xalloc@PAVIReader@@@@@@@std@@PAX@std@@@@@std@@QAEXPAU?$pair@$$CBVshared_str@@V?$xr_vector@PAVIReader@@V?$xalloc@PAVIReader@@@@@@@1@AAU21@@Z 009424f0 f i stdafx.obj
 0001:00041510       ??$forward@AAU?$pair@$$CBV?$basic_string@DU?$char_traits@D@std@@V?$xalloc@D@@@std@@PAX@std@@@std@@YAAAU?$pair@$$CBV?$basic_string@DU?$char_traits@D@std@@V?$xalloc@D@@@std@@PAX@0@AAU10@@Z 00942510 f i stdafx.obj
 0001:00041520       ??$construct@U?$pair@$$CBV?$basic_string@DU?$char_traits@D@std@@V?$xalloc@D@@@std@@PAX@std@@AAU12@@?$_Wrap_alloc@V?$xalloc@U?$_Tree_node@U?$pair@$$CBV?$basic_string@DU?$char_traits@D@std@@V?$xalloc@D@@@std@@PAX@std@@PAX@std@@@@@std@@QAEXPAU?$pair@$$CBV?$basic_string@DU?$char_traits@D@std@@V?$xalloc@D@@@std@@PAX@1@AAU21@@Z 00942520 f i stdafx.obj
 0001:000415a0       ??$_Ptr_cat@PAVIReader@@PAV1@@std@@YA?AU_Scalar_ptr_iterator_tag@0@PAPAVIReader@@0@Z 009425a0 f i stdafx.obj
 0001:000415b0       ??$_Destroy_range@U?$_Wrap_alloc@V?$xalloc@PAVIReader@@@@@std@@@std@@YAXPAPAVIReader@@0AAU?$_Wrap_alloc@V?$xalloc@PAVIReader@@@@@0@U_Scalar_ptr_iterator_tag@0@@Z 009425b0 f i stdafx.obj
 0001:000415c0       ?destroy@?$xalloc@UItem@CInifile@@@@QAEXPAUItem@CInifile@@@Z 009425c0 f i stdafx.obj
 0001:00041630       ?destroy@?$xalloc@Uarchive@CLocatorAPI@@@@QAEXPAUarchive@CLocatorAPI@@@Z 00942630 f i stdafx.obj
 0001:00041680       ?destroy@?$xalloc@U_finddata64i32_t@@@@QAEXPAU_finddata64i32_t@@@Z 00942680 f i stdafx.obj
 0001:00041690       ??$construct@IABI@?$_Wrap_alloc@V?$xalloc@I@@@std@@QAEXPAIABI@Z 00942690 f i stdafx.obj
 0001:000416e0       ??$destroy@I@?$_Wrap_alloc@V?$xalloc@I@@@std@@QAEXPAI@Z 009426e0 f i stdafx.obj
 0001:000416f0       ??$construct@IAAI@?$_Wrap_alloc@V?$xalloc@I@@@std@@QAEXPAIAAI@Z 009426f0 f i stdafx.obj
 0001:00041740       ??$construct@PAUsmem_value@@ABQAU1@@?$_Wrap_alloc@V?$xalloc@PAUsmem_value@@@@@std@@QAEXPAPAUsmem_value@@ABQAU2@@Z 00942740 f i stdafx.obj
 0001:00041790       ??$destroy@PAUsmem_value@@@?$_Wrap_alloc@V?$xalloc@PAUsmem_value@@@@@std@@QAEXPAPAUsmem_value@@@Z 00942790 f i stdafx.obj
 0001:000417a0       ??$construct@PAUsmem_value@@AAPAU1@@?$_Wrap_alloc@V?$xalloc@PAUsmem_value@@@@@std@@QAEXPAPAUsmem_value@@AAPAU2@@Z 009427a0 f i stdafx.obj
 0001:000417f0       ??$forward@ABUItem@CInifile@@@std@@YAABUItem@CInifile@@ABU12@@Z 009427f0 f i stdafx.obj
 0001:00041800       ??$construct@UItem@CInifile@@ABU12@@?$allocator_traits@V?$xalloc@UItem@CInifile@@@@@std@@SAXAAV?$xalloc@UItem@CInifile@@@@PAUItem@CInifile@@ABU34@@Z 00942800 f i stdafx.obj
 0001:00041850       ??$forward@AAUItem@CInifile@@@std@@YAAAUItem@CInifile@@AAU12@@Z 00942850 f i stdafx.obj
 0001:00041860       ??$construct@UItem@CInifile@@AAU12@@?$allocator_traits@V?$xalloc@UItem@CInifile@@@@@std@@SAXAAV?$xalloc@UItem@CInifile@@@@PAUItem@CInifile@@AAU34@@Z 00942860 f i stdafx.obj
 0001:000418b0       ??$forward@ABUarchive@CLocatorAPI@@@std@@YAABUarchive@CLocatorAPI@@ABU12@@Z 009428b0 f i stdafx.obj
 0001:000418c0       ??$construct@Uarchive@CLocatorAPI@@ABU12@@?$allocator_traits@V?$xalloc@Uarchive@CLocatorAPI@@@@@std@@SAXAAV?$xalloc@Uarchive@CLocatorAPI@@@@PAUarchive@CLocatorAPI@@ABU34@@Z 009428c0 f i stdafx.obj
 0001:000418d0       ??$forward@AAUarchive@CLocatorAPI@@@std@@YAAAUarchive@CLocatorAPI@@AAU12@@Z 009428d0 f i stdafx.obj
 0001:000418e0       ??$construct@Uarchive@CLocatorAPI@@AAU12@@?$allocator_traits@V?$xalloc@Uarchive@CLocatorAPI@@@@@std@@SAXAAV?$xalloc@Uarchive@CLocatorAPI@@@@PAUarchive@CLocatorAPI@@AAU34@@Z 009428e0 f i stdafx.obj
 0001:000418f0       ??$forward@ABU_finddata64i32_t@@@std@@YAABU_finddata64i32_t@@ABU1@@Z 009428f0 f i stdafx.obj
 0001:00041900       ??$construct@U_finddata64i32_t@@ABU1@@?$allocator_traits@V?$xalloc@U_finddata64i32_t@@@@@std@@SAXAAV?$xalloc@U_finddata64i32_t@@@@PAU_finddata64i32_t@@ABU3@@Z 00942900 f i stdafx.obj
 0001:00041950       ??$forward@AAU_finddata64i32_t@@@std@@YAAAU_finddata64i32_t@@AAU1@@Z 00942950 f i stdafx.obj
 0001:00041960       ??$construct@U_finddata64i32_t@@AAU1@@?$allocator_traits@V?$xalloc@U_finddata64i32_t@@@@@std@@SAXAAV?$xalloc@U_finddata64i32_t@@@@PAU_finddata64i32_t@@AAU3@@Z 00942960 f i stdafx.obj
 0001:000419b0       ??$construct@PAUstr_value@@AAPAU1@@?$allocator_traits@V?$xalloc@U?$_Tree_node@PAUstr_value@@PAX@std@@@@@std@@SAXAAV?$xalloc@U?$_Tree_node@PAUstr_value@@PAX@std@@@@PAPAUstr_value@@AAPAU3@@Z 009429b0 f i stdafx.obj
 0001:000419f0       ??$construct@U?$pair@$$CBVshared_str@@PAUSect@CInifile@@@std@@AAU12@@?$allocator_traits@V?$xalloc@U?$_Tree_node@U?$pair@$$CBVshared_str@@PAUSect@CInifile@@@std@@PAX@std@@@@@std@@SAXAAV?$xalloc@U?$_Tree_node@U?$pair@$$CBVshared_str@@PAUSect@CInifile@@@std@@PAX@std@@@@PAU?$pair@$$CBVshared_str@@PAUSect@CInifile@@@1@AAU31@@Z 009429f0 f i stdafx.obj
 0001:00041a00       ??$construct@U?$pair@$$CBVshared_str@@V1@@std@@AAU12@@?$allocator_traits@V?$xalloc@U?$_Tree_node@U?$pair@$$CBVshared_str@@V1@@std@@PAX@std@@@@@std@@SAXAAV?$xalloc@U?$_Tree_node@U?$pair@$$CBVshared_str@@V1@@std@@PAX@std@@@@PAU?$pair@$$CBVshared_str@@V1@@1@AAU31@@Z 00942a00 f i stdafx.obj
 0001:00041a50       ??$construct@U?$pair@QBDPAVFS_Path@@@std@@AAU12@@?$allocator_traits@V?$xalloc@U?$_Tree_node@U?$pair@QBDPAVFS_Path@@@std@@PAX@std@@@@@std@@SAXAAV?$xalloc@U?$_Tree_node@U?$pair@QBDPAVFS_Path@@@std@@PAX@std@@@@PAU?$pair@QBDPAVFS_Path@@@1@AAU31@@Z 00942a50 f i stdafx.obj
 0001:00041aa0       ??$construct@Ufile@CLocatorAPI@@AAU12@@?$allocator_traits@V?$xalloc@U?$_Tree_node@Ufile@CLocatorAPI@@PAX@std@@@@@std@@SAXAAV?$xalloc@U?$_Tree_node@Ufile@CLocatorAPI@@PAX@std@@@@PAUfile@CLocatorAPI@@AAU34@@Z 00942aa0 f i stdafx.obj
 0001:00041b10       ??$construct@U?$pair@$$CBVshared_str@@U_FILE_ACCESS_STAT@@@std@@AAU12@@?$allocator_traits@V?$xalloc@U?$_Tree_node@U?$pair@$$CBVshared_str@@U_FILE_ACCESS_STAT@@@std@@PAX@std@@@@@std@@SAXAAV?$xalloc@U?$_Tree_node@U?$pair@$$CBVshared_str@@U_FILE_ACCESS_STAT@@@std@@PAX@std@@@@PAU?$pair@$$CBVshared_str@@U_FILE_ACCESS_STAT@@@1@AAU31@@Z 00942b10 f i stdafx.obj
 0001:00041b60       ??$construct@U?$pair@$$CBVshared_str@@V?$xr_vector@PAVIReader@@V?$xalloc@PAVIReader@@@@@@@std@@AAU12@@?$allocator_traits@V?$xalloc@U?$_Tree_node@U?$pair@$$CBVshared_str@@V?$xr_vector@PAVIReader@@V?$xalloc@PAVIReader@@@@@@@std@@PAX@std@@@@@std@@SAXAAV?$xalloc@U?$_Tree_node@U?$pair@$$CBVshared_str@@V?$xr_vector@PAVIReader@@V?$xalloc@PAVIReader@@@@@@@std@@PAX@std@@@@PAU?$pair@$$CBVshared_str@@V?$xr_vector@PAVIReader@@V?$xalloc@PAVIReader@@@@@@@1@AAU31@@Z 00942b60 f i stdafx.obj
 0001:00041b70       ??$construct@U?$pair@$$CBV?$basic_string@DU?$char_traits@D@std@@V?$xalloc@D@@@std@@PAX@std@@AAU12@@?$allocator_traits@V?$xalloc@U?$_Tree_node@U?$pair@$$CBV?$basic_string@DU?$char_traits@D@std@@V?$xalloc@D@@@std@@PAX@std@@PAX@std@@@@@std@@SAXAAV?$xalloc@U?$_Tree_node@U?$pair@$$CBV?$basic_string@DU?$char_traits@D@std@@V?$xalloc@D@@@std@@PAX@std@@PAX@std@@@@PAU?$pair@$$CBV?$basic_string@DU?$char_traits@D@std@@V?$xalloc@D@@@std@@PAX@1@AAU31@@Z 00942b70 f i stdafx.obj
 0001:00041bf0       ??$_Destroy@UItem@CInifile@@@std@@YAXPAUItem@CInifile@@@Z 00942bf0 f i stdafx.obj
 0001:00041c60       ??$_Destroy@Uarchive@CLocatorAPI@@@std@@YAXPAUarchive@CLocatorAPI@@@Z 00942c60 f i stdafx.obj
 0001:00041cb0       ??$_Destroy@U_finddata64i32_t@@@std@@YAXPAU_finddata64i32_t@@@Z 00942cb0 f i stdafx.obj
 0001:00041cc0       ??_GItem@CInifile@@QAEPAXI@Z 00942cc0 f i stdafx.obj
 0001:00041d40       ??_Garchive@CLocatorAPI@@QAEPAXI@Z 00942d40 f i stdafx.obj
 0001:00041da0       ??1archive@CLocatorAPI@@QAE@XZ 00942da0 f i stdafx.obj
 0001:00041df0       ??$forward@ABI@std@@YAABIABI@Z 00942df0 f i stdafx.obj
 0001:00041e00       ??$construct@IABI@?$allocator_traits@V?$xalloc@I@@@std@@SAXAAV?$xalloc@I@@PAIABI@Z 00942e00 f i stdafx.obj
 0001:00041e40       ??$destroy@I@?$allocator_traits@V?$xalloc@I@@@std@@SAXAAV?$xalloc@I@@PAI@Z 00942e40 f i stdafx.obj
 0001:00041e50       ??$forward@AAI@std@@YAAAIAAI@Z 00942e50 f i stdafx.obj
 0001:00041e60       ??$construct@IAAI@?$allocator_traits@V?$xalloc@I@@@std@@SAXAAV?$xalloc@I@@PAIAAI@Z 00942e60 f i stdafx.obj
 0001:00041ea0       ??$forward@ABQAUsmem_value@@@std@@YAABQAUsmem_value@@ABQAU1@@Z 00942ea0 f i stdafx.obj
 0001:00041eb0       ??$construct@PAUsmem_value@@ABQAU1@@?$allocator_traits@V?$xalloc@PAUsmem_value@@@@@std@@SAXAAV?$xalloc@PAUsmem_value@@@@PAPAUsmem_value@@ABQAU3@@Z 00942eb0 f i stdafx.obj
 0001:00041ef0       ??$destroy@PAUsmem_value@@@?$allocator_traits@V?$xalloc@PAUsmem_value@@@@@std@@SAXAAV?$xalloc@PAUsmem_value@@@@PAPAUsmem_value@@@Z 00942ef0 f i stdafx.obj
 0001:00041f00       ??$forward@AAPAUsmem_value@@@std@@YAAAPAUsmem_value@@AAPAU1@@Z 00942f00 f i stdafx.obj
 0001:00041f10       ??$construct@PAUsmem_value@@AAPAU1@@?$allocator_traits@V?$xalloc@PAUsmem_value@@@@@std@@SAXAAV?$xalloc@PAUsmem_value@@@@PAPAUsmem_value@@AAPAU3@@Z 00942f10 f i stdafx.obj
 0001:00041f50       ??$_Fn@V?$xalloc@UItem@CInifile@@@@UItem@CInifile@@ABU23@@_Alloc_construct@std@@SAXHAAV?$xalloc@UItem@CInifile@@@@PAUItem@CInifile@@ABU34@@Z 00942f50 f i stdafx.obj
 0001:00041fa0       ??$_Fn@V?$xalloc@UItem@CInifile@@@@UItem@CInifile@@AAU23@@_Alloc_construct@std@@SAXHAAV?$xalloc@UItem@CInifile@@@@PAUItem@CInifile@@AAU34@@Z 00942fa0 f i stdafx.obj
 0001:00041ff0       ??$_Fn@V?$xalloc@Uarchive@CLocatorAPI@@@@Uarchive@CLocatorAPI@@ABU23@@_Alloc_construct@std@@SAXHAAV?$xalloc@Uarchive@CLocatorAPI@@@@PAUarchive@CLocatorAPI@@ABU34@@Z 00942ff0 f i stdafx.obj
 0001:00042000       ??$_Fn@V?$xalloc@Uarchive@CLocatorAPI@@@@Uarchive@CLocatorAPI@@AAU23@@_Alloc_construct@std@@SAXHAAV?$xalloc@Uarchive@CLocatorAPI@@@@PAUarchive@CLocatorAPI@@AAU34@@Z 00943000 f i stdafx.obj
 0001:00042010       ??$_Fn@V?$xalloc@U_finddata64i32_t@@@@U_finddata64i32_t@@ABU2@@_Alloc_construct@std@@SAXHAAV?$xalloc@U_finddata64i32_t@@@@PAU_finddata64i32_t@@ABU3@@Z 00943010 f i stdafx.obj
 0001:00042060       ??$_Fn@V?$xalloc@U_finddata64i32_t@@@@U_finddata64i32_t@@AAU2@@_Alloc_construct@std@@SAXHAAV?$xalloc@U_finddata64i32_t@@@@PAU_finddata64i32_t@@AAU3@@Z 00943060 f i stdafx.obj
 0001:000420b0       ??$_Fn@V?$xalloc@U?$_Tree_node@PAUstr_value@@PAX@std@@@@PAUstr_value@@AAPAU2@@_Alloc_construct@std@@SAXU_Wrap_int@1@AAV?$xalloc@U?$_Tree_node@PAUstr_value@@PAX@std@@@@PAPAUstr_value@@AAPAU4@@Z 009430b0 f i stdafx.obj
 0001:000420f0       ??$_Fn@V?$xalloc@U?$_Tree_node@U?$pair@$$CBVshared_str@@PAUSect@CInifile@@@std@@PAX@std@@@@U?$pair@$$CBVshared_str@@PAUSect@CInifile@@@std@@AAU23@@_Alloc_construct@std@@SAXU_Wrap_int@1@AAV?$xalloc@U?$_Tree_node@U?$pair@$$CBVshared_str@@PAUSect@CInifile@@@std@@PAX@std@@@@PAU?$pair@$$CBVshared_str@@PAUSect@CInifile@@@1@AAU41@@Z 009430f0 f i stdafx.obj
 0001:00042180       ??$_Fn@V?$xalloc@U?$_Tree_node@U?$pair@$$CBVshared_str@@V1@@std@@PAX@std@@@@U?$pair@$$CBVshared_str@@V1@@std@@AAU23@@_Alloc_construct@std@@SAXU_Wrap_int@1@AAV?$xalloc@U?$_Tree_node@U?$pair@$$CBVshared_str@@V1@@std@@PAX@std@@@@PAU?$pair@$$CBVshared_str@@V1@@1@AAU41@@Z 00943180 f i stdafx.obj
 0001:000421d0       ??$_Fn@V?$xalloc@U?$_Tree_node@U?$pair@QBDPAVFS_Path@@@std@@PAX@std@@@@U?$pair@QBDPAVFS_Path@@@std@@AAU23@@_Alloc_construct@std@@SAXU_Wrap_int@1@AAV?$xalloc@U?$_Tree_node@U?$pair@QBDPAVFS_Path@@@std@@PAX@std@@@@PAU?$pair@QBDPAVFS_Path@@@1@AAU41@@Z 009431d0 f i stdafx.obj
 0001:00042220       ??$_Fn@V?$xalloc@U?$_Tree_node@Ufile@CLocatorAPI@@PAX@std@@@@Ufile@CLocatorAPI@@AAU23@@_Alloc_construct@std@@SAXU_Wrap_int@1@AAV?$xalloc@U?$_Tree_node@Ufile@CLocatorAPI@@PAX@std@@@@PAUfile@CLocatorAPI@@AAU45@@Z 00943220 f i stdafx.obj
 0001:00042290       ??$_Fn@V?$xalloc@U?$_Tree_node@U?$pair@$$CBVshared_str@@U_FILE_ACCESS_STAT@@@std@@PAX@std@@@@U?$pair@$$CBVshared_str@@U_FILE_ACCESS_STAT@@@std@@AAU23@@_Alloc_construct@std@@SAXU_Wrap_int@1@AAV?$xalloc@U?$_Tree_node@U?$pair@$$CBVshared_str@@U_FILE_ACCESS_STAT@@@std@@PAX@std@@@@PAU?$pair@$$CBVshared_str@@U_FILE_ACCESS_STAT@@@1@AAU41@@Z 00943290 f i stdafx.obj
 0001:000422e0       ??$_Fn@V?$xalloc@U?$_Tree_node@U?$pair@$$CBVshared_str@@V?$xr_vector@PAVIReader@@V?$xalloc@PAVIReader@@@@@@@std@@PAX@std@@@@U?$pair@$$CBVshared_str@@V?$xr_vector@PAVIReader@@V?$xalloc@PAVIReader@@@@@@@std@@AAU23@@_Alloc_construct@std@@SAXU_Wrap_int@1@AAV?$xalloc@U?$_Tree_node@U?$pair@$$CBVshared_str@@V?$xr_vector@PAVIReader@@V?$xalloc@PAVIReader@@@@@@@std@@PAX@std@@@@PAU?$pair@$$CBVshared_str@@V?$xr_vector@PAVIReader@@V?$xalloc@PAVIReader@@@@@@@1@AAU41@@Z 009432e0 f i stdafx.obj
 0001:00042380       ??$_Fn@V?$xalloc@U?$_Tree_node@U?$pair@$$CBV?$basic_string@DU?$char_traits@D@std@@V?$xalloc@D@@@std@@PAX@std@@PAX@std@@@@U?$pair@$$CBV?$basic_string@DU?$char_traits@D@std@@V?$xalloc@D@@@std@@PAX@std@@AAU23@@_Alloc_construct@std@@SAXU_Wrap_int@1@AAV?$xalloc@U?$_Tree_node@U?$pair@$$CBV?$basic_string@DU?$char_traits@D@std@@V?$xalloc@D@@@std@@PAX@std@@PAX@std@@@@PAU?$pair@$$CBV?$basic_string@DU?$char_traits@D@std@@V?$xalloc@D@@@std@@PAX@1@AAU41@@Z 00943380 f i stdafx.obj
 0001:00042400       ??0?$pair@$$CBVshared_str@@PAUSect@CInifile@@@std@@QAE@ABU01@@Z 00943400 f i stdafx.obj
 0001:00042470       ??0?$pair@$$CBVshared_str@@V1@@std@@QAE@ABU01@@Z 00943470 f i stdafx.obj
 0001:00042510       ??0?$pair@$$CBVshared_str@@U_FILE_ACCESS_STAT@@@std@@QAE@ABU01@@Z 00943510 f i stdafx.obj
 0001:000425a0       ??0?$pair@$$CBVshared_str@@V?$xr_vector@PAVIReader@@V?$xalloc@PAVIReader@@@@@@@std@@QAE@ABU01@@Z 009435a0 f i stdafx.obj
 0001:00042620       ??0?$pair@$$CBV?$basic_string@DU?$char_traits@D@std@@V?$xalloc@D@@@std@@PAX@std@@QAE@ABU01@@Z 00943620 f i stdafx.obj
 0001:00042690       ??0?$xr_vector@PAVIReader@@V?$xalloc@PAVIReader@@@@@@QAE@ABV0@@Z 00943690 f i stdafx.obj
 0001:000426e0       ?construct@?$xalloc@UItem@CInifile@@@@QAEXPAUItem@CInifile@@ABU23@@Z 009436e0 f i stdafx.obj
 0001:00042730       ?construct@?$xalloc@Uarchive@CLocatorAPI@@@@QAEXPAUarchive@CLocatorAPI@@ABU23@@Z 00943730 f i stdafx.obj
 0001:00042740       ?construct@?$xalloc@U_finddata64i32_t@@@@QAEXPAU_finddata64i32_t@@ABU2@@Z 00943740 f i stdafx.obj
 0001:00042790       ??0?$vector@PAVIReader@@V?$xalloc@PAVIReader@@@@@std@@QAE@ABV01@@Z 00943790 f i stdafx.obj
 0001:00042860       ?begin@?$vector@PAVIReader@@V?$xalloc@PAVIReader@@@@@std@@QBE?AV?$_Vector_const_iterator@V?$_Vector_val@U?$_Simple_types@PAVIReader@@@std@@@std@@@2@XZ 00943860 f i stdafx.obj
 0001:00042870       ?end@?$vector@PAVIReader@@V?$xalloc@PAVIReader@@@@@std@@QBE?AV?$_Vector_const_iterator@V?$_Vector_val@U?$_Simple_types@PAVIReader@@@std@@@std@@@2@XZ 00943870 f i stdafx.obj
 0001:00042880       ?size@?$vector@PAVIReader@@V?$xalloc@PAVIReader@@@@@std@@QBEIXZ 00943880 f i stdafx.obj
 0001:00042890       ?_Buy@?$vector@PAVIReader@@V?$xalloc@PAVIReader@@@@@std@@IAE_NI@Z 00943890 f i stdafx.obj
 0001:000428f0       ??0?$_Vector_alloc@$0A@U?$_Vec_base_types@PAVIReader@@V?$xalloc@PAVIReader@@@@@std@@@std@@QAE@ABV?$xalloc@PAVIReader@@@@@Z 009438f0 f i stdafx.obj
 0001:00042910       ?select_on_container_copy_construction@?$_Wrap_alloc@V?$xalloc@PAVIReader@@@@@std@@QBE?AU12@XZ 00943910 f i stdafx.obj
 0001:00042920       ?max_size@?$vector@PAVIReader@@V?$xalloc@PAVIReader@@@@@std@@QBEIXZ 00943920 f i stdafx.obj
 0001:00042930       ?_Xlen@?$vector@PAVIReader@@V?$xalloc@PAVIReader@@@@@std@@IBEXXZ 00943930 f i stdafx.obj
 0001:00042940       ??0?$_Wrap_alloc@V?$xalloc@PAVIReader@@@@@std@@QAE@ABV?$xalloc@PAVIReader@@@@@Z 00943940 f i stdafx.obj
 0001:00042950       ?allocate@?$_Wrap_alloc@V?$xalloc@PAVIReader@@@@@std@@QAEPAPAVIReader@@I@Z 00943950 f i stdafx.obj
 0001:00042970       ?select_on_container_copy_construction@?$allocator_traits@V?$xalloc@PAVIReader@@@@@std@@SA?AV?$xalloc@PAVIReader@@@@ABV3@@Z 00943970 f i stdafx.obj
 0001:00042980       ??0?$_Vector_val@U?$_Simple_types@PAVIReader@@@std@@@std@@QAE@XZ 00943980 f i stdafx.obj
 0001:000429a0       ??0?$_Vector_const_iterator@V?$_Vector_val@U?$_Simple_types@PAVIReader@@@std@@@std@@@std@@QAE@PAPAVIReader@@PBU_Container_base0@1@@Z 009439a0 f i stdafx.obj
 0001:000429b0       ??0?$xalloc@PAVIReader@@@@QAE@ABV0@@Z 009439b0 f i stdafx.obj
 0001:000429c0       ?allocate@?$xalloc@PAVIReader@@@@QBEPAPAVIReader@@IPBX@Z 009439c0 f i stdafx.obj
 0001:000429e0       ?max_size@?$_Wrap_alloc@V?$xalloc@PAVIReader@@@@@std@@QBEIXZ 009439e0 f i stdafx.obj
 0001:000429f0       ?max_size@?$allocator_traits@V?$xalloc@PAVIReader@@@@@std@@SAIABV?$xalloc@PAVIReader@@@@@Z 009439f0 f i stdafx.obj
 0001:00042a00       ??$_Fn@V?$xalloc@I@@IABI@_Alloc_construct@std@@SAXHAAV?$xalloc@I@@PAIABI@Z 00943a00 f i stdafx.obj
 0001:00042a50       ??$_Fn@V?$xalloc@I@@I@_Alloc_destroy@std@@SAXHAAV?$xalloc@I@@PAI@Z 00943a50 f i stdafx.obj
 0001:00042a60       ??$_Fn@V?$xalloc@I@@IAAI@_Alloc_construct@std@@SAXHAAV?$xalloc@I@@PAIAAI@Z 00943a60 f i stdafx.obj
 0001:00042ab0       ??$_Fn@V?$xalloc@PAUsmem_value@@@@PAUsmem_value@@ABQAU2@@_Alloc_construct@std@@SAXHAAV?$xalloc@PAUsmem_value@@@@PAPAUsmem_value@@ABQAU3@@Z 00943ab0 f i stdafx.obj
 0001:00042b00       ??$_Fn@V?$xalloc@PAUsmem_value@@@@PAUsmem_value@@@_Alloc_destroy@std@@SAXHAAV?$xalloc@PAUsmem_value@@@@PAPAUsmem_value@@@Z 00943b00 f i stdafx.obj
 0001:00042b10       ??$_Fn@V?$xalloc@PAUsmem_value@@@@PAUsmem_value@@AAPAU2@@_Alloc_construct@std@@SAXHAAV?$xalloc@PAUsmem_value@@@@PAPAUsmem_value@@AAPAU3@@Z 00943b10 f i stdafx.obj
 0001:00042b60       ??$_Construct@UItem@CInifile@@ABU12@@std@@YAXPAUItem@CInifile@@ABU12@@Z 00943b60 f i stdafx.obj
 0001:00042ba0       ??$_Construct@Uarchive@CLocatorAPI@@ABU12@@std@@YAXPAUarchive@CLocatorAPI@@ABU12@@Z 00943ba0 f i stdafx.obj
 0001:00042c30       ??$_Construct@U_finddata64i32_t@@ABU1@@std@@YAXPAU_finddata64i32_t@@ABU1@@Z 00943c30 f i stdafx.obj
 0001:00042c80       ??$_Ucopy@V?$_Vector_const_iterator@V?$_Vector_val@U?$_Simple_types@PAVIReader@@@std@@@std@@@std@@@?$vector@PAVIReader@@V?$xalloc@PAVIReader@@@@@std@@IAEPAPAVIReader@@V?$_Vector_const_iterator@V?$_Vector_val@U?$_Simple_types@PAVIReader@@@std@@@std@@@1@0PAPAV2@@Z 00943c80 f i stdafx.obj
 0001:00042ca0       ??$_Fn@V?$xalloc@PAVIReader@@@@@_Alloc_select@std@@SA?AV?$xalloc@PAVIReader@@@@U_Wrap_int@1@ABV2@@Z 00943ca0 f i stdafx.obj
 0001:00042cb0       ??$xr_alloc@PAVIReader@@@@YAPAPAVIReader@@I@Z 00943cb0 f i stdafx.obj
 0001:00042cd0       ??$_Fn@V?$xalloc@PAVIReader@@@@@_Alloc_max_size@std@@SAIHABV?$xalloc@PAVIReader@@@@@Z 00943cd0 f i stdafx.obj
 0001:00042ce0       ??0archive@CLocatorAPI@@QAE@ABU01@@Z 00943ce0 f i stdafx.obj
 0001:00042d60       ?construct@?$xalloc@I@@QAEXPAIABI@Z 00943d60 f i stdafx.obj
 0001:00042db0       ?destroy@?$xalloc@I@@QAEXPAI@Z 00943db0 f i stdafx.obj
 0001:00042dc0       ?construct@?$xalloc@PAUsmem_value@@@@QAEXPAPAUsmem_value@@ABQAU2@@Z 00943dc0 f i stdafx.obj
 0001:00042e10       ?destroy@?$xalloc@PAUsmem_value@@@@QAEXPAPAUsmem_value@@@Z 00943e10 f i stdafx.obj
 0001:00042e20       ?max_size@?$xalloc@PAVIReader@@@@QBEIXZ 00943e20 f i stdafx.obj
 0001:00042e30       ??$_Uninitialized_copy@V?$_Vector_const_iterator@V?$_Vector_val@U?$_Simple_types@PAVIReader@@@std@@@std@@@std@@PAPAVIReader@@U?$_Wrap_alloc@V?$xalloc@PAVIReader@@@@@2@@std@@YAPAPAVIReader@@V?$_Vector_const_iterator@V?$_Vector_val@U?$_Simple_types@PAVIReader@@@std@@@std@@@0@0PAPAV1@AAU?$_Wrap_alloc@V?$xalloc@PAVIReader@@@@@0@@Z 00943e30 f i stdafx.obj
 0001:00042e50       ??$_Construct@IABI@std@@YAXPAIABI@Z 00943e50 f i stdafx.obj
 0001:00042e90       ??$_Destroy@I@std@@YAXPAI@Z 00943e90 f i stdafx.obj
 0001:00042ea0       ??$_Construct@PAUsmem_value@@ABQAU1@@std@@YAXPAPAUsmem_value@@ABQAU1@@Z 00943ea0 f i stdafx.obj
 0001:00042ee0       ??$_Destroy@PAUsmem_value@@@std@@YAXPAPAUsmem_value@@@Z 00943ee0 f i stdafx.obj
 0001:00042ef0       ??$_Unchecked@V?$_Vector_val@U?$_Simple_types@PAVIReader@@@std@@@std@@@std@@YAPBQAVIReader@@V?$_Vector_const_iterator@V?$_Vector_val@U?$_Simple_types@PAVIReader@@@std@@@std@@@0@@Z 00943ef0 f i stdafx.obj
 0001:00042f00       ??$_Unchecked@PAPAVIReader@@@std@@YAPAPAVIReader@@PAPAV1@@Z 00943f00 f i stdafx.obj
 0001:00042f10       ??$_Uninit_copy@PBQAVIReader@@PAPAV1@U?$_Wrap_alloc@V?$xalloc@PAVIReader@@@@@std@@@std@@YAPAPAVIReader@@PBQAV1@0PAPAV1@AAU?$_Wrap_alloc@V?$xalloc@PAVIReader@@@@@0@@Z 00943f10 f i stdafx.obj
 0001:00042f30       ??$_Rechecked@PAPAVIReader@@PAPAV1@@std@@YAAAPAPAVIReader@@AAPAPAV1@PAPAV1@@Z 00943f30 f i stdafx.obj
 0001:00042f40       ?_Unchecked@?$_Vector_const_iterator@V?$_Vector_val@U?$_Simple_types@PAVIReader@@@std@@@std@@@std@@QBEPBQAVIReader@@XZ 00943f40 f i stdafx.obj
 0001:00042f50       ??$_Ptr_cat@PAVIReader@@PAV1@@std@@YA?AU_Scalar_ptr_iterator_tag@0@PBQAVIReader@@PAPAV2@@Z 00943f50 f i stdafx.obj
 0001:00042f60       ??$_Uninit_copy@PBQAVIReader@@PAPAV1@V?$xalloc@PAVIReader@@@@@std@@YAPAPAVIReader@@PBQAV1@0PAPAV1@AAU?$_Wrap_alloc@V?$xalloc@PAVIReader@@@@@0@U_Scalar_ptr_iterator_tag@0@@Z 00943f60 f i stdafx.obj
 0001:00042f80       ??$_Uninit_copy@PBQAVIReader@@PAPAV1@V?$xalloc@PAVIReader@@@@@std@@YAPAPAVIReader@@PBQAV1@0PAPAV1@AAU?$_Wrap_alloc@V?$xalloc@PAVIReader@@@@@0@U_Nonscalar_ptr_iterator_tag@0@@Z 00943f80 f i stdafx.obj
 0001:00042ff0       ??$construct@PAVIReader@@ABQAV1@@?$_Wrap_alloc@V?$xalloc@PAVIReader@@@@@std@@QAEXPAPAVIReader@@ABQAV2@@Z 00943ff0 f i stdafx.obj
 0001:00043040       ??$destroy@PAVIReader@@@?$_Wrap_alloc@V?$xalloc@PAVIReader@@@@@std@@QAEXPAPAVIReader@@@Z 00944040 f i stdafx.obj
 0001:00043050       ??$forward@ABQAVIReader@@@std@@YAABQAVIReader@@ABQAV1@@Z 00944050 f i stdafx.obj
 0001:00043060       ??$construct@PAVIReader@@ABQAV1@@?$allocator_traits@V?$xalloc@PAVIReader@@@@@std@@SAXAAV?$xalloc@PAVIReader@@@@PAPAVIReader@@ABQAV3@@Z 00944060 f i stdafx.obj
 0001:000430a0       ??$destroy@PAVIReader@@@?$allocator_traits@V?$xalloc@PAVIReader@@@@@std@@SAXAAV?$xalloc@PAVIReader@@@@PAPAVIReader@@@Z 009440a0 f i stdafx.obj
 0001:000430b0       ??$_Fn@V?$xalloc@PAVIReader@@@@PAVIReader@@ABQAV2@@_Alloc_construct@std@@SAXHAAV?$xalloc@PAVIReader@@@@PAPAVIReader@@ABQAV3@@Z 009440b0 f i stdafx.obj
 0001:00043100       ??$_Fn@V?$xalloc@PAVIReader@@@@PAVIReader@@@_Alloc_destroy@std@@SAXHAAV?$xalloc@PAVIReader@@@@PAPAVIReader@@@Z 00944100 f i stdafx.obj
 0001:00043110       ?construct@?$xalloc@PAVIReader@@@@QAEXPAPAVIReader@@ABQAV2@@Z 00944110 f i stdafx.obj
 0001:00043160       ?destroy@?$xalloc@PAVIReader@@@@QAEXPAPAVIReader@@@Z 00944160 f i stdafx.obj
 0001:00043170       ??$_Construct@PAVIReader@@ABQAV1@@std@@YAXPAPAVIReader@@ABQAV1@@Z 00944170 f i stdafx.obj
 0001:000431b0       ??$_Destroy@PAVIReader@@@std@@YAXPAPAVIReader@@@Z 009441b0 f i stdafx.obj
 0001:000431c0       ?process@strconcat_error@detail@core@xray@@YAXIIPAPBD@Z 009441c0 f   string_concatenations.obj
 0001:000432c0       ?stack_overflow_exception_filter@detail@core@xray@@YAHH@Z 009442c0 f   string_concatenations.obj
 0001:000432d0       ?check_stack_overflow@detail@core@xray@@YAXI@Z 009442d0 f   string_concatenations.obj
 0001:00043350       ?error_process@string_tupples@detail@core@xray@@QBEXXZ 00944350 f   string_concatenations.obj
 0001:000433a0       ?strconcat@@YAPADHPADPBD1@Z 009443a0 f   string_concatenations.obj
 0001:00043440       ?strconcat@@YAPADHPADPBD11@Z 00944440 f   string_concatenations.obj
 0001:00043510       ?strconcat@@YAPADHPADPBD111@Z 00944510 f   string_concatenations.obj
 0001:00043620       ?strconcat@@YAPADHPADPBD1111@Z 00944620 f   string_concatenations.obj
 0001:00043770       ?strconcat@@YAPADHPADPBD11111@Z 00944770 f   string_concatenations.obj
 0001:000439a0       ?make_string@@YA?AV?$basic_string@DU?$char_traits@D@std@@V?$allocator@D@2@@std@@PBDZZ 009449a0 f i string_concatenations.obj
 0001:00043a60       ?c_str@?$basic_string@DU?$char_traits@D@std@@V?$allocator@D@2@@std@@QBEPBDXZ 00944a60 f i string_concatenations.obj
 0001:00043a70       ??0CSymbolEngine@@QAE@XZ   00944a70 f i xrCore.obj
 0001:00043a80       ??1CSymbolEngine@@UAE@XZ   00944a80 f i xrCore.obj
 0001:00043a90       ?GetInMemoryFileVersion@CSymbolEngine@@QAEHPBDAAK1@Z 00944a90 f i xrCore.obj
 0001:00043b70       ??_GCSymbolEngine@@UAEPAXI@Z 00944b70 f i xrCore.obj
 0001:00043b70       ??_ECSymbolEngine@@UAEPAXI@Z 00944b70 f i * CIL library *:* CIL module *
 0001:00043ba0       ?SetUserName@@YAXPBD@Z     00944ba0 f   xrCore.obj
 0001:00043bc0       ?FileTimeToMsec@@YAMU_FILETIME@@@Z 00944bc0 f   xrCore.obj
 0001:00043bf0       ?GetThreadTimesEx@@YAHPAXAAM1@Z 00944bf0 f   xrCore.obj
 0001:00043c80       ?_initialize@xrCore@@QAEXPBDP6AX0@ZH0@Z 00944c80 f   xrCore.obj
 0001:00043fb0       ?buffer@stream@ppmd@compression@@QBEPAEXZ 00944fb0 f i xrCore.obj
 0001:00043fc0       ?_destroy@xrCore@@QAEXXZ   00944fc0 f   xrCore.obj
 0001:00044030       _DllMain@12                00945030 f   xrCore.obj
 0001:000440b0       ??$strcpy_s@$0EA@@@YAHAAY0EA@DPBD@Z 009450b0 f i xrCore.obj
 0001:000440c0       ??$xr_new@VCLocatorAPI@@@@YAPAVCLocatorAPI@@XZ 009450c0 f i xrCore.obj
 0001:00044130       ??$xr_new@VEFS_Utils@@@@YAPAVEFS_Utils@@XZ 00945130 f i xrCore.obj
 0001:000441d0       ??$xr_delete@VCLocatorAPI@@@@YAXAAPAVCLocatorAPI@@@Z 009451d0 f i xrCore.obj
 0001:00044200       ??$xr_delete@VEFS_Utils@@@@YAXAAPAVEFS_Utils@@@Z 00945200 f i xrCore.obj
 0001:00044240       ??$xr_delete@Vstream@ppmd@compression@@@@YAXAAPAVstream@ppmd@compression@@@Z 00945240 f i xrCore.obj
 0001:00044260       ??R?$xr_special_free@$0A@VCLocatorAPI@@@@QAEXAAPAVCLocatorAPI@@@Z 00945260 f i xrCore.obj
 0001:00044280       ??R?$xr_special_free@$00VEFS_Utils@@@@QAEXAAPAVEFS_Utils@@@Z 00945280 f i xrCore.obj
 0001:000442b0       ??R?$xr_special_free@$0A@Vstream@ppmd@compression@@@@QAEXAAPAVstream@ppmd@compression@@@Z 009452b0 f i xrCore.obj
 0001:000442d0       ??_GCLocatorAPI@@QAEPAXI@Z 009452d0 f i xrCore.obj
 0001:000442e0       ?strstr@@YAPADPADPBD@Z     009452e0 f i xrCore.obj
 0001:000442f0       ??_U@YAPAXI@Z              009452f0 f i xrCore.obj
 0001:00044310       ?pvInitializeStatics@@YAXXZ 00945310 f   _compressed_normal.obj
 0001:000443a0       ?pvCompress@@YAGABU?$_vector3@M@@@Z 009453a0 f   _compressed_normal.obj
 0001:00044500       ?pvDecompress@@YAXAAU?$_vector3@M@@G@Z 00945500 f   _compressed_normal.obj
 0001:000445b0       ?set_negative@@YAXAAM@Z    009455b0 f i _compressed_normal.obj
 0001:000445c0       ?set_positive@@YAXAAM@Z    009455c0 f i _compressed_normal.obj
 0001:000445d0       ?negative@@YAHABM@Z        009455d0 f i _compressed_normal.obj
 0001:000445e0       _sqrtf                     009455e0 f i _compressed_normal.obj
 0001:000445f0       ?_sqrt@@YAMM@Z             009455f0 f i _compressed_normal.obj
 0001:00044600       ?getFPUsw@@YAGXZ           00945600 f   _math.obj
 0001:00044610       ?m24@FPU@@YAXXZ            00945610 f   _math.obj
 0001:00044620       ?m24r@FPU@@YAXXZ           00945620 f   _math.obj
 0001:00044630       ?m53@FPU@@YAXXZ            00945630 f   _math.obj
 0001:00044640       ?m53r@FPU@@YAXXZ           00945640 f   _math.obj
 0001:00044650       ?m64@FPU@@YAXXZ            00945650 f   _math.obj
 0001:00044660       ?m64r@FPU@@YAXXZ           00945660 f   _math.obj
 0001:00044670       ?initialize@FPU@@YAXXZ     00945670 f   _math.obj
 0001:00044780       ?QPC@CPU@@YA_KXZ           00945780 f   _math.obj
 0001:000447a0       ?Detect@CPU@@YAXXZ         009457a0 f   _math.obj
 0001:000449a0       ?_initialize_cpu@@YAXXZ    009459a0 f   _math.obj
 0001:00044c40       ?_initialize_cpu_thread@@YAXXZ 00945c40 f   _math.obj
 0001:00044cf0       ?thread_name@@YAXPBD@Z     00945cf0 f   _math.obj
 0001:00044d70       ?thread_entry@@YAXPAX@Z    00945d70 f   _math.obj
 0001:00044db0       ?thread_spawn@@YAXP6AXPAX@ZPBDI0@Z 00945db0 f   _math.obj
 0001:00044e20       ?spline1@@YAXMPAU?$_vector3@M@@0@Z 00945e20 f   _math.obj
 0001:00044fd0       ?spline2@@YAXMPAU?$_vector3@M@@0@Z 00945fd0 f   _math.obj
 0001:00045100       ?spline3@@YAXMPAU?$_vector3@M@@0@Z 00946100 f   _math.obj
 0001:00045310       ?identity@?$_matrix@M@@QAEAAU1@XZ 00946310 f i _math.obj
 0001:00045350       ?identity@?$_matrix@N@@QAEAAU1@XZ 00946350 f i _math.obj
 0001:000453c0       ??$strcat_s@$0BAA@@@YAHAAY0BAA@DPBD@Z 009463c0 f i _math.obj
 0001:000453e0       ??$xr_delete@UTHREAD_STARTUP@@@@YAXAAPAUTHREAD_STARTUP@@@Z 009463e0 f i _math.obj
 0001:00045400       ??$xr_new@UTHREAD_STARTUP@@@@YAPAUTHREAD_STARTUP@@XZ 00946400 f i _math.obj
 0001:00045430       ??R?$xr_special_free@$0A@UTHREAD_STARTUP@@@@QAEXAAPAUTHREAD_STARTUP@@@Z 00946430 f i _math.obj
 0001:00045450       ?GetCLK@CPU@@YA_KXZ        00946450 f i _math.obj
 0001:00045460       ??0Miniball@@QAE@XZ        00946460 f i _sphere.obj
 0001:00045500       ??0?$xr_list@U?$_vector3@M@@V?$xalloc@U?$_vector3@M@@@@@@QAE@XZ 00946500 f i _sphere.obj
 0001:00045550       ??1?$xr_list@U?$_vector3@M@@V?$xalloc@U?$_vector3@M@@@@@@QAE@XZ 00946550 f i _sphere.obj
 0001:00045590       ?check_in@Miniball@@QAEXABU?$_vector3@M@@@Z 00946590 f   _sphere.obj
 0001:000455d0       ?build@Miniball@@QAEXXZ    009465d0 f   _sphere.obj
 0001:00045620       ?mtf_mb@Miniball@@AAEXV?$_List_iterator@V?$_List_val@U?$_List_simple_types@U?$_vector3@M@@@std@@@std@@@std@@@Z 00946620 f   _sphere.obj
 0001:00045720       ?move_to_front@Miniball@@AAEXV?$_List_iterator@V?$_List_val@U?$_List_simple_types@U?$_vector3@M@@@std@@@std@@@std@@@Z 00946720 f   _sphere.obj
 0001:00045760       ?pivot_mb@Miniball@@AAEXV?$_List_iterator@V?$_List_val@U?$_List_simple_types@U?$_vector3@M@@@std@@@std@@@std@@@Z 00946760 f   _sphere.obj
 0001:00045890       ?max_excess@Miniball@@ABEMV?$_List_iterator@V?$_List_val@U?$_List_simple_types@U?$_vector3@M@@@std@@@std@@@std@@0AAV23@@Z 00946890 f   _sphere.obj
 0001:00045910       ?center@Miniball@@QBE?AU?$_vector3@M@@XZ 00946910 f   _sphere.obj
 0001:00045930       ?squared_radius@Miniball@@QBEMXZ 00946930 f   _sphere.obj
 0001:00045940       ?num_points@Miniball@@QBEHXZ 00946940 f   _sphere.obj
 0001:00045950       ?points_begin@Miniball@@QBE?AV?$_List_const_iterator@V?$_List_val@U?$_List_simple_types@U?$_vector3@M@@@std@@@std@@@std@@XZ 00946950 f   _sphere.obj
 0001:00045960       ?points_end@Miniball@@QBE?AV?$_List_const_iterator@V?$_List_val@U?$_List_simple_types@U?$_vector3@M@@@std@@@std@@@std@@XZ 00946960 f   _sphere.obj
 0001:00045970       ?nr_support_gVectors@Miniball@@QBEHXZ 00946970 f   _sphere.obj
 0001:00045980       ?support_points_begin@Miniball@@QBE?AV?$_List_const_iterator@V?$_List_val@U?$_List_simple_types@U?$_vector3@M@@@std@@@std@@@std@@XZ 00946980 f   _sphere.obj
 0001:00045990       ?support_points_end@Miniball@@QBE?AV?$_List_const_iterator@V?$_List_val@U?$_List_simple_types@U?$_vector3@M@@@std@@@std@@@std@@XZ 00946990 f   _sphere.obj
 0001:000459a0       ?center@Basis@@QBEPBU?$_vector3@M@@XZ 009469a0 f   _sphere.obj
 0001:000459b0       ?squared_radius@Basis@@QBEMXZ 009469b0 f   _sphere.obj
 0001:000459c0       ?size@Basis@@QBEHXZ        009469c0 f   _sphere.obj
 0001:000459d0       ?support_size@Basis@@QBEHXZ 009469d0 f   _sphere.obj
 0001:000459e0       ?excess@Basis@@QBEMABU?$_vector3@M@@@Z 009469e0 f   _sphere.obj
 0001:00045a30       ?reset@Basis@@QAEXXZ       00946a30 f   _sphere.obj
 0001:00045a70       ??0Basis@@QAE@XZ           00946a70 f   _sphere.obj
 0001:00045ab0       ?pop@Basis@@QAEXXZ         00946ab0 f   _sphere.obj
 0001:00045ac0       ?push@Basis@@QAE_NABU?$_vector3@M@@@Z 00946ac0 f   _sphere.obj
 0001:00045dd0       ?Fsphere_compute@@YAXAAU?$_sphere@M@@PBU?$_vector3@M@@H@Z 00946dd0 f   _sphere.obj
 0001:00045fa0       ??1Miniball@@QAE@XZ        00946fa0 f i _sphere.obj
 0001:00045fe0       ??A?$_vector3@M@@QAEAAMH@Z 00946fe0 f i _sphere.obj
 0001:00045ff0       ?set@?$_vector3@M@@QAEAAU1@MMM@Z 00946ff0 f i _sphere.obj
 0001:00046010       ?set@?$_vector3@M@@QAEAAU1@ABU1@@Z 00947010 f i _sphere.obj
 0001:00046030       ?sub@?$_vector3@M@@QAEAAU1@ABU1@0@Z 00947030 f i _sphere.obj
 0001:00046070       ?mad@?$_vector3@M@@QAEAAU1@ABU1@0M@Z 00947070 f i _sphere.obj
 0001:000460c0       ?square_magnitude@?$_vector3@M@@QBEMXZ 009470c0 f i _sphere.obj
 0001:000460f0       ?dotproduct@?$_vector3@M@@QBEMABU1@@Z 009470f0 f i _sphere.obj
 0001:00046120       ?distance_to_sqr@?$_vector3@M@@QBEMABU1@@Z 00947120 f i _sphere.obj
 0001:00046160       ?size@?$xr_list@U?$_vector3@M@@V?$xalloc@U?$_vector3@M@@@@@@QBEIXZ 00947160 f i _sphere.obj
 0001:00046170       ??0?$list@U?$_vector3@M@@V?$xalloc@U?$_vector3@M@@@@@std@@QAE@XZ 00947170 f i _sphere.obj
 0001:000461c0       ??1?$list@U?$_vector3@M@@V?$xalloc@U?$_vector3@M@@@@@std@@QAE@XZ 009471c0 f i _sphere.obj
 0001:00046240       ?begin@?$list@U?$_vector3@M@@V?$xalloc@U?$_vector3@M@@@@@std@@QAE?AV?$_List_iterator@V?$_List_val@U?$_List_simple_types@U?$_vector3@M@@@std@@@std@@@2@XZ 00947240 f i _sphere.obj
 0001:00046250       ?begin@?$list@U?$_vector3@M@@V?$xalloc@U?$_vector3@M@@@@@std@@QBE?AV?$_List_const_iterator@V?$_List_val@U?$_List_simple_types@U?$_vector3@M@@@std@@@std@@@2@XZ 00947250 f i _sphere.obj
 0001:00046260       ?end@?$list@U?$_vector3@M@@V?$xalloc@U?$_vector3@M@@@@@std@@QAE?AV?$_List_iterator@V?$_List_val@U?$_List_simple_types@U?$_vector3@M@@@std@@@std@@@2@XZ 00947260 f i _sphere.obj
 0001:00046270       ?end@?$list@U?$_vector3@M@@V?$xalloc@U?$_vector3@M@@@@@std@@QBE?AV?$_List_const_iterator@V?$_List_val@U?$_List_simple_types@U?$_vector3@M@@@std@@@std@@@2@XZ 00947270 f i _sphere.obj
 0001:00046280       ?push_back@?$list@U?$_vector3@M@@V?$xalloc@U?$_vector3@M@@@@@std@@QAEXABU?$_vector3@M@@@Z 00947280 f i _sphere.obj
 0001:000462c0       ?splice@?$list@U?$_vector3@M@@V?$xalloc@U?$_vector3@M@@@@@std@@QAEXV?$_List_const_iterator@V?$_List_val@U?$_List_simple_types@U?$_vector3@M@@@std@@@std@@@2@AAV12@0@Z 009472c0 f i _sphere.obj
 0001:000462f0       ??0?$_List_iterator@V?$_List_val@U?$_List_simple_types@U?$_vector3@M@@@std@@@std@@@std@@QAE@XZ 009472f0 f i _sphere.obj
 0001:00046300       ??D?$_List_iterator@V?$_List_val@U?$_List_simple_types@U?$_vector3@M@@@std@@@std@@@std@@QBEAAU?$_vector3@M@@XZ 00947300 f i _sphere.obj
 0001:00046310       ??E?$_List_iterator@V?$_List_val@U?$_List_simple_types@U?$_vector3@M@@@std@@@std@@@std@@QAEAAV01@XZ 00947310 f i _sphere.obj
 0001:00046320       ??E?$_List_iterator@V?$_List_val@U?$_List_simple_types@U?$_vector3@M@@@std@@@std@@@std@@QAE?AV01@H@Z 00947320 f i _sphere.obj
 0001:00046330       ??8?$_List_const_iterator@V?$_List_val@U?$_List_simple_types@U?$_vector3@M@@@std@@@std@@@std@@QBE_NABV01@@Z 00947330 f i _sphere.obj
 0001:00046340       ??9?$_List_const_iterator@V?$_List_val@U?$_List_simple_types@U?$_vector3@M@@@std@@@std@@@std@@QBE_NABV01@@Z 00947340 f i _sphere.obj
 0001:00046350       ??1?$_List_buy@U?$_vector3@M@@V?$xalloc@U?$_vector3@M@@@@@std@@QAE@XZ 00947350 f i _sphere.obj
 0001:000463a0       ??0?$xalloc@U?$_vector3@M@@@@QAE@XZ 009473a0 f i _sphere.obj
 0001:000463b0       ?_Unchecked_end@?$list@U?$_vector3@M@@V?$xalloc@U?$_vector3@M@@@@@std@@QAE?AV?$_List_unchecked_iterator@V?$_List_val@U?$_List_simple_types@U?$_vector3@M@@@std@@@std@@@2@XZ 009473b0 f i _sphere.obj
 0001:000463c0       ?size@?$list@U?$_vector3@M@@V?$xalloc@U?$_vector3@M@@@@@std@@QBEIXZ 009473c0 f i _sphere.obj
 0001:000463d0       ?_Splice@?$list@U?$_vector3@M@@V?$xalloc@U?$_vector3@M@@@@@std@@QAEXV?$_List_const_iterator@V?$_List_val@U?$_List_simple_types@U?$_vector3@M@@@std@@@std@@@2@AAV12@00I@Z 009473d0 f i _sphere.obj
 0001:000463f0       ?_Tidy@?$list@U?$_vector3@M@@V?$xalloc@U?$_vector3@M@@@@@std@@QAEXXZ 009473f0 f i _sphere.obj
 0001:00046430       ??0?$_List_buy@U?$_vector3@M@@V?$xalloc@U?$_vector3@M@@@@@std@@QAE@ABV?$xalloc@U?$_vector3@M@@@@@Z 00947430 f i _sphere.obj
 0001:00046490       ??1?$_List_alloc@$0A@U?$_List_base_types@U?$_vector3@M@@V?$xalloc@U?$_vector3@M@@@@@std@@@std@@QAE@XZ 00947490 f i _sphere.obj
 0001:000464b0       ?_Nextnode@?$_List_val@U?$_List_simple_types@U?$_vector3@M@@@std@@@std@@SAAAPAU?$_List_node@U?$_vector3@M@@PAX@2@PAU32@@Z 009474b0 f i _sphere.obj
 0001:000464c0       ??0?$_List_iterator@V?$_List_val@U?$_List_simple_types@U?$_vector3@M@@@std@@@std@@@std@@QAE@PAU?$_List_node@U?$_vector3@M@@PAX@1@PBV?$_List_val@U?$_List_simple_types@U?$_vector3@M@@@std@@@1@@Z 009474c0 f i _sphere.obj
 0001:000464d0       ??0?$_List_const_iterator@V?$_List_val@U?$_List_simple_types@U?$_vector3@M@@@std@@@std@@@std@@QAE@XZ 009474d0 f i _sphere.obj
 0001:000464e0       ??0?$_List_const_iterator@V?$_List_val@U?$_List_simple_types@U?$_vector3@M@@@std@@@std@@@std@@QAE@PAU?$_List_node@U?$_vector3@M@@PAX@1@PBV?$_List_val@U?$_List_simple_types@U?$_vector3@M@@@std@@@1@@Z 009474e0 f i _sphere.obj
 0001:000464f0       ??D?$_List_const_iterator@V?$_List_val@U?$_List_simple_types@U?$_vector3@M@@@std@@@std@@@std@@QBEABU?$_vector3@M@@XZ 009474f0 f i _sphere.obj
 0001:00046500       ??E?$_List_const_iterator@V?$_List_val@U?$_List_simple_types@U?$_vector3@M@@@std@@@std@@@std@@QAEAAV01@XZ 00947500 f i _sphere.obj
 0001:00046510       ?clear@?$list@U?$_vector3@M@@V?$xalloc@U?$_vector3@M@@@@@std@@QAEXXZ 00947510 f i _sphere.obj
 0001:00046550       ?_Splice_same@?$list@U?$_vector3@M@@V?$xalloc@U?$_vector3@M@@@@@std@@QAEXV?$_List_const_iterator@V?$_List_val@U?$_List_simple_types@U?$_vector3@M@@@std@@@std@@@2@AAV12@00I@Z 00947550 f i _sphere.obj
 0001:000465d0       ??0?$_List_alloc@$0A@U?$_List_base_types@U?$_vector3@M@@V?$xalloc@U?$_vector3@M@@@@@std@@@std@@QAE@ABV?$xalloc@U?$_vector3@M@@@@@Z 009475d0 f i _sphere.obj
 0001:00046600       ?_Freeheadnode@?$_List_alloc@$0A@U?$_List_base_types@U?$_vector3@M@@V?$xalloc@U?$_vector3@M@@@@@std@@@std@@QAEXPAU?$_List_node@U?$_vector3@M@@PAX@2@@Z 00947600 f i _sphere.obj
 0001:00046620       ?_Getal@?$_List_alloc@$0A@U?$_List_base_types@U?$_vector3@M@@V?$xalloc@U?$_vector3@M@@@@@std@@@std@@QBE?AU?$_Wrap_alloc@V?$xalloc@U?$_List_node@U?$_vector3@M@@PAX@std@@@@@2@XZ 00947620 f i _sphere.obj
 0001:00046630       ?_Myval@?$_List_val@U?$_List_simple_types@U?$_vector3@M@@@std@@@std@@SAAAU?$_vector3@M@@PAU?$_List_node@U?$_vector3@M@@PAX@2@@Z 00947630 f i _sphere.obj
 0001:00046640       ??0?$_List_unchecked_const_iterator@V?$_List_val@U?$_List_simple_types@U?$_vector3@M@@@std@@@std@@U_Iterator_base0@2@@std@@QAE@XZ 00947640 f i _sphere.obj
 0001:00046650       ??0?$_List_unchecked_const_iterator@V?$_List_val@U?$_List_simple_types@U?$_vector3@M@@@std@@@std@@U_Iterator_base0@2@@std@@QAE@PAU?$_List_node@U?$_vector3@M@@PAX@1@PBV?$_List_val@U?$_List_simple_types@U?$_vector3@M@@@std@@@1@@Z 00947650 f i _sphere.obj
 0001:00046660       ??0?$_List_unchecked_iterator@V?$_List_val@U?$_List_simple_types@U?$_vector3@M@@@std@@@std@@@std@@QAE@PAU?$_List_node@U?$_vector3@M@@PAX@1@PBV?$_List_val@U?$_List_simple_types@U?$_vector3@M@@@std@@@1@@Z 00947660 f i _sphere.obj
 0001:00046670       ?_Incsize@?$list@U?$_vector3@M@@V?$xalloc@U?$_vector3@M@@@@@std@@QAEXI@Z 00947670 f i _sphere.obj
 0001:000466a0       ?_Freenode@?$_List_buy@U?$_vector3@M@@V?$xalloc@U?$_vector3@M@@@@@std@@QAEXPAU?$_List_node@U?$_vector3@M@@PAX@2@@Z 009476a0 f i _sphere.obj
 0001:000466c0       ?_Buyheadnode@?$_List_alloc@$0A@U?$_List_base_types@U?$_vector3@M@@V?$xalloc@U?$_vector3@M@@@@@std@@@std@@QAEPAU?$_List_node@U?$_vector3@M@@PAX@2@XZ 009476c0 f i _sphere.obj
 0001:000466d0       ??0?$_Wrap_alloc@V?$xalloc@U?$_List_node@U?$_vector3@M@@PAX@std@@@@@std@@QAE@XZ 009476d0 f i _sphere.obj
 0001:000466e0       ?deallocate@?$_Wrap_alloc@V?$xalloc@U?$_List_node@U?$_vector3@M@@PAX@std@@@@@std@@QAEXPAU?$_List_node@U?$_vector3@M@@PAX@2@I@Z 009476e0 f i _sphere.obj
 0001:00046700       ??0?$_List_val@U?$_List_simple_types@U?$_vector3@M@@@std@@@std@@QAE@XZ 00947700 f i _sphere.obj
 0001:00046710       ?_Prevnode@?$_List_val@U?$_List_simple_types@U?$_vector3@M@@@std@@@std@@SAAAPAU?$_List_node@U?$_vector3@M@@PAX@2@PAU32@@Z 00947710 f i _sphere.obj
 0001:00046720       ?_Mynode@?$_List_unchecked_const_iterator@V?$_List_val@U?$_List_simple_types@U?$_vector3@M@@@std@@@std@@U_Iterator_base0@2@@std@@QBEPAU?$_List_node@U?$_vector3@M@@PAX@2@XZ 00947720 f i _sphere.obj
 0001:00046730       ?max_size@?$list@U?$_vector3@M@@V?$xalloc@U?$_vector3@M@@@@@std@@QBEIXZ 00947730 f i _sphere.obj
 0001:00046740       ?_Buynode0@?$_List_alloc@$0A@U?$_List_base_types@U?$_vector3@M@@V?$xalloc@U?$_vector3@M@@@@@std@@@std@@QAEPAU?$_List_node@U?$_vector3@M@@PAX@2@PAU32@0@Z 00947740 f i _sphere.obj
 0001:000467e0       ??0?$xalloc@U?$_List_node@U?$_vector3@M@@PAX@std@@@@QAE@XZ 009477e0 f i _sphere.obj
 0001:000467f0       ?deallocate@?$xalloc@U?$_List_node@U?$_vector3@M@@PAX@std@@@@QBEXPAU?$_List_node@U?$_vector3@M@@PAX@std@@I@Z 009477f0 f i _sphere.obj
 0001:00046810       ?allocate@?$_Wrap_alloc@V?$xalloc@U?$_List_node@U?$_vector3@M@@PAX@std@@@@@std@@QAEPAU?$_List_node@U?$_vector3@M@@PAX@2@I@Z 00947810 f i _sphere.obj
 0001:00046830       ?max_size@?$_Wrap_alloc@V?$xalloc@U?$_List_node@U?$_vector3@M@@PAX@std@@@@@std@@QBEIXZ 00947830 f i _sphere.obj
 0001:00046840       ?allocate@?$xalloc@U?$_List_node@U?$_vector3@M@@PAX@std@@@@QBEPAU?$_List_node@U?$_vector3@M@@PAX@std@@IPBX@Z 00947840 f i _sphere.obj
 0001:00046850       ?max_size@?$allocator_traits@V?$xalloc@U?$_List_node@U?$_vector3@M@@PAX@std@@@@@std@@SAIABV?$xalloc@U?$_List_node@U?$_vector3@M@@PAX@std@@@@@Z 00947850 f i _sphere.obj
 0001:00046860       ??$_Insert@ABU?$_vector3@M@@@?$list@U?$_vector3@M@@V?$xalloc@U?$_vector3@M@@@@@std@@QAEXV?$_List_unchecked_const_iterator@V?$_List_val@U?$_List_simple_types@U?$_vector3@M@@@std@@@std@@U_Iterator_base0@2@@1@ABU?$_vector3@M@@@Z 00947860 f i _sphere.obj
 0001:000468b0       ??$?9V?$xalloc@U?$_List_node@U?$_vector3@M@@PAX@std@@@@V0@@std@@YA_NABU?$_Wrap_alloc@V?$xalloc@U?$_List_node@U?$_vector3@M@@PAX@std@@@@@0@0@Z 009478b0 f i _sphere.obj
 0001:000468c0       ??$addressof@PAU?$_List_node@U?$_vector3@M@@PAX@std@@@std@@YAPAPAU?$_List_node@U?$_vector3@M@@PAX@0@AAPAU10@@Z 009478c0 f i _sphere.obj
 0001:000468d0       ??$destroy@PAU?$_List_node@U?$_vector3@M@@PAX@std@@@?$_Wrap_alloc@V?$xalloc@U?$_List_node@U?$_vector3@M@@PAX@std@@@@@std@@QAEXPAPAU?$_List_node@U?$_vector3@M@@PAX@1@@Z 009478d0 f i _sphere.obj
 0001:000468e0       ??$addressof@U?$_vector3@M@@@std@@YAPAU?$_vector3@M@@AAU1@@Z 009478e0 f i _sphere.obj
 0001:000468f0       ??$destroy@U?$_vector3@M@@@?$_Wrap_alloc@V?$xalloc@U?$_List_node@U?$_vector3@M@@PAX@std@@@@@std@@QAEXPAU?$_vector3@M@@@Z 009478f0 f i _sphere.obj
 0001:00046900       ??$construct@PAU?$_List_node@U?$_vector3@M@@PAX@std@@AAPAU12@@?$_Wrap_alloc@V?$xalloc@U?$_List_node@U?$_vector3@M@@PAX@std@@@@@std@@QAEXPAPAU?$_List_node@U?$_vector3@M@@PAX@1@AAPAU21@@Z 00947900 f i _sphere.obj
 0001:00046950       ??$xr_free@U?$_List_node@U?$_vector3@M@@PAX@std@@@@YAXAAPAU?$_List_node@U?$_vector3@M@@PAX@std@@@Z 00947950 f i _sphere.obj
 0001:00046970       ??$xr_alloc@U?$_List_node@U?$_vector3@M@@PAX@std@@@@YAPAU?$_List_node@U?$_vector3@M@@PAX@std@@I@Z 00947970 f i _sphere.obj
 0001:00046980       ??$_Fn@V?$xalloc@U?$_List_node@U?$_vector3@M@@PAX@std@@@@@_Alloc_max_size@std@@SAIHABV?$xalloc@U?$_List_node@U?$_vector3@M@@PAX@std@@@@@Z 00947980 f i _sphere.obj
 0001:00046990       ?max_size@?$xalloc@U?$_List_node@U?$_vector3@M@@PAX@std@@@@QBEIXZ 00947990 f i _sphere.obj
 0001:000469a0       ??$forward@ABU?$_vector3@M@@@std@@YAABU?$_vector3@M@@ABU1@@Z 009479a0 f i _sphere.obj
 0001:000469b0       ??$_Buynode@ABU?$_vector3@M@@@?$_List_buy@U?$_vector3@M@@V?$xalloc@U?$_vector3@M@@@@@std@@QAEPAU?$_List_node@U?$_vector3@M@@PAX@1@PAU21@0ABU?$_vector3@M@@@Z 009479b0 f i _sphere.obj
 0001:00046a30       ??$?8V?$xalloc@U?$_List_node@U?$_vector3@M@@PAX@std@@@@V0@@std@@YA_NABU?$_Wrap_alloc@V?$xalloc@U?$_List_node@U?$_vector3@M@@PAX@std@@@@@0@0@Z 00947a30 f i _sphere.obj
 0001:00046a40       ??$destroy@PAU?$_List_node@U?$_vector3@M@@PAX@std@@@?$allocator_traits@V?$xalloc@U?$_List_node@U?$_vector3@M@@PAX@std@@@@@std@@SAXAAV?$xalloc@U?$_List_node@U?$_vector3@M@@PAX@std@@@@PAPAU?$_List_node@U?$_vector3@M@@PAX@1@@Z 00947a40 f i _sphere.obj
 0001:00046a50       ??$destroy@U?$_vector3@M@@@?$allocator_traits@V?$xalloc@U?$_List_node@U?$_vector3@M@@PAX@std@@@@@std@@SAXAAV?$xalloc@U?$_List_node@U?$_vector3@M@@PAX@std@@@@PAU?$_vector3@M@@@Z 00947a50 f i _sphere.obj
 0001:00046a60       ??$forward@AAPAU?$_List_node@U?$_vector3@M@@PAX@std@@@std@@YAAAPAU?$_List_node@U?$_vector3@M@@PAX@0@AAPAU10@@Z 00947a60 f i _sphere.obj
 0001:00046a70       ??$construct@PAU?$_List_node@U?$_vector3@M@@PAX@std@@AAPAU12@@?$allocator_traits@V?$xalloc@U?$_List_node@U?$_vector3@M@@PAX@std@@@@@std@@SAXAAV?$xalloc@U?$_List_node@U?$_vector3@M@@PAX@std@@@@PAPAU?$_List_node@U?$_vector3@M@@PAX@1@AAPAU31@@Z 00947a70 f i _sphere.obj
 0001:00046ab0       ??0?$xalloc@U?$_List_node@U?$_vector3@M@@PAX@std@@@@QAE@ABV0@@Z 00947ab0 f i _sphere.obj
 0001:00046ac0       ??$construct@U?$_vector3@M@@ABU1@@?$_Wrap_alloc@V?$xalloc@U?$_List_node@U?$_vector3@M@@PAX@std@@@@@std@@QAEXPAU?$_vector3@M@@ABU2@@Z 00947ac0 f i _sphere.obj
 0001:00046b10       ??$?8U?$_List_node@U?$_vector3@M@@PAX@std@@U01@@@YA_NABV?$xalloc@U?$_List_node@U?$_vector3@M@@PAX@std@@@@0@Z 00947b10 f i _sphere.obj
 0001:00046b20       ??$_Fn@V?$xalloc@U?$_List_node@U?$_vector3@M@@PAX@std@@@@PAU?$_List_node@U?$_vector3@M@@PAX@std@@@_Alloc_destroy@std@@SAXU_Wrap_int@1@AAV?$xalloc@U?$_List_node@U?$_vector3@M@@PAX@std@@@@PAPAU?$_List_node@U?$_vector3@M@@PAX@1@@Z 00947b20 f i _sphere.obj
 0001:00046b30       ??$_Fn@V?$xalloc@U?$_List_node@U?$_vector3@M@@PAX@std@@@@U?$_vector3@M@@@_Alloc_destroy@std@@SAXU_Wrap_int@1@AAV?$xalloc@U?$_List_node@U?$_vector3@M@@PAX@std@@@@PAU?$_vector3@M@@@Z 00947b30 f i _sphere.obj
 0001:00046b40       ??$_Fn@V?$xalloc@U?$_List_node@U?$_vector3@M@@PAX@std@@@@PAU?$_List_node@U?$_vector3@M@@PAX@std@@AAPAU23@@_Alloc_construct@std@@SAXU_Wrap_int@1@AAV?$xalloc@U?$_List_node@U?$_vector3@M@@PAX@std@@@@PAPAU?$_List_node@U?$_vector3@M@@PAX@1@AAPAU41@@Z 00947b40 f i _sphere.obj
 0001:00046b80       ??$construct@U?$_vector3@M@@ABU1@@?$allocator_traits@V?$xalloc@U?$_List_node@U?$_vector3@M@@PAX@std@@@@@std@@SAXAAV?$xalloc@U?$_List_node@U?$_vector3@M@@PAX@std@@@@PAU?$_vector3@M@@ABU3@@Z 00947b80 f i _sphere.obj
 0001:00046bd0       ??$_Fn@V?$xalloc@U?$_List_node@U?$_vector3@M@@PAX@std@@@@U?$_vector3@M@@ABU2@@_Alloc_construct@std@@SAXU_Wrap_int@1@AAV?$xalloc@U?$_List_node@U?$_vector3@M@@PAX@std@@@@PAU?$_vector3@M@@ABU4@@Z 00947bd0 f i _sphere.obj
 0001:00046c20       ?_cpuid@@YAHPAU_processor_info@@@Z 00947c20 f   cpuid.obj
 0001:00046f90       ?timestamp@@YAPADAAY0EA@D@Z 00947f90 f   _std_extensions.obj
 0001:000470e0       ?CLSID2TEXT@@YGX_KPAD@Z    009480e0 f   clsid.obj
 0001:00047140       ?TEXT2CLSID@@YG_KPBD@Z     00948140 f   clsid.obj
 0001:00047220       ?_TrimLeft@@YAPADPAD@Z     00948220 f   xr_trims.obj
 0001:00047270       ?_TrimRight@@YAPADPAD@Z    00948270 f   xr_trims.obj
 0001:000472b0       ?_Trim@@YAPADPAD@Z         009482b0 f   xr_trims.obj
 0001:00047320       ?_SetPos@@YAPBDPBDID@Z     00948320 f   xr_trims.obj
 0001:00047360       ?_CopyVal@@YAPBDPBDPADD@Z  00948360 f   xr_trims.obj
 0001:000473b0       ?_GetItemCount@@YAHPBDD@Z  009483b0 f   xr_trims.obj
 0001:00047420       ?_GetItem@@YAPADPBDHPADD0_N@Z 00948420 f   xr_trims.obj
 0001:000474d0       ?_GetItems@@YAPADPBDHHPADD@Z 009484d0 f   xr_trims.obj
 0001:00047520       ?_ParseItem@@YAIPBDPAUxr_token@@@Z 00948520 f   xr_trims.obj
 0001:00047570       ?_ParseItem@@YAIPADHPAUxr_token@@@Z 00948570 f   xr_trims.obj
 0001:000475b0       ?_ReplaceItems@@YAPADPBDHH0PADD@Z 009485b0 f   xr_trims.obj
 0001:00047630       ?_ReplaceItem@@YAPADPBDH0PADD@Z 00948630 f   xr_trims.obj
 0001:000476a0       ?_ChangeSymbol@@YAPADPADDD@Z 009486a0 f   xr_trims.obj
 0001:000476d0       ?_ChangeSymbol@@YAAAV?$basic_string@DU?$char_traits@D@std@@V?$xalloc@D@@@std@@AAV12@DD@Z 009486d0 f   xr_trims.obj
 0001:00047720       ?_SequenceToList@@YAXAAV?$xr_vector@PADV?$xalloc@PAD@@@@PBDD@Z 00948720 f   xr_trims.obj
 0001:000478d0       ?_SequenceToList@@YAXAAV?$xr_vector@Vshared_str@@V?$xalloc@Vshared_str@@@@@@PBDD@Z 009488d0 f   xr_trims.obj
 0001:00047ba0       ?_SequenceToList@@YAXAAV?$xr_vector@V?$basic_string@DU?$char_traits@D@std@@V?$xalloc@D@@@std@@V?$xalloc@V?$basic_string@DU?$char_traits@D@std@@V?$xalloc@D@@@std@@@@@@PBDD@Z 00948ba0 f   xr_trims.obj
 0001:00047ea0       ?_ListToSequence@@YA?AV?$basic_string@DU?$char_traits@D@std@@V?$xalloc@D@@@std@@ABV?$xr_vector@V?$basic_string@DU?$char_traits@D@std@@V?$xalloc@D@@@std@@V?$xalloc@V?$basic_string@DU?$char_traits@D@std@@V?$xalloc@D@@@std@@@@@@@Z 00948ea0 f   xr_trims.obj
 0001:00048080       ?_TrimLeft@@YAAAV?$basic_string@DU?$char_traits@D@std@@V?$xalloc@D@@@std@@AAV12@@Z 00949080 f   xr_trims.obj
 0001:000480d0       ?_TrimRight@@YAAAV?$basic_string@DU?$char_traits@D@std@@V?$xalloc@D@@@std@@AAV12@@Z 009490d0 f   xr_trims.obj
 0001:000481c0       ?_Trim@@YAAAV?$basic_string@DU?$char_traits@D@std@@V?$xalloc@D@@@std@@AAV12@@Z 009491c0 f   xr_trims.obj
 0001:00048210       ?_CopyVal@@YAPBDPBDAAV?$basic_string@DU?$char_traits@D@std@@V?$xalloc@D@@@std@@D@Z 00949210 f   xr_trims.obj
 0001:000482a0       ?_GetItem@@YAPBDPBDHAAV?$basic_string@DU?$char_traits@D@std@@V?$xalloc@D@@@std@@D0_N@Z 009492a0 f   xr_trims.obj
 0001:00048340       ?_ListToSequence@@YA?AVshared_str@@ABV?$xr_vector@Vshared_str@@V?$xalloc@Vshared_str@@@@@@@Z 00949340 f   xr_trims.obj
 0001:000484c0       ?push_back@?$vector@PADV?$xalloc@PAD@@@std@@QAEX$$QAPAD@Z 009494c0 f i xr_trims.obj
 0001:00048560       ?size@?$xr_vector@V?$basic_string@DU?$char_traits@D@std@@V?$xalloc@D@@@std@@V?$xalloc@V?$basic_string@DU?$char_traits@D@std@@V?$xalloc@D@@@std@@@@@@QBEIXZ 00949560 f i xr_trims.obj
 0001:00048580       ?clear@?$xr_vector@V?$basic_string@DU?$char_traits@D@std@@V?$xalloc@D@@@std@@V?$xalloc@V?$basic_string@DU?$char_traits@D@std@@V?$xalloc@D@@@std@@@@@@QAEXXZ 00949580 f i xr_trims.obj
 0001:000485a0       ?push_back@?$vector@V?$basic_string@DU?$char_traits@D@std@@V?$xalloc@D@@@std@@V?$xalloc@V?$basic_string@DU?$char_traits@D@std@@V?$xalloc@D@@@std@@@@@std@@QAEX$$QAV?$basic_string@DU?$char_traits@D@std@@V?$xalloc@D@@@2@@Z 009495a0 f i xr_trims.obj
 0001:00048660       ?begin@?$vector@V?$basic_string@DU?$char_traits@D@std@@V?$xalloc@D@@@std@@V?$xalloc@V?$basic_string@DU?$char_traits@D@std@@V?$xalloc@D@@@std@@@@@std@@QBE?AV?$_Vector_const_iterator@V?$_Vector_val@U?$_Simple_types@V?$basic_string@DU?$char_traits@D@std@@V?$xalloc@D@@@std@@@std@@@std@@@2@XZ 00949660 f i xr_trims.obj
 0001:00048670       ?end@?$vector@V?$basic_string@DU?$char_traits@D@std@@V?$xalloc@D@@@std@@V?$xalloc@V?$basic_string@DU?$char_traits@D@std@@V?$xalloc@D@@@std@@@@@std@@QBE?AV?$_Vector_const_iterator@V?$_Vector_val@U?$_Simple_types@V?$basic_string@DU?$char_traits@D@std@@V?$xalloc@D@@@std@@@std@@@std@@@2@XZ 00949670 f i xr_trims.obj
 0001:00048680       ?front@?$vector@V?$basic_string@DU?$char_traits@D@std@@V?$xalloc@D@@@std@@V?$xalloc@V?$basic_string@DU?$char_traits@D@std@@V?$xalloc@D@@@std@@@@@std@@QBEABV?$basic_string@DU?$char_traits@D@std@@V?$xalloc@D@@@2@XZ 00949680 f i xr_trims.obj
 0001:00048690       ??0?$basic_string@DU?$char_traits@D@std@@V?$xalloc@D@@@std@@QAE@PBD@Z 00949690 f i xr_trims.obj
 0001:000486e0       ??4?$basic_string@DU?$char_traits@D@std@@V?$xalloc@D@@@std@@QAEAAV01@PBD@Z 009496e0 f i xr_trims.obj
 0001:00048720       ??Y?$basic_string@DU?$char_traits@D@std@@V?$xalloc@D@@@std@@QAEAAV01@ABV01@@Z 00949720 f i xr_trims.obj
 0001:00048730       ??Y?$basic_string@DU?$char_traits@D@std@@V?$xalloc@D@@@std@@QAEAAV01@PBD@Z 00949730 f i xr_trims.obj
 0001:00048770       ?length@?$basic_string@DU?$char_traits@D@std@@V?$xalloc@D@@@std@@QBEIXZ 00949770 f i xr_trims.obj
 0001:00048780       ?size@?$xr_vector@Vshared_str@@V?$xalloc@Vshared_str@@@@@@QBEIXZ 00949780 f i xr_trims.obj
 0001:00048790       ?clear@?$xr_vector@Vshared_str@@V?$xalloc@Vshared_str@@@@@@QAEXXZ 00949790 f i xr_trims.obj
 0001:000487d0       ?push_back@?$vector@Vshared_str@@V?$xalloc@Vshared_str@@@@@std@@QAEX$$QAVshared_str@@@Z 009497d0 f i xr_trims.obj
 0001:00048890       ?begin@?$vector@Vshared_str@@V?$xalloc@Vshared_str@@@@@std@@QBE?AV?$_Vector_const_iterator@V?$_Vector_val@U?$_Simple_types@Vshared_str@@@std@@@std@@@2@XZ 00949890 f i xr_trims.obj
 0001:000488a0       ?end@?$vector@Vshared_str@@V?$xalloc@Vshared_str@@@@@std@@QBE?AV?$_Vector_const_iterator@V?$_Vector_val@U?$_Simple_types@Vshared_str@@@std@@@std@@@2@XZ 009498a0 f i xr_trims.obj
 0001:000488b0       ?front@?$vector@Vshared_str@@V?$xalloc@Vshared_str@@@@@std@@QBEABVshared_str@@XZ 009498b0 f i xr_trims.obj
 0001:000488c0       ??D?$_Vector_const_iterator@V?$_Vector_val@U?$_Simple_types@V?$basic_string@DU?$char_traits@D@std@@V?$xalloc@D@@@std@@@std@@@std@@@std@@QBEABV?$basic_string@DU?$char_traits@D@std@@V?$xalloc@D@@@1@XZ 009498c0 f i xr_trims.obj
 0001:000488d0       ??E?$_Vector_const_iterator@V?$_Vector_val@U?$_Simple_types@V?$basic_string@DU?$char_traits@D@std@@V?$xalloc@D@@@std@@@std@@@std@@@std@@QAE?AV01@H@Z 009498d0 f i xr_trims.obj
 0001:000488e0       ??H?$_Vector_const_iterator@V?$_Vector_val@U?$_Simple_types@V?$basic_string@DU?$char_traits@D@std@@V?$xalloc@D@@@std@@@std@@@std@@@std@@QBE?AV01@H@Z 009498e0 f i xr_trims.obj
 0001:000488f0       ??9?$_Vector_const_iterator@V?$_Vector_val@U?$_Simple_types@V?$basic_string@DU?$char_traits@D@std@@V?$xalloc@D@@@std@@@std@@@std@@@std@@QBE_NABV01@@Z 009498f0 f i xr_trims.obj
 0001:00048900       ??D?$_Vector_const_iterator@V?$_Vector_val@U?$_Simple_types@Vshared_str@@@std@@@std@@@std@@QBEABVshared_str@@XZ 00949900 f i xr_trims.obj
 0001:00048910       ??E?$_Vector_const_iterator@V?$_Vector_val@U?$_Simple_types@Vshared_str@@@std@@@std@@@std@@QAE?AV01@H@Z 00949910 f i xr_trims.obj
 0001:00048920       ??H?$_Vector_const_iterator@V?$_Vector_val@U?$_Simple_types@Vshared_str@@@std@@@std@@@std@@QBE?AV01@H@Z 00949920 f i xr_trims.obj
 0001:00048930       ??9?$_Vector_const_iterator@V?$_Vector_val@U?$_Simple_types@Vshared_str@@@std@@@std@@@std@@QBE_NABV01@@Z 00949930 f i xr_trims.obj
 0001:00048940       ?_Inside@?$vector@PADV?$xalloc@PAD@@@std@@IBE_NPBQAD@Z 00949940 f i xr_trims.obj
 0001:00048960       ?_Reserve@?$vector@PADV?$xalloc@PAD@@@std@@IAEXI@Z 00949960 f i xr_trims.obj
 0001:000489d0       ?_Orphan_range@?$vector@PADV?$xalloc@PAD@@@std@@IBEXPAPAD0@Z 009499d0 f i xr_trims.obj
 0001:000489e0       ?_Getal@?$_Vector_alloc@$0A@U?$_Vec_base_types@PADV?$xalloc@PAD@@@std@@@std@@QBE?AU?$_Wrap_alloc@V?$xalloc@PAD@@@2@XZ 009499e0 f i xr_trims.obj
 0001:000489f0       ?clear_and_free@?$xr_vector@V?$basic_string@DU?$char_traits@D@std@@V?$xalloc@D@@@std@@V?$xalloc@V?$basic_string@DU?$char_traits@D@std@@V?$xalloc@D@@@std@@@@@@QAEXXZ 009499f0 f i xr_trims.obj
 0001:00048a10       ?size@?$vector@V?$basic_string@DU?$char_traits@D@std@@V?$xalloc@D@@@std@@V?$xalloc@V?$basic_string@DU?$char_traits@D@std@@V?$xalloc@D@@@std@@@@@std@@QBEIXZ 00949a10 f i xr_trims.obj
 0001:00048a30       ?_Inside@?$vector@V?$basic_string@DU?$char_traits@D@std@@V?$xalloc@D@@@std@@V?$xalloc@V?$basic_string@DU?$char_traits@D@std@@V?$xalloc@D@@@std@@@@@std@@IBE_NPBV?$basic_string@DU?$char_traits@D@std@@V?$xalloc@D@@@2@@Z 00949a30 f i xr_trims.obj
 0001:00048a50       ?_Reserve@?$vector@V?$basic_string@DU?$char_traits@D@std@@V?$xalloc@D@@@std@@V?$xalloc@V?$basic_string@DU?$char_traits@D@std@@V?$xalloc@D@@@std@@@@@std@@IAEXI@Z 00949a50 f i xr_trims.obj
 0001:00048af0       ?_Orphan_range@?$vector@V?$basic_string@DU?$char_traits@D@std@@V?$xalloc@D@@@std@@V?$xalloc@V?$basic_string@DU?$char_traits@D@std@@V?$xalloc@D@@@std@@@@@std@@IBEXPAV?$basic_string@DU?$char_traits@D@std@@V?$xalloc@D@@@2@0@Z 00949af0 f i xr_trims.obj
 0001:00048b00       ?_Getal@?$_Vector_alloc@$0A@U?$_Vec_base_types@V?$basic_string@DU?$char_traits@D@std@@V?$xalloc@D@@@std@@V?$xalloc@V?$basic_string@DU?$char_traits@D@std@@V?$xalloc@D@@@std@@@@@std@@@std@@QBE?AU?$_Wrap_alloc@V?$xalloc@V?$basic_string@DU?$char_traits@D@std@@V?$xalloc@D@@@std@@@@@2@XZ 00949b00 f i xr_trims.obj
 0001:00048b10       ?append@?$basic_string@DU?$char_traits@D@std@@V?$xalloc@D@@@std@@QAEAAV12@ABV12@@Z 00949b10 f i xr_trims.obj
 0001:00048b20       ?append@?$basic_string@DU?$char_traits@D@std@@V?$xalloc@D@@@std@@QAEAAV12@PBD@Z 00949b20 f i xr_trims.obj
 0001:00048b60       ?assign@?$basic_string@DU?$char_traits@D@std@@V?$xalloc@D@@@std@@QAEAAV12@PBD@Z 00949b60 f i xr_trims.obj
 0001:00048ba0       ?clear_and_free@?$xr_vector@Vshared_str@@V?$xalloc@Vshared_str@@@@@@QAEXXZ 00949ba0 f i xr_trims.obj
 0001:00048be0       ?size@?$vector@Vshared_str@@V?$xalloc@Vshared_str@@@@@std@@QBEIXZ 00949be0 f i xr_trims.obj
 0001:00048bf0       ?_Inside@?$vector@Vshared_str@@V?$xalloc@Vshared_str@@@@@std@@IBE_NPBVshared_str@@@Z 00949bf0 f i xr_trims.obj
 0001:00048c10       ?_Reserve@?$vector@Vshared_str@@V?$xalloc@Vshared_str@@@@@std@@IAEXI@Z 00949c10 f i xr_trims.obj
 0001:00048c90       ?_Orphan_range@?$vector@Vshared_str@@V?$xalloc@Vshared_str@@@@@std@@IBEXPAVshared_str@@0@Z 00949c90 f i xr_trims.obj
 0001:00048ca0       ?_Getal@?$_Vector_alloc@$0A@U?$_Vec_base_types@Vshared_str@@V?$xalloc@Vshared_str@@@@@std@@@std@@QBE?AU?$_Wrap_alloc@V?$xalloc@Vshared_str@@@@@2@XZ 00949ca0 f i xr_trims.obj
 0001:00048cb0       ??0?$_Vector_const_iterator@V?$_Vector_val@U?$_Simple_types@V?$basic_string@DU?$char_traits@D@std@@V?$xalloc@D@@@std@@@std@@@std@@@std@@QAE@PAV?$basic_string@DU?$char_traits@D@std@@V?$xalloc@D@@@1@PBU_Container_base0@1@@Z 00949cb0 f i xr_trims.obj
 0001:00048cc0       ??E?$_Vector_const_iterator@V?$_Vector_val@U?$_Simple_types@V?$basic_string@DU?$char_traits@D@std@@V?$xalloc@D@@@std@@@std@@@std@@@std@@QAEAAV01@XZ 00949cc0 f i xr_trims.obj
 0001:00048cd0       ??Y?$_Vector_const_iterator@V?$_Vector_val@U?$_Simple_types@V?$basic_string@DU?$char_traits@D@std@@V?$xalloc@D@@@std@@@std@@@std@@@std@@QAEAAV01@H@Z 00949cd0 f i xr_trims.obj
 0001:00048cf0       ??8?$_Vector_const_iterator@V?$_Vector_val@U?$_Simple_types@V?$basic_string@DU?$char_traits@D@std@@V?$xalloc@D@@@std@@@std@@@std@@@std@@QBE_NABV01@@Z 00949cf0 f i xr_trims.obj
 0001:00048d00       ??0?$_Vector_const_iterator@V?$_Vector_val@U?$_Simple_types@Vshared_str@@@std@@@std@@@std@@QAE@PAVshared_str@@PBU_Container_base0@1@@Z 00949d00 f i xr_trims.obj
 0001:00048d10       ??E?$_Vector_const_iterator@V?$_Vector_val@U?$_Simple_types@Vshared_str@@@std@@@std@@@std@@QAEAAV01@XZ 00949d10 f i xr_trims.obj
 0001:00048d20       ??Y?$_Vector_const_iterator@V?$_Vector_val@U?$_Simple_types@Vshared_str@@@std@@@std@@@std@@QAEAAV01@H@Z 00949d20 f i xr_trims.obj
 0001:00048d30       ??8?$_Vector_const_iterator@V?$_Vector_val@U?$_Simple_types@Vshared_str@@@std@@@std@@@std@@QBE_NABV01@@Z 00949d30 f i xr_trims.obj
 0001:00048d40       ?_Unused_capacity@?$vector@PADV?$xalloc@PAD@@@std@@QBEIXZ 00949d40 f i xr_trims.obj
 0001:00048d50       ?size@?$vector@PADV?$xalloc@PAD@@@std@@QBEIXZ 00949d50 f i xr_trims.obj
 0001:00048d60       ?max_size@?$vector@PADV?$xalloc@PAD@@@std@@QBEIXZ 00949d60 f i xr_trims.obj
 0001:00048d70       ?_Grow_to@?$vector@PADV?$xalloc@PAD@@@std@@IBEII@Z 00949d70 f i xr_trims.obj
 0001:00048db0       ?_Reallocate@?$vector@PADV?$xalloc@PAD@@@std@@IAEXI@Z 00949db0 f i xr_trims.obj
 0001:00048e60       ?_Xlen@?$vector@PADV?$xalloc@PAD@@@std@@IBEXXZ 00949e60 f i xr_trims.obj
 0001:00048e70       ??0?$_Wrap_alloc@V?$xalloc@PAD@@@std@@QAE@XZ 00949e70 f i xr_trims.obj
 0001:00048e80       ?_Unused_capacity@?$vector@V?$basic_string@DU?$char_traits@D@std@@V?$xalloc@D@@@std@@V?$xalloc@V?$basic_string@DU?$char_traits@D@std@@V?$xalloc@D@@@std@@@@@std@@QBEIXZ 00949e80 f i xr_trims.obj
 0001:00048ea0       ?max_size@?$vector@V?$basic_string@DU?$char_traits@D@std@@V?$xalloc@D@@@std@@V?$xalloc@V?$basic_string@DU?$char_traits@D@std@@V?$xalloc@D@@@std@@@@@std@@QBEIXZ 00949ea0 f i xr_trims.obj
 0001:00048eb0       ?clear@?$vector@V?$basic_string@DU?$char_traits@D@std@@V?$xalloc@D@@@std@@V?$xalloc@V?$basic_string@DU?$char_traits@D@std@@V?$xalloc@D@@@std@@@@@std@@QAEXXZ 00949eb0 f i xr_trims.obj
 0001:00048ed0       ?_Grow_to@?$vector@V?$basic_string@DU?$char_traits@D@std@@V?$xalloc@D@@@std@@V?$xalloc@V?$basic_string@DU?$char_traits@D@std@@V?$xalloc@D@@@std@@@@@std@@IBEII@Z 00949ed0 f i xr_trims.obj
 0001:00048f20       ?_Reallocate@?$vector@V?$basic_string@DU?$char_traits@D@std@@V?$xalloc@D@@@std@@V?$xalloc@V?$basic_string@DU?$char_traits@D@std@@V?$xalloc@D@@@std@@@@@std@@IAEXI@Z 00949f20 f i xr_trims.obj
 0001:00049000       ?_Xlen@?$vector@V?$basic_string@DU?$char_traits@D@std@@V?$xalloc@D@@@std@@V?$xalloc@V?$basic_string@DU?$char_traits@D@std@@V?$xalloc@D@@@std@@@@@std@@IBEXXZ 0094a000 f i xr_trims.obj
 0001:00049010       ??0?$_Wrap_alloc@V?$xalloc@V?$basic_string@DU?$char_traits@D@std@@V?$xalloc@D@@@std@@@@@std@@QAE@XZ 0094a010 f i xr_trims.obj
 0001:00049020       ?append@?$basic_string@DU?$char_traits@D@std@@V?$xalloc@D@@@std@@QAEAAV12@ABV12@II@Z 0094a020 f i xr_trims.obj
 0001:00049110       ?append@?$basic_string@DU?$char_traits@D@std@@V?$xalloc@D@@@std@@QAEAAV12@PBDI@Z 0094a110 f i xr_trims.obj
 0001:00049230       ?assign@?$basic_string@DU?$char_traits@D@std@@V?$xalloc@D@@@std@@QAEAAV12@PBDI@Z 0094a230 f i xr_trims.obj
 0001:00049330       ?_Unused_capacity@?$vector@Vshared_str@@V?$xalloc@Vshared_str@@@@@std@@QBEIXZ 0094a330 f i xr_trims.obj
 0001:00049340       ?max_size@?$vector@Vshared_str@@V?$xalloc@Vshared_str@@@@@std@@QBEIXZ 0094a340 f i xr_trims.obj
 0001:00049350       ?clear@?$vector@Vshared_str@@V?$xalloc@Vshared_str@@@@@std@@QAEXXZ 0094a350 f i xr_trims.obj
 0001:00049390       ?_Grow_to@?$vector@Vshared_str@@V?$xalloc@Vshared_str@@@@@std@@IBEII@Z 0094a390 f i xr_trims.obj
 0001:000493d0       ?_Reallocate@?$vector@Vshared_str@@V?$xalloc@Vshared_str@@@@@std@@IAEXI@Z 0094a3d0 f i xr_trims.obj
 0001:000494b0       ?_Xlen@?$vector@Vshared_str@@V?$xalloc@Vshared_str@@@@@std@@IBEXXZ 0094a4b0 f i xr_trims.obj
 0001:000494c0       ??0?$_Wrap_alloc@V?$xalloc@Vshared_str@@@@@std@@QAE@XZ 0094a4c0 f i xr_trims.obj
 0001:000494d0       ?_Compat@?$_Vector_const_iterator@V?$_Vector_val@U?$_Simple_types@V?$basic_string@DU?$char_traits@D@std@@V?$xalloc@D@@@std@@@std@@@std@@@std@@QBEXABV12@@Z 0094a4d0 f i xr_trims.obj
 0001:000494e0       ?_Compat@?$_Vector_const_iterator@V?$_Vector_val@U?$_Simple_types@Vshared_str@@@std@@@std@@@std@@QBEXABV12@@Z 0094a4e0 f i xr_trims.obj
 0001:000494f0       ?capacity@?$vector@PADV?$xalloc@PAD@@@std@@QBEIXZ 0094a4f0 f i xr_trims.obj
 0001:00049500       ?_Destroy@?$vector@PADV?$xalloc@PAD@@@std@@IAEXPAPAD0@Z 0094a500 f i xr_trims.obj
 0001:00049510       ??0?$xalloc@PAD@@QAE@XZ    0094a510 f i xr_trims.obj
 0001:00049520       ?allocate@?$_Wrap_alloc@V?$xalloc@PAD@@@std@@QAEPAPADI@Z 0094a520 f i xr_trims.obj
 0001:00049540       ?deallocate@?$_Wrap_alloc@V?$xalloc@PAD@@@std@@QAEXPAPADI@Z 0094a540 f i xr_trims.obj
 0001:00049560       ?max_size@?$_Wrap_alloc@V?$xalloc@PAD@@@std@@QBEIXZ 0094a560 f i xr_trims.obj
 0001:00049570       ?capacity@?$vector@V?$basic_string@DU?$char_traits@D@std@@V?$xalloc@D@@@std@@V?$xalloc@V?$basic_string@DU?$char_traits@D@std@@V?$xalloc@D@@@std@@@@@std@@QBEIXZ 0094a570 f i xr_trims.obj
 0001:00049590       ?_Destroy@?$vector@V?$basic_string@DU?$char_traits@D@std@@V?$xalloc@D@@@std@@V?$xalloc@V?$basic_string@DU?$char_traits@D@std@@V?$xalloc@D@@@std@@@@@std@@IAEXPAV?$basic_string@DU?$char_traits@D@std@@V?$xalloc@D@@@2@0@Z 0094a590 f i xr_trims.obj
 0001:000495b0       ??0?$xalloc@V?$basic_string@DU?$char_traits@D@std@@V?$xalloc@D@@@std@@@@QAE@XZ 0094a5b0 f i xr_trims.obj
 0001:000495c0       ?allocate@?$_Wrap_alloc@V?$xalloc@V?$basic_string@DU?$char_traits@D@std@@V?$xalloc@D@@@std@@@@@std@@QAEPAV?$basic_string@DU?$char_traits@D@std@@V?$xalloc@D@@@2@I@Z 0094a5c0 f i xr_trims.obj
 0001:000495e0       ?deallocate@?$_Wrap_alloc@V?$xalloc@V?$basic_string@DU?$char_traits@D@std@@V?$xalloc@D@@@std@@@@@std@@QAEXPAV?$basic_string@DU?$char_traits@D@std@@V?$xalloc@D@@@2@I@Z 0094a5e0 f i xr_trims.obj
 0001:00049600       ?max_size@?$_Wrap_alloc@V?$xalloc@V?$basic_string@DU?$char_traits@D@std@@V?$xalloc@D@@@std@@@@@std@@QBEIXZ 0094a600 f i xr_trims.obj
 0001:00049610       ?_Inside@?$basic_string@DU?$char_traits@D@std@@V?$xalloc@D@@@std@@QAE_NPBD@Z 0094a610 f i xr_trims.obj
 0001:00049650       ?capacity@?$vector@Vshared_str@@V?$xalloc@Vshared_str@@@@@std@@QBEIXZ 0094a650 f i xr_trims.obj
 0001:00049660       ?_Destroy@?$vector@Vshared_str@@V?$xalloc@Vshared_str@@@@@std@@IAEXPAVshared_str@@0@Z 0094a660 f i xr_trims.obj
 0001:00049690       ??0?$xalloc@Vshared_str@@@@QAE@XZ 0094a690 f i xr_trims.obj
 0001:000496a0       ?allocate@?$_Wrap_alloc@V?$xalloc@Vshared_str@@@@@std@@QAEPAVshared_str@@I@Z 0094a6a0 f i xr_trims.obj
 0001:000496c0       ?deallocate@?$_Wrap_alloc@V?$xalloc@Vshared_str@@@@@std@@QAEXPAVshared_str@@I@Z 0094a6c0 f i xr_trims.obj
 0001:000496e0       ?max_size@?$_Wrap_alloc@V?$xalloc@Vshared_str@@@@@std@@QBEIXZ 0094a6e0 f i xr_trims.obj
 0001:000496f0       ?allocate@?$xalloc@PAD@@QBEPAPADIPBX@Z 0094a6f0 f i xr_trims.obj
 0001:00049710       ?deallocate@?$xalloc@PAD@@QBEXPAPADI@Z 0094a710 f i xr_trims.obj
 0001:00049730       ?max_size@?$allocator_traits@V?$xalloc@PAD@@@std@@SAIABV?$xalloc@PAD@@@Z 0094a730 f i xr_trims.obj
 0001:00049740       ?allocate@?$xalloc@V?$basic_string@DU?$char_traits@D@std@@V?$xalloc@D@@@std@@@@QBEPAV?$basic_string@DU?$char_traits@D@std@@V?$xalloc@D@@@std@@IPBX@Z 0094a740 f i xr_trims.obj
 0001:00049760       ?deallocate@?$xalloc@V?$basic_string@DU?$char_traits@D@std@@V?$xalloc@D@@@std@@@@QBEXPAV?$basic_string@DU?$char_traits@D@std@@V?$xalloc@D@@@std@@I@Z 0094a760 f i xr_trims.obj
 0001:00049780       ?max_size@?$allocator_traits@V?$xalloc@V?$basic_string@DU?$char_traits@D@std@@V?$xalloc@D@@@std@@@@@std@@SAIABV?$xalloc@V?$basic_string@DU?$char_traits@D@std@@V?$xalloc@D@@@std@@@@@Z 0094a780 f i xr_trims.obj
 0001:00049790       ?allocate@?$xalloc@Vshared_str@@@@QBEPAVshared_str@@IPBX@Z 0094a790 f i xr_trims.obj
 0001:000497b0       ?deallocate@?$xalloc@Vshared_str@@@@QBEXPAVshared_str@@I@Z 0094a7b0 f i xr_trims.obj
 0001:000497d0       ?max_size@?$allocator_traits@V?$xalloc@Vshared_str@@@@@std@@SAIABV?$xalloc@Vshared_str@@@@@Z 0094a7d0 f i xr_trims.obj
 0001:000497e0       ??$?HDU?$char_traits@D@std@@V?$xalloc@D@@@std@@YA?AV?$basic_string@DU?$char_traits@D@std@@V?$xalloc@D@@@0@$$QAV10@ABV10@@Z 0094a7e0 f i xr_trims.obj
 0001:000498a0       ??$?HDU?$char_traits@D@std@@V?$xalloc@D@@@std@@YA?AV?$basic_string@DU?$char_traits@D@std@@V?$xalloc@D@@@0@ABV10@PBD@Z 0094a8a0 f i xr_trims.obj
 0001:00049990       ??$?9DU?$char_traits@D@std@@V?$xalloc@D@@@std@@YA_NPBDABV?$basic_string@DU?$char_traits@D@std@@V?$xalloc@D@@@0@@Z 0094a990 f i xr_trims.obj
 0001:00049a00       ??$addressof@PAD@std@@YAPAPADAAPAD@Z 0094aa00 f i xr_trims.obj
 0001:00049a10       ??$forward@PAD@std@@YA$$QAPADAAPAD@Z 0094aa10 f i xr_trims.obj
 0001:00049a20       ??$construct@PADPAD@?$_Wrap_alloc@V?$xalloc@PAD@@@std@@QAEXPAPAD$$QAPAD@Z 0094aa20 f i xr_trims.obj
 0001:00049a70       ??$addressof@V?$basic_string@DU?$char_traits@D@std@@V?$xalloc@D@@@std@@@std@@YAPAV?$basic_string@DU?$char_traits@D@std@@V?$xalloc@D@@@0@AAV10@@Z 0094aa70 f i xr_trims.obj
 0001:00049a80       ??$forward@V?$basic_string@DU?$char_traits@D@std@@V?$xalloc@D@@@std@@@std@@YA$$QAV?$basic_string@DU?$char_traits@D@std@@V?$xalloc@D@@@0@AAV10@@Z 0094aa80 f i xr_trims.obj
 0001:00049a90       ??$construct@V?$basic_string@DU?$char_traits@D@std@@V?$xalloc@D@@@std@@V12@@?$_Wrap_alloc@V?$xalloc@V?$basic_string@DU?$char_traits@D@std@@V?$xalloc@D@@@std@@@@@std@@QAEXPAV?$basic_string@DU?$char_traits@D@std@@V?$xalloc@D@@@1@$$QAV21@@Z 0094aa90 f i xr_trims.obj
 0001:00049af0       ??$addressof@Vshared_str@@@std@@YAPAVshared_str@@AAV1@@Z 0094aaf0 f i xr_trims.obj
 0001:00049b00       ??$forward@Vshared_str@@@std@@YA$$QAVshared_str@@AAV1@@Z 0094ab00 f i xr_trims.obj
 0001:00049b10       ??$construct@Vshared_str@@V1@@?$_Wrap_alloc@V?$xalloc@Vshared_str@@@@@std@@QAEXPAVshared_str@@$$QAV2@@Z 0094ab10 f i xr_trims.obj
 0001:00049b80       ??$_Umove@PAPAD@?$vector@PADV?$xalloc@PAD@@@std@@IAEPAPADPAPAD00@Z 0094ab80 f i xr_trims.obj
 0001:00049bb0       ??$_Umove@PAV?$basic_string@DU?$char_traits@D@std@@V?$xalloc@D@@@std@@@?$vector@V?$basic_string@DU?$char_traits@D@std@@V?$xalloc@D@@@std@@V?$xalloc@V?$basic_string@DU?$char_traits@D@std@@V?$xalloc@D@@@std@@@@@std@@IAEPAV?$basic_string@DU?$char_traits@D@std@@V?$xalloc@D@@@1@PAV21@00@Z 0094abb0 f i xr_trims.obj
 0001:00049bd0       ??$_Umove@PAVshared_str@@@?$vector@Vshared_str@@V?$xalloc@Vshared_str@@@@@std@@IAEPAVshared_str@@PAV2@00@Z 0094abd0 f i xr_trims.obj
 0001:00049bf0       ??$_Destroy_range@U?$_Wrap_alloc@V?$xalloc@PAD@@@std@@@std@@YAXPAPAD0AAU?$_Wrap_alloc@V?$xalloc@PAD@@@0@@Z 0094abf0 f i xr_trims.obj
 0001:00049c00       ??$_Destroy_range@U?$_Wrap_alloc@V?$xalloc@V?$basic_string@DU?$char_traits@D@std@@V?$xalloc@D@@@std@@@@@std@@@std@@YAXPAV?$basic_string@DU?$char_traits@D@std@@V?$xalloc@D@@@0@0AAU?$_Wrap_alloc@V?$xalloc@V?$basic_string@DU?$char_traits@D@std@@V?$xalloc@D@@@std@@@@@0@@Z 0094ac00 f i xr_trims.obj
 0001:00049c10       ??$_Destroy_range@U?$_Wrap_alloc@V?$xalloc@Vshared_str@@@@@std@@@std@@YAXPAVshared_str@@0AAU?$_Wrap_alloc@V?$xalloc@Vshared_str@@@@@0@@Z 0094ac10 f i xr_trims.obj
 0001:00049c40       ??$xr_alloc@PAD@@YAPAPADI@Z 0094ac40 f i xr_trims.obj
 0001:00049c60       ??$xr_free@PAD@@YAXAAPAPAD@Z 0094ac60 f i xr_trims.obj
 0001:00049c80       ??$_Fn@V?$xalloc@PAD@@@_Alloc_max_size@std@@SAIHABV?$xalloc@PAD@@@Z 0094ac80 f i xr_trims.obj
 0001:00049c90       ??$xr_alloc@V?$basic_string@DU?$char_traits@D@std@@V?$xalloc@D@@@std@@@@YAPAV?$basic_string@DU?$char_traits@D@std@@V?$xalloc@D@@@std@@I@Z 0094ac90 f i xr_trims.obj
 0001:00049cb0       ??$xr_free@V?$basic_string@DU?$char_traits@D@std@@V?$xalloc@D@@@std@@@@YAXAAPAV?$basic_string@DU?$char_traits@D@std@@V?$xalloc@D@@@std@@@Z 0094acb0 f i xr_trims.obj
 0001:00049cd0       ??$_Fn@V?$xalloc@V?$basic_string@DU?$char_traits@D@std@@V?$xalloc@D@@@std@@@@@_Alloc_max_size@std@@SAIHABV?$xalloc@V?$basic_string@DU?$char_traits@D@std@@V?$xalloc@D@@@std@@@@@Z 0094acd0 f i xr_trims.obj
 0001:00049ce0       ??$xr_alloc@Vshared_str@@@@YAPAVshared_str@@I@Z 0094ace0 f i xr_trims.obj
 0001:00049d00       ??$xr_free@Vshared_str@@@@YAXAAPAVshared_str@@@Z 0094ad00 f i xr_trims.obj
 0001:00049d20       ??$_Fn@V?$xalloc@Vshared_str@@@@@_Alloc_max_size@std@@SAIHABV?$xalloc@Vshared_str@@@@@Z 0094ad20 f i xr_trims.obj
 0001:00049d30       ?max_size@?$xalloc@PAD@@QBEIXZ 0094ad30 f i xr_trims.obj
 0001:00049d40       ?max_size@?$xalloc@V?$basic_string@DU?$char_traits@D@std@@V?$xalloc@D@@@std@@@@QBEIXZ 0094ad40 f i xr_trims.obj
 0001:00049d50       ??0?$basic_string@DU?$char_traits@D@std@@V?$xalloc@D@@@std@@QAE@$$QAV01@@Z 0094ad50 f i xr_trims.obj
 0001:00049df0       ?reserve@?$basic_string@DU?$char_traits@D@std@@V?$xalloc@D@@@std@@QAEXI@Z 0094adf0 f i xr_trims.obj
 0001:00049e30       ?max_size@?$xalloc@Vshared_str@@@@QBEIXZ 0094ae30 f i xr_trims.obj
 0001:00049e40       ?_Assign_rv@?$basic_string@DU?$char_traits@D@std@@V?$xalloc@D@@@std@@QAEX$$QAV12@@Z 0094ae40 f i xr_trims.obj
 0001:00049ed0       ??$move@AAV?$basic_string@DU?$char_traits@D@std@@V?$xalloc@D@@@std@@@std@@YA$$QAV?$basic_string@DU?$char_traits@D@std@@V?$xalloc@D@@@0@AAV10@@Z 0094aed0 f i xr_trims.obj
 0001:00049ee0       ??$?8DU?$char_traits@D@std@@V?$xalloc@D@@@std@@YA_NPBDABV?$basic_string@DU?$char_traits@D@std@@V?$xalloc@D@@@0@@Z 0094aee0 f i xr_trims.obj
 0001:00049f50       ??$construct@PADPAD@?$allocator_traits@V?$xalloc@PAD@@@std@@SAXAAV?$xalloc@PAD@@PAPAD$$QAPAD@Z 0094af50 f i xr_trims.obj
 0001:00049f90       ??$construct@V?$basic_string@DU?$char_traits@D@std@@V?$xalloc@D@@@std@@V12@@?$allocator_traits@V?$xalloc@V?$basic_string@DU?$char_traits@D@std@@V?$xalloc@D@@@std@@@@@std@@SAXAAV?$xalloc@V?$basic_string@DU?$char_traits@D@std@@V?$xalloc@D@@@std@@@@PAV?$basic_string@DU?$char_traits@D@std@@V?$xalloc@D@@@1@$$QAV31@@Z 0094af90 f i xr_trims.obj
 0001:00049ff0       ??$construct@Vshared_str@@V1@@?$allocator_traits@V?$xalloc@Vshared_str@@@@@std@@SAXAAV?$xalloc@Vshared_str@@@@PAVshared_str@@$$QAV3@@Z 0094aff0 f i xr_trims.obj
 0001:0004a050       ??$_Uninitialized_move@PAPADPAPADU?$_Wrap_alloc@V?$xalloc@PAD@@@std@@@std@@YAPAPADPAPAD00AAU?$_Wrap_alloc@V?$xalloc@PAD@@@0@@Z 0094b050 f i xr_trims.obj
 0001:0004a070       ??$_Uninitialized_move@PAV?$basic_string@DU?$char_traits@D@std@@V?$xalloc@D@@@std@@PAV12@U?$_Wrap_alloc@V?$xalloc@V?$basic_string@DU?$char_traits@D@std@@V?$xalloc@D@@@std@@@@@2@@std@@YAPAV?$basic_string@DU?$char_traits@D@std@@V?$xalloc@D@@@0@PAV10@00AAU?$_Wrap_alloc@V?$xalloc@V?$basic_string@DU?$char_traits@D@std@@V?$xalloc@D@@@std@@@@@0@@Z 0094b070 f i xr_trims.obj
 0001:0004a090       ??$_Uninitialized_move@PAVshared_str@@PAV1@U?$_Wrap_alloc@V?$xalloc@Vshared_str@@@@@std@@@std@@YAPAVshared_str@@PAV1@00AAU?$_Wrap_alloc@V?$xalloc@Vshared_str@@@@@0@@Z 0094b090 f i xr_trims.obj
 0001:0004a0b0       ??$_Ptr_cat@PADPAD@std@@YA?AU_Scalar_ptr_iterator_tag@0@PAPAD0@Z 0094b0b0 f i xr_trims.obj
 0001:0004a0c0       ??$_Destroy_range@U?$_Wrap_alloc@V?$xalloc@PAD@@@std@@@std@@YAXPAPAD0AAU?$_Wrap_alloc@V?$xalloc@PAD@@@0@U_Scalar_ptr_iterator_tag@0@@Z 0094b0c0 f i xr_trims.obj
 0001:0004a0d0       ??$_Ptr_cat@V?$basic_string@DU?$char_traits@D@std@@V?$xalloc@D@@@std@@V12@@std@@YA?AU_Nonscalar_ptr_iterator_tag@0@PAV?$basic_string@DU?$char_traits@D@std@@V?$xalloc@D@@@0@0@Z 0094b0d0 f i xr_trims.obj
 0001:0004a0e0       ??$_Destroy_range@U?$_Wrap_alloc@V?$xalloc@V?$basic_string@DU?$char_traits@D@std@@V?$xalloc@D@@@std@@@@@std@@@std@@YAXPAV?$basic_string@DU?$char_traits@D@std@@V?$xalloc@D@@@0@0AAU?$_Wrap_alloc@V?$xalloc@V?$basic_string@DU?$char_traits@D@std@@V?$xalloc@D@@@std@@@@@0@U_Nonscalar_ptr_iterator_tag@0@@Z 0094b0e0 f i xr_trims.obj
 0001:0004a130       ??$_Ptr_cat@Vshared_str@@V1@@std@@YA?AU_Nonscalar_ptr_iterator_tag@0@PAVshared_str@@0@Z 0094b130 f i xr_trims.obj
 0001:0004a140       ??$_Destroy_range@U?$_Wrap_alloc@V?$xalloc@Vshared_str@@@@@std@@@std@@YAXPAVshared_str@@0AAU?$_Wrap_alloc@V?$xalloc@Vshared_str@@@@@0@U_Nonscalar_ptr_iterator_tag@0@@Z 0094b140 f i xr_trims.obj
 0001:0004a170       ?compare@?$basic_string@DU?$char_traits@D@std@@V?$xalloc@D@@@std@@QBEHPBD@Z 0094b170 f i xr_trims.obj
 0001:0004a1d0       ?compare@?$basic_string@DU?$char_traits@D@std@@V?$xalloc@D@@@std@@QBEHIIPBDI@Z 0094b1d0 f i xr_trims.obj
 0001:0004a220       ??$_Fn@V?$xalloc@PAD@@PADPAD@_Alloc_construct@std@@SAXHAAV?$xalloc@PAD@@PAPAD$$QAPAD@Z 0094b220 f i xr_trims.obj
 0001:0004a270       ??$_Fn@V?$xalloc@V?$basic_string@DU?$char_traits@D@std@@V?$xalloc@D@@@std@@@@V?$basic_string@DU?$char_traits@D@std@@V?$xalloc@D@@@std@@V23@@_Alloc_construct@std@@SAXHAAV?$xalloc@V?$basic_string@DU?$char_traits@D@std@@V?$xalloc@D@@@std@@@@PAV?$basic_string@DU?$char_traits@D@std@@V?$xalloc@D@@@1@$$QAV31@@Z 0094b270 f i xr_trims.obj
 0001:0004a2d0       ??$_Fn@V?$xalloc@Vshared_str@@@@Vshared_str@@V2@@_Alloc_construct@std@@SAXHAAV?$xalloc@Vshared_str@@@@PAVshared_str@@$$QAV3@@Z 0094b2d0 f i xr_trims.obj
 0001:0004a340       ??$_Unchecked@PAPAD@std@@YAPAPADPAPAD@Z 0094b340 f i xr_trims.obj
 0001:0004a350       ??$_Uninit_move@PAPADPAPADU?$_Wrap_alloc@V?$xalloc@PAD@@@std@@@std@@YAPAPADPAPAD00AAU?$_Wrap_alloc@V?$xalloc@PAD@@@0@@Z 0094b350 f i xr_trims.obj
 0001:0004a370       ??$_Rechecked@PAPADPAPAD@std@@YAAAPAPADAAPAPADPAPAD@Z 0094b370 f i xr_trims.obj
 0001:0004a380       ??$_Unchecked@PAV?$basic_string@DU?$char_traits@D@std@@V?$xalloc@D@@@std@@@std@@YAPAV?$basic_string@DU?$char_traits@D@std@@V?$xalloc@D@@@0@PAV10@@Z 0094b380 f i xr_trims.obj
 0001:0004a390       ??$_Uninit_move@PAV?$basic_string@DU?$char_traits@D@std@@V?$xalloc@D@@@std@@PAV12@U?$_Wrap_alloc@V?$xalloc@V?$basic_string@DU?$char_traits@D@std@@V?$xalloc@D@@@std@@@@@2@@std@@YAPAV?$basic_string@DU?$char_traits@D@std@@V?$xalloc@D@@@0@PAV10@00AAU?$_Wrap_alloc@V?$xalloc@V?$basic_string@DU?$char_traits@D@std@@V?$xalloc@D@@@std@@@@@0@@Z 0094b390 f i xr_trims.obj
 0001:0004a3b0       ??$_Rechecked@PAV?$basic_string@DU?$char_traits@D@std@@V?$xalloc@D@@@std@@PAV12@@std@@YAAAPAV?$basic_string@DU?$char_traits@D@std@@V?$xalloc@D@@@0@AAPAV10@PAV10@@Z 0094b3b0 f i xr_trims.obj
 0001:0004a3c0       ??$_Unchecked@PAVshared_str@@@std@@YAPAVshared_str@@PAV1@@Z 0094b3c0 f i xr_trims.obj
 0001:0004a3d0       ??$_Uninit_move@PAVshared_str@@PAV1@U?$_Wrap_alloc@V?$xalloc@Vshared_str@@@@@std@@@std@@YAPAVshared_str@@PAV1@00AAU?$_Wrap_alloc@V?$xalloc@Vshared_str@@@@@0@@Z 0094b3d0 f i xr_trims.obj
 0001:0004a3f0       ??$_Rechecked@PAVshared_str@@PAV1@@std@@YAAAPAVshared_str@@AAPAV1@PAV1@@Z 0094b3f0 f i xr_trims.obj
 0001:0004a400       ??$destroy@V?$basic_string@DU?$char_traits@D@std@@V?$xalloc@D@@@std@@@?$_Wrap_alloc@V?$xalloc@V?$basic_string@DU?$char_traits@D@std@@V?$xalloc@D@@@std@@@@@std@@QAEXPAV?$basic_string@DU?$char_traits@D@std@@V?$xalloc@D@@@1@@Z 0094b400 f i xr_trims.obj
 0001:0004a440       ??$destroy@Vshared_str@@@?$_Wrap_alloc@V?$xalloc@Vshared_str@@@@@std@@QAEXPAVshared_str@@@Z 0094b440 f i xr_trims.obj
 0001:0004a460       ?construct@?$xalloc@PAD@@QAEXPAPADABQAD@Z 0094b460 f i xr_trims.obj
 0001:0004a4b0       ?construct@?$xalloc@V?$basic_string@DU?$char_traits@D@std@@V?$xalloc@D@@@std@@@@QAEXPAV?$basic_string@DU?$char_traits@D@std@@V?$xalloc@D@@@std@@ABV23@@Z 0094b4b0 f i xr_trims.obj
 0001:0004a510       ?construct@?$xalloc@Vshared_str@@@@QAEXPAVshared_str@@ABV2@@Z 0094b510 f i xr_trims.obj
 0001:0004a580       ??$_Val_type@PAPAD@std@@YAPAPADPAPAD@Z 0094b580 f i xr_trims.obj
 0001:0004a590       ??$_Uninit_move@PAPADPAPADV?$xalloc@PAD@@PAD@std@@YAPAPADPAPAD00AAU?$_Wrap_alloc@V?$xalloc@PAD@@@0@0U_Scalar_ptr_iterator_tag@0@@Z 0094b590 f i xr_trims.obj
 0001:0004a5b0       ??$_Val_type@PAV?$basic_string@DU?$char_traits@D@std@@V?$xalloc@D@@@std@@@std@@YAPAV?$basic_string@DU?$char_traits@D@std@@V?$xalloc@D@@@0@PAV10@@Z 0094b5b0 f i xr_trims.obj
 0001:0004a5c0       ??$_Uninit_move@PAV?$basic_string@DU?$char_traits@D@std@@V?$xalloc@D@@@std@@PAV12@V?$xalloc@V?$basic_string@DU?$char_traits@D@std@@V?$xalloc@D@@@std@@@@V12@@std@@YAPAV?$basic_string@DU?$char_traits@D@std@@V?$xalloc@D@@@0@PAV10@00AAU?$_Wrap_alloc@V?$xalloc@V?$basic_string@DU?$char_traits@D@std@@V?$xalloc@D@@@std@@@@@0@0U_Nonscalar_ptr_iterator_tag@0@@Z 0094b5c0 f i xr_trims.obj
 0001:0004a650       ??$_Val_type@PAVshared_str@@@std@@YAPAVshared_str@@PAV1@@Z 0094b650 f i xr_trims.obj
 0001:0004a660       ??$_Uninit_move@PAVshared_str@@PAV1@V?$xalloc@Vshared_str@@@@V1@@std@@YAPAVshared_str@@PAV1@00AAU?$_Wrap_alloc@V?$xalloc@Vshared_str@@@@@0@0U_Nonscalar_ptr_iterator_tag@0@@Z 0094b660 f i xr_trims.obj
 0001:0004a6f0       ??$destroy@V?$basic_string@DU?$char_traits@D@std@@V?$xalloc@D@@@std@@@?$allocator_traits@V?$xalloc@V?$basic_string@DU?$char_traits@D@std@@V?$xalloc@D@@@std@@@@@std@@SAXAAV?$xalloc@V?$basic_string@DU?$char_traits@D@std@@V?$xalloc@D@@@std@@@@PAV?$basic_string@DU?$char_traits@D@std@@V?$xalloc@D@@@1@@Z 0094b6f0 f i xr_trims.obj
 0001:0004a720       ??$destroy@Vshared_str@@@?$allocator_traits@V?$xalloc@Vshared_str@@@@@std@@SAXAAV?$xalloc@Vshared_str@@@@PAVshared_str@@@Z 0094b720 f i xr_trims.obj
 0001:0004a740       ??$_Construct@PADABQAD@std@@YAXPAPADABQAD@Z 0094b740 f i xr_trims.obj
 0001:0004a780       ??$_Construct@V?$basic_string@DU?$char_traits@D@std@@V?$xalloc@D@@@std@@ABV12@@std@@YAXPAV?$basic_string@DU?$char_traits@D@std@@V?$xalloc@D@@@0@ABV10@@Z 0094b780 f i xr_trims.obj
 0001:0004a7e0       ??$_Construct@Vshared_str@@ABV1@@std@@YAXPAVshared_str@@ABV1@@Z 0094b7e0 f i xr_trims.obj
 0001:0004a840       ??$_Uninit_move@PAPADPAPADV?$xalloc@PAD@@PAD@std@@YAPAPADPAPAD00AAU?$_Wrap_alloc@V?$xalloc@PAD@@@0@0U_Nonscalar_ptr_iterator_tag@0@@Z 0094b840 f i xr_trims.obj
 0001:0004a8b0       ??$_Fn@V?$xalloc@V?$basic_string@DU?$char_traits@D@std@@V?$xalloc@D@@@std@@@@V?$basic_string@DU?$char_traits@D@std@@V?$xalloc@D@@@std@@@_Alloc_destroy@std@@SAXHAAV?$xalloc@V?$basic_string@DU?$char_traits@D@std@@V?$xalloc@D@@@std@@@@PAV?$basic_string@DU?$char_traits@D@std@@V?$xalloc@D@@@1@@Z 0094b8b0 f i xr_trims.obj
 0001:0004a8e0       ??$_Fn@V?$xalloc@Vshared_str@@@@Vshared_str@@@_Alloc_destroy@std@@SAXHAAV?$xalloc@Vshared_str@@@@PAVshared_str@@@Z 0094b8e0 f i xr_trims.obj
 0001:0004a900       ??$forward@ABQAD@std@@YAABQADABQAD@Z 0094b900 f i xr_trims.obj
 0001:0004a910       ??$forward@ABV?$basic_string@DU?$char_traits@D@std@@V?$xalloc@D@@@std@@@std@@YAABV?$basic_string@DU?$char_traits@D@std@@V?$xalloc@D@@@0@ABV10@@Z 0094b910 f i xr_trims.obj
 0001:0004a920       ??$forward@ABVshared_str@@@std@@YAABVshared_str@@ABV1@@Z 0094b920 f i xr_trims.obj
 0001:0004a930       ?destroy@?$xalloc@V?$basic_string@DU?$char_traits@D@std@@V?$xalloc@D@@@std@@@@QAEXPAV?$basic_string@DU?$char_traits@D@std@@V?$xalloc@D@@@std@@@Z 0094b930 f i xr_trims.obj
 0001:0004a970       ?destroy@?$xalloc@Vshared_str@@@@QAEXPAVshared_str@@@Z 0094b970 f i xr_trims.obj
 0001:0004a990       ??$destroy@PAD@?$_Wrap_alloc@V?$xalloc@PAD@@@std@@QAEXPAPAD@Z 0094b990 f i xr_trims.obj
 0001:0004a9a0       ??$_Destroy@V?$basic_string@DU?$char_traits@D@std@@V?$xalloc@D@@@std@@@std@@YAXPAV?$basic_string@DU?$char_traits@D@std@@V?$xalloc@D@@@0@@Z 0094b9a0 f i xr_trims.obj
 0001:0004a9d0       ??$_Destroy@Vshared_str@@@std@@YAXPAVshared_str@@@Z 0094b9d0 f i xr_trims.obj
 0001:0004a9f0       ??_G?$basic_string@DU?$char_traits@D@std@@V?$xalloc@D@@@std@@QAEPAXI@Z 0094b9f0 f i xr_trims.obj
 0001:0004aa30       ??_Gshared_str@@QAEPAXI@Z  0094ba30 f i xr_trims.obj
 0001:0004aa50       ??$destroy@PAD@?$allocator_traits@V?$xalloc@PAD@@@std@@SAXAAV?$xalloc@PAD@@PAPAD@Z 0094ba50 f i xr_trims.obj
 0001:0004aa60       ??$_Fn@V?$xalloc@PAD@@PAD@_Alloc_destroy@std@@SAXHAAV?$xalloc@PAD@@PAPAD@Z 0094ba60 f i xr_trims.obj
 0001:0004aa70       ?destroy@?$xalloc@PAD@@QAEXPAPAD@Z 0094ba70 f i xr_trims.obj
 0001:0004aa80       ??$_Destroy@PAD@std@@YAXPAPAD@Z 0094ba80 f i xr_trims.obj
 0001:0004aa90       ?compare@?$char_traits@D@std@@SAHPBD0I@Z 0094ba90 f i xr_trims.obj
 0001:0004aaf0       ??D?$_String_const_iterator@V?$_String_val@U?$_Simple_types@D@std@@@std@@@std@@QBEABDXZ 0094baf0 f i xr_trims.obj
 0001:0004ab00       ??D?$_String_iterator@V?$_String_val@U?$_Simple_types@D@std@@@std@@@std@@QBEAADXZ 0094bb00 f i xr_trims.obj
 0001:0004ab10       ?end@?$basic_string@DU?$char_traits@D@std@@V?$xalloc@D@@@std@@QAE?AV?$_String_iterator@V?$_String_val@U?$_Simple_types@D@std@@@std@@@2@XZ 0094bb10 f i xr_trims.obj
 0001:0004ab40       ?_Compat@?$_String_const_iterator@V?$_String_val@U?$_Simple_types@D@std@@@std@@@std@@QBEXABV12@@Z 0094bb40 f i xr_trims.obj
 0001:0004ab50       ??8?$_String_const_iterator@V?$_String_val@U?$_Simple_types@D@std@@@std@@@std@@QBE_NABV01@@Z 0094bb50 f i xr_trims.obj
 0001:0004ab60       ??9?$_String_const_iterator@V?$_String_val@U?$_Simple_types@D@std@@@std@@@std@@QBE_NABV01@@Z 0094bb60 f i xr_trims.obj
 0001:0004ab70       ??E?$_String_const_iterator@V?$_String_val@U?$_Simple_types@D@std@@@std@@@std@@QAEAAV01@XZ 0094bb70 f i xr_trims.obj
 0001:0004ab80       ??E?$_String_iterator@V?$_String_val@U?$_Simple_types@D@std@@@std@@@std@@QAEAAV01@XZ 0094bb80 f i xr_trims.obj
 0001:0004ab90       ??E?$_String_iterator@V?$_String_val@U?$_Simple_types@D@std@@@std@@@std@@QAE?AV01@H@Z 0094bb90 f i xr_trims.obj
 0001:0004aba0       ??0?$_String_const_iterator@V?$_String_val@U?$_Simple_types@D@std@@@std@@@std@@QAE@PBDPBU_Container_base0@1@@Z 0094bba0 f i xr_trims.obj
 0001:0004abb0       ??0?$_String_iterator@V?$_String_val@U?$_Simple_types@D@std@@@std@@@std@@QAE@PADPBU_Container_base0@1@@Z 0094bbb0 f i xr_trims.obj
 0001:0004abc0       ?begin@?$basic_string@DU?$char_traits@D@std@@V?$xalloc@D@@@std@@QAE?AV?$_String_iterator@V?$_String_val@U?$_Simple_types@D@std@@@std@@@2@XZ 0094bbc0 f i xr_trims.obj
 0001:0004abe0       ??0EFS_Utils@@QAE@XZ       0094bbe0 f   FileSystem.obj
 0001:0004ac40       ??0?$xr_map@V?$basic_string@DU?$char_traits@D@std@@V?$xalloc@D@@@std@@PAXU?$less@V?$basic_string@DU?$char_traits@D@std@@V?$xalloc@D@@@std@@@2@V?$xalloc@U?$pair@V?$basic_string@DU?$char_traits@D@std@@V?$xalloc@D@@@std@@PAX@std@@@@@@QAE@XZ 0094bc40 f i FileSystem.obj
 0001:0004ac90       ??1EFS_Utils@@UAE@XZ       0094bc90 f   FileSystem.obj
 0001:0004ad10       ?ExtractFileName@EFS_Utils@@QAE?AV?$basic_string@DU?$char_traits@D@std@@V?$xalloc@D@@@std@@PBD@Z 0094bd10 f   FileSystem.obj
 0001:0004add0       ?ExtractFileExt@EFS_Utils@@QAE?AV?$basic_string@DU?$char_traits@D@std@@V?$xalloc@D@@@std@@PBD@Z 0094bdd0 f   FileSystem.obj
 0001:0004ae90       ?ExtractFilePath@EFS_Utils@@QAE?AV?$basic_string@DU?$char_traits@D@std@@V?$xalloc@D@@@std@@PBD@Z 0094be90 f   FileSystem.obj
 0001:0004afb0       ?ExcludeBasePath@EFS_Utils@@QAE?AV?$basic_string@DU?$char_traits@D@std@@V?$xalloc@D@@@std@@PBD0@Z 0094bfb0 f   FileSystem.obj
 0001:0004b090       ?ChangeFileExt@EFS_Utils@@QAE?AV?$basic_string@DU?$char_traits@D@std@@V?$xalloc@D@@@std@@PBD0@Z 0094c090 f   FileSystem.obj
 0001:0004b1f0       ?ChangeFileExt@EFS_Utils@@QAE?AV?$basic_string@DU?$char_traits@D@std@@V?$xalloc@D@@@std@@ABV23@PBD@Z 0094c1f0 f   FileSystem.obj
 0001:0004b250       ?MakeFilter@@YAPBDAAY0EAA@DPBD1@Z 0094c250 f   FileSystem.obj
 0001:0004b390       ?GetOpenName@EFS_Utils@@QAE_NPBDAAY0CAI@DH_N0H@Z 0094c390 f   FileSystem.obj
 0001:0004b6d0       ?GetSaveName@EFS_Utils@@QAE_NPBDAAY0CAI@D0H@Z 0094c6d0 f   FileSystem.obj
 0001:0004b830       ?AppendFolderToName@EFS_Utils@@QAEPBDPADHH@Z 0094c830 f   FileSystem.obj
 0001:0004b880       ?AppendFolderToName@EFS_Utils@@QAEPBDPBDPADHH@Z 0094c880 f   FileSystem.obj
 0001:0004b980       ?GenerateName@EFS_Utils@@QAEPBDPBD00PAD@Z 0094c980 f   FileSystem.obj
 0001:0004ba70       ??0?$map@V?$basic_string@DU?$char_traits@D@std@@V?$xalloc@D@@@std@@PAXU?$less@V?$basic_string@DU?$char_traits@D@std@@V?$xalloc@D@@@std@@@2@V?$xalloc@U?$pair@V?$basic_string@DU?$char_traits@D@std@@V?$xalloc@D@@@std@@PAX@std@@@@@std@@QAE@XZ 0094ca70 f i FileSystem.obj
 0001:0004bac0       ??0?$_Tree@V?$_Tmap_traits@V?$basic_string@DU?$char_traits@D@std@@V?$xalloc@D@@@std@@PAXU?$less@V?$basic_string@DU?$char_traits@D@std@@V?$xalloc@D@@@std@@@2@V?$xalloc@U?$pair@V?$basic_string@DU?$char_traits@D@std@@V?$xalloc@D@@@std@@PAX@std@@@@$0A@@std@@@std@@QAE@ABU?$less@V?$basic_string@DU?$char_traits@D@std@@V?$xalloc@D@@@std@@@1@ABV?$xalloc@U?$pair@V?$basic_string@DU?$char_traits@D@std@@V?$xalloc@D@@@std@@PAX@std@@@@@Z 0094cac0 f i FileSystem.obj
 0001:0004bb10       ??0?$xalloc@U?$pair@V?$basic_string@DU?$char_traits@D@std@@V?$xalloc@D@@@std@@PAX@std@@@@QAE@XZ 0094cb10 f i FileSystem.obj
 0001:0004bb20       ??$?HDU?$char_traits@D@std@@V?$xalloc@D@@@std@@YA?AV?$basic_string@DU?$char_traits@D@std@@V?$xalloc@D@@@0@$$QAV10@PBD@Z 0094cb20 f i FileSystem.obj
 0001:0004bc00       ?strext@@YAPADPBD@Z        0094cc00 f i FileSystem.obj
 0001:0004bc10       ?GetOpenName@EFS_Utils@@QAE_NPBDAAV?$basic_string@DU?$char_traits@D@std@@V?$xalloc@D@@@std@@_N0H@Z 0094cc10 f   FileSystem_borland.obj
 0001:0004bcb0       ?GetSaveName@EFS_Utils@@QAE_NPBDAAV?$basic_string@DU?$char_traits@D@std@@V?$xalloc@D@@@std@@0H@Z 0094ccb0 f   FileSystem_borland.obj
 0001:0004bd50       ?MarkFile@EFS_Utils@@QAEXPBD_N@Z 0094cd50 f   FileSystem_borland.obj
 0001:0004be70       ?AppendFolderToName@EFS_Utils@@QAE?AV?$basic_string@DU?$char_traits@D@std@@V?$xalloc@D@@@std@@AAV23@HH@Z 0094ce70 f   FileSystem_borland.obj
 0001:0004bf70       ?CheckLocking@EFS_Utils@@QAEHPBD_N1@Z 0094cf70 f   FileSystem_borland.obj
 0001:0004c120       ?LockFile@EFS_Utils@@QAEHPBD_N@Z 0094d120 f   FileSystem_borland.obj
 0001:0004c2d0       ?UnlockFile@EFS_Utils@@QAEHPBD_N@Z 0094d2d0 f   FileSystem_borland.obj
 0001:0004c400       ?WriteAccessLog@EFS_Utils@@QAEXPBD0@Z 0094d400 f   FileSystem_borland.obj
 0001:0004c410       ?insert@?$basic_string@DU?$char_traits@D@std@@V?$xalloc@D@@@std@@QAEAAV12@IPBD@Z 0094d410 f i FileSystem_borland.obj
 0001:0004c420       ?find@?$_Tree@V?$_Tmap_traits@V?$basic_string@DU?$char_traits@D@std@@V?$xalloc@D@@@std@@PAXU?$less@V?$basic_string@DU?$char_traits@D@std@@V?$xalloc@D@@@std@@@2@V?$xalloc@U?$pair@V?$basic_string@DU?$char_traits@D@std@@V?$xalloc@D@@@std@@PAX@std@@@@$0A@@std@@@std@@QAE?AV?$_Tree_iterator@V?$_Tree_val@U?$_Tree_simple_types@U?$pair@$$CBV?$basic_string@DU?$char_traits@D@std@@V?$xalloc@D@@@std@@PAX@std@@@std@@@std@@@2@ABV?$basic_string@DU?$char_traits@D@std@@V?$xalloc@D@@@2@@Z 0094d420 f i FileSystem_borland.obj
 0001:0004c4b0       ??C?$_Tree_iterator@V?$_Tree_val@U?$_Tree_simple_types@U?$pair@$$CBV?$basic_string@DU?$char_traits@D@std@@V?$xalloc@D@@@std@@PAX@std@@@std@@@std@@@std@@QBEPAU?$pair@$$CBV?$basic_string@DU?$char_traits@D@std@@V?$xalloc@D@@@std@@PAX@1@XZ 0094d4b0 f i FileSystem_borland.obj
 0001:0004c4c0       ?insert@?$basic_string@DU?$char_traits@D@std@@V?$xalloc@D@@@std@@QAEAAV12@IPBDI@Z 0094d4c0 f i FileSystem_borland.obj
 0001:0004c5c0       ?lower_bound@?$_Tree@V?$_Tmap_traits@V?$basic_string@DU?$char_traits@D@std@@V?$xalloc@D@@@std@@PAXU?$less@V?$basic_string@DU?$char_traits@D@std@@V?$xalloc@D@@@std@@@2@V?$xalloc@U?$pair@V?$basic_string@DU?$char_traits@D@std@@V?$xalloc@D@@@std@@PAX@std@@@@$0A@@std@@@std@@QAE?AV?$_Tree_iterator@V?$_Tree_val@U?$_Tree_simple_types@U?$pair@$$CBV?$basic_string@DU?$char_traits@D@std@@V?$xalloc@D@@@std@@PAX@std@@@std@@@std@@@2@ABV?$basic_string@DU?$char_traits@D@std@@V?$xalloc@D@@@2@@Z 0094d5c0 f i FileSystem_borland.obj
 0001:0004c5e0       ?_Key@?$_Tree@V?$_Tmap_traits@V?$basic_string@DU?$char_traits@D@std@@V?$xalloc@D@@@std@@PAXU?$less@V?$basic_string@DU?$char_traits@D@std@@V?$xalloc@D@@@std@@@2@V?$xalloc@U?$pair@V?$basic_string@DU?$char_traits@D@std@@V?$xalloc@D@@@std@@PAX@std@@@@$0A@@std@@@std@@IBEABV?$basic_string@DU?$char_traits@D@std@@V?$xalloc@D@@@2@PAU?$_Tree_node@U?$pair@$$CBV?$basic_string@DU?$char_traits@D@std@@V?$xalloc@D@@@std@@PAX@std@@PAX@2@@Z 0094d5e0 f i FileSystem_borland.obj
 0001:0004c5f0       ??R?$less@V?$basic_string@DU?$char_traits@D@std@@V?$xalloc@D@@@std@@@std@@QBE_NABV?$basic_string@DU?$char_traits@D@std@@V?$xalloc@D@@@1@0@Z 0094d5f0 f i FileSystem_borland.obj
 0001:0004c650       ?pointer_to@?$pointer_traits@PAU?$pair@$$CBV?$basic_string@DU?$char_traits@D@std@@V?$xalloc@D@@@std@@PAX@std@@@std@@SAPAU?$pair@$$CBV?$basic_string@DU?$char_traits@D@std@@V?$xalloc@D@@@std@@PAX@2@AAU32@@Z 0094d650 f i FileSystem_borland.obj
 0001:0004c660       ??D?$_Tree_iterator@V?$_Tree_val@U?$_Tree_simple_types@U?$pair@$$CBV?$basic_string@DU?$char_traits@D@std@@V?$xalloc@D@@@std@@PAX@std@@@std@@@std@@@std@@QBEAAU?$pair@$$CBV?$basic_string@DU?$char_traits@D@std@@V?$xalloc@D@@@std@@PAX@1@XZ 0094d660 f i FileSystem_borland.obj
 0001:0004c670       ?insert@?$basic_string@DU?$char_traits@D@std@@V?$xalloc@D@@@std@@QAEAAV12@IABV12@II@Z 0094d670 f i FileSystem_borland.obj
 0001:0004c790       ?_Lbound@?$_Tree@V?$_Tmap_traits@V?$basic_string@DU?$char_traits@D@std@@V?$xalloc@D@@@std@@PAXU?$less@V?$basic_string@DU?$char_traits@D@std@@V?$xalloc@D@@@std@@@2@V?$xalloc@U?$pair@V?$basic_string@DU?$char_traits@D@std@@V?$xalloc@D@@@std@@PAX@std@@@@$0A@@std@@@std@@IAEPAU?$_Tree_node@U?$pair@$$CBV?$basic_string@DU?$char_traits@D@std@@V?$xalloc@D@@@std@@PAX@std@@PAX@2@ABV?$basic_string@DU?$char_traits@D@std@@V?$xalloc@D@@@2@@Z 0094d790 f i FileSystem_borland.obj
 0001:0004c870       ?_Kfn@?$_Tree@V?$_Tmap_traits@V?$basic_string@DU?$char_traits@D@std@@V?$xalloc@D@@@std@@PAXU?$less@V?$basic_string@DU?$char_traits@D@std@@V?$xalloc@D@@@std@@@2@V?$xalloc@U?$pair@V?$basic_string@DU?$char_traits@D@std@@V?$xalloc@D@@@std@@PAX@std@@@@$0A@@std@@@std@@IBEABV?$basic_string@DU?$char_traits@D@std@@V?$xalloc@D@@@2@ABU?$pair@$$CBV?$basic_string@DU?$char_traits@D@std@@V?$xalloc@D@@@std@@PAX@2@@Z 0094d870 f i FileSystem_borland.obj
 0001:0004c880       ??D?$_Tree_const_iterator@V?$_Tree_val@U?$_Tree_simple_types@U?$pair@$$CBV?$basic_string@DU?$char_traits@D@std@@V?$xalloc@D@@@std@@PAX@std@@@std@@@std@@@std@@QBEABU?$pair@$$CBV?$basic_string@DU?$char_traits@D@std@@V?$xalloc@D@@@std@@PAX@1@XZ 0094d880 f i FileSystem_borland.obj
 0001:0004c890       ??$mk_pair@PADPAX@@YA?AU?$pair@PADPAX@std@@PADPAX@Z 0094d890 f i FileSystem_borland.obj
 0001:0004c8a0       ??$insert@U?$pair@PADPAX@std@@@?$_Tree@V?$_Tmap_traits@V?$basic_string@DU?$char_traits@D@std@@V?$xalloc@D@@@std@@PAXU?$less@V?$basic_string@DU?$char_traits@D@std@@V?$xalloc@D@@@std@@@2@V?$xalloc@U?$pair@V?$basic_string@DU?$char_traits@D@std@@V?$xalloc@D@@@std@@PAX@std@@@@$0A@@std@@@std@@QAE?AU?$pair@V?$_Tree_iterator@V?$_Tree_val@U?$_Tree_simple_types@U?$pair@$$CBV?$basic_string@DU?$char_traits@D@std@@V?$xalloc@D@@@std@@PAX@std@@@std@@@std@@@std@@_N@1@$$QAU?$pair@PADPAX@1@@Z 0094d8a0 f i FileSystem_borland.obj
 0001:0004c8d0       ??$?MDU?$char_traits@D@std@@V?$xalloc@D@@@std@@YA_NABV?$basic_string@DU?$char_traits@D@std@@V?$xalloc@D@@@0@0@Z 0094d8d0 f i FileSystem_borland.obj
 0001:0004c920       ??$_Kfn@$$CBV?$basic_string@DU?$char_traits@D@std@@V?$xalloc@D@@@std@@PAX@?$_Tmap_traits@V?$basic_string@DU?$char_traits@D@std@@V?$xalloc@D@@@std@@PAXU?$less@V?$basic_string@DU?$char_traits@D@std@@V?$xalloc@D@@@std@@@2@V?$xalloc@U?$pair@V?$basic_string@DU?$char_traits@D@std@@V?$xalloc@D@@@std@@PAX@std@@@@$0A@@std@@SAABV?$basic_string@DU?$char_traits@D@std@@V?$xalloc@D@@@1@ABU?$pair@$$CBV?$basic_string@DU?$char_traits@D@std@@V?$xalloc@D@@@std@@PAX@1@@Z 0094d920 f i FileSystem_borland.obj
 0001:0004c930       ?compare@?$basic_string@DU?$char_traits@D@std@@V?$xalloc@D@@@std@@QBEHABV12@@Z 0094d930 f i FileSystem_borland.obj
 0001:0004c980       ??$?0AAPADAAPAXX@?$pair@PADPAX@std@@QAE@AAPADAAPAX@Z 0094d980 f i FileSystem_borland.obj
 0001:0004c9a0       ??$forward@U?$pair@PADPAX@std@@@std@@YA$$QAU?$pair@PADPAX@0@AAU10@@Z 0094d9a0 f i FileSystem_borland.obj
 0001:0004c9b0       ??$_Buynode@U?$pair@PADPAX@std@@@?$_Tree_buy@U?$pair@$$CBV?$basic_string@DU?$char_traits@D@std@@V?$xalloc@D@@@std@@PAX@std@@V?$xalloc@U?$pair@V?$basic_string@DU?$char_traits@D@std@@V?$xalloc@D@@@std@@PAX@std@@@@@std@@QAEPAU?$_Tree_node@U?$pair@$$CBV?$basic_string@DU?$char_traits@D@std@@V?$xalloc@D@@@std@@PAX@std@@PAX@1@$$QAU?$pair@PADPAX@1@@Z 0094d9b0 f i FileSystem_borland.obj
 0001:0004ca30       ??$_Insert_nohint@AAU?$pair@$$CBV?$basic_string@DU?$char_traits@D@std@@V?$xalloc@D@@@std@@PAX@std@@PAU?$_Tree_node@U?$pair@$$CBV?$basic_string@DU?$char_traits@D@std@@V?$xalloc@D@@@std@@PAX@std@@PAX@2@@?$_Tree@V?$_Tmap_traits@V?$basic_string@DU?$char_traits@D@std@@V?$xalloc@D@@@std@@PAXU?$less@V?$basic_string@DU?$char_traits@D@std@@V?$xalloc@D@@@std@@@2@V?$xalloc@U?$pair@V?$basic_string@DU?$char_traits@D@std@@V?$xalloc@D@@@std@@PAX@std@@@@$0A@@std@@@std@@IAE?AU?$pair@V?$_Tree_iterator@V?$_Tree_val@U?$_Tree_simple_types@U?$pair@$$CBV?$basic_string@DU?$char_traits@D@std@@V?$xalloc@D@@@std@@PAX@std@@@std@@@std@@@std@@_N@1@_NAAU?$pair@$$CBV?$basic_string@DU?$char_traits@D@std@@V?$xalloc@D@@@std@@PAX@1@PAU?$_Tree_node@U?$pair@$$CBV?$basic_string@DU?$char_traits@D@std@@V?$xalloc@D@@@std@@PAX@std@@PAX@1@@Z 0094da30 f i FileSystem_borland.obj
 0001:0004cb50       ?_Destroy_if_not_nil@?$_Tree@V?$_Tmap_traits@V?$basic_string@DU?$char_traits@D@std@@V?$xalloc@D@@@std@@PAXU?$less@V?$basic_string@DU?$char_traits@D@std@@V?$xalloc@D@@@std@@@2@V?$xalloc@U?$pair@V?$basic_string@DU?$char_traits@D@std@@V?$xalloc@D@@@std@@PAX@std@@@@$0A@@std@@@std@@IAEXPAU?$_Tree_node@U?$pair@$$CBV?$basic_string@DU?$char_traits@D@std@@V?$xalloc@D@@@std@@PAX@std@@PAX@2@@Z 0094db50 f i FileSystem_borland.obj
 0001:0004cbd0       ??F?$_Tree_iterator@V?$_Tree_val@U?$_Tree_simple_types@U?$pair@$$CBV?$basic_string@DU?$char_traits@D@std@@V?$xalloc@D@@@std@@PAX@std@@@std@@@std@@@std@@QAEAAV01@XZ 0094dbd0 f i FileSystem_borland.obj
 0001:0004cbe0       ??F?$_Tree_const_iterator@V?$_Tree_val@U?$_Tree_simple_types@U?$pair@$$CBV?$basic_string@DU?$char_traits@D@std@@V?$xalloc@D@@@std@@PAX@std@@@std@@@std@@@std@@QAEAAV01@XZ 0094dbe0 f i FileSystem_borland.obj
 0001:0004cbf0       ??F?$_Tree_unchecked_const_iterator@V?$_Tree_val@U?$_Tree_simple_types@U?$pair@$$CBV?$basic_string@DU?$char_traits@D@std@@V?$xalloc@D@@@std@@PAX@std@@@std@@@std@@U_Iterator_base0@2@@std@@QAEAAV01@XZ 0094dbf0 f i FileSystem_borland.obj
 0001:0004cc50       ??$forward@AAPAX@std@@YAAAPAXAAPAX@Z 0094dc50 f i FileSystem_borland.obj
 0001:0004cc60       ??$construct@U?$pair@$$CBV?$basic_string@DU?$char_traits@D@std@@V?$xalloc@D@@@std@@PAX@std@@U?$pair@PADPAX@2@@?$_Wrap_alloc@V?$xalloc@U?$_Tree_node@U?$pair@$$CBV?$basic_string@DU?$char_traits@D@std@@V?$xalloc@D@@@std@@PAX@std@@PAX@std@@@@@std@@QAEXPAU?$pair@$$CBV?$basic_string@DU?$char_traits@D@std@@V?$xalloc@D@@@std@@PAX@1@$$QAU?$pair@PADPAX@1@@Z 0094dc60 f i FileSystem_borland.obj
 0001:0004cc80       ??$_Insert_at@AAU?$pair@$$CBV?$basic_string@DU?$char_traits@D@std@@V?$xalloc@D@@@std@@PAX@std@@PAU?$_Tree_node@U?$pair@$$CBV?$basic_string@DU?$char_traits@D@std@@V?$xalloc@D@@@std@@PAX@std@@PAX@2@@?$_Tree@V?$_Tmap_traits@V?$basic_string@DU?$char_traits@D@std@@V?$xalloc@D@@@std@@PAXU?$less@V?$basic_string@DU?$char_traits@D@std@@V?$xalloc@D@@@std@@@2@V?$xalloc@U?$pair@V?$basic_string@DU?$char_traits@D@std@@V?$xalloc@D@@@std@@PAX@std@@@@$0A@@std@@@std@@IAE?AV?$_Tree_iterator@V?$_Tree_val@U?$_Tree_simple_types@U?$pair@$$CBV?$basic_string@DU?$char_traits@D@std@@V?$xalloc@D@@@std@@PAX@std@@@std@@@std@@@1@_NPAU?$_Tree_node@U?$pair@$$CBV?$basic_string@DU?$char_traits@D@std@@V?$xalloc@D@@@std@@PAX@std@@PAX@1@AAU?$pair@$$CBV?$basic_string@DU?$char_traits@D@std@@V?$xalloc@D@@@std@@PAX@1@1@Z 0094dc80 f i FileSystem_borland.obj
 0001:0004cef0       ??$?0V?$_Tree_iterator@V?$_Tree_val@U?$_Tree_simple_types@U?$pair@$$CBV?$basic_string@DU?$char_traits@D@std@@V?$xalloc@D@@@std@@PAX@std@@@std@@@std@@@std@@_NX@?$pair@V?$_Tree_iterator@V?$_Tree_val@U?$_Tree_simple_types@U?$pair@$$CBV?$basic_string@DU?$char_traits@D@std@@V?$xalloc@D@@@std@@PAX@std@@@std@@@std@@@std@@_N@std@@QAE@$$QAV?$_Tree_iterator@V?$_Tree_val@U?$_Tree_simple_types@U?$pair@$$CBV?$basic_string@DU?$char_traits@D@std@@V?$xalloc@D@@@std@@PAX@std@@@std@@@std@@@1@$$QA_N@Z 0094def0 f i FileSystem_borland.obj
 0001:0004cf10       ??$?0AAV?$_Tree_iterator@V?$_Tree_val@U?$_Tree_simple_types@U?$pair@$$CBV?$basic_string@DU?$char_traits@D@std@@V?$xalloc@D@@@std@@PAX@std@@@std@@@std@@@std@@_NX@?$pair@V?$_Tree_iterator@V?$_Tree_val@U?$_Tree_simple_types@U?$pair@$$CBV?$basic_string@DU?$char_traits@D@std@@V?$xalloc@D@@@std@@PAX@std@@@std@@@std@@@std@@_N@std@@QAE@AAV?$_Tree_iterator@V?$_Tree_val@U?$_Tree_simple_types@U?$pair@$$CBV?$basic_string@DU?$char_traits@D@std@@V?$xalloc@D@@@std@@PAX@std@@@std@@@std@@@1@$$QA_N@Z 0094df10 f i FileSystem_borland.obj
 0001:0004cf30       ?max_size@?$_Tree@V?$_Tmap_traits@V?$basic_string@DU?$char_traits@D@std@@V?$xalloc@D@@@std@@PAXU?$less@V?$basic_string@DU?$char_traits@D@std@@V?$xalloc@D@@@std@@@2@V?$xalloc@U?$pair@V?$basic_string@DU?$char_traits@D@std@@V?$xalloc@D@@@std@@PAX@std@@@@$0A@@std@@@std@@QBEIXZ 0094df30 f i FileSystem_borland.obj
 0001:0004cf40       ?max_size@?$_Wrap_alloc@V?$xalloc@U?$_Tree_node@U?$pair@$$CBV?$basic_string@DU?$char_traits@D@std@@V?$xalloc@D@@@std@@PAX@std@@PAX@std@@@@@std@@QBEIXZ 0094df40 f i FileSystem_borland.obj
 0001:0004cf50       ?max_size@?$allocator_traits@V?$xalloc@U?$_Tree_node@U?$pair@$$CBV?$basic_string@DU?$char_traits@D@std@@V?$xalloc@D@@@std@@PAX@std@@PAX@std@@@@@std@@SAIABV?$xalloc@U?$_Tree_node@U?$pair@$$CBV?$basic_string@DU?$char_traits@D@std@@V?$xalloc@D@@@std@@PAX@std@@PAX@std@@@@@Z 0094df50 f i FileSystem_borland.obj
 0001:0004cf60       ??$construct@U?$pair@$$CBV?$basic_string@DU?$char_traits@D@std@@V?$xalloc@D@@@std@@PAX@std@@U?$pair@PADPAX@2@@?$allocator_traits@V?$xalloc@U?$_Tree_node@U?$pair@$$CBV?$basic_string@DU?$char_traits@D@std@@V?$xalloc@D@@@std@@PAX@std@@PAX@std@@@@@std@@SAXAAV?$xalloc@U?$_Tree_node@U?$pair@$$CBV?$basic_string@DU?$char_traits@D@std@@V?$xalloc@D@@@std@@PAX@std@@PAX@std@@@@PAU?$pair@$$CBV?$basic_string@DU?$char_traits@D@std@@V?$xalloc@D@@@std@@PAX@1@$$QAU?$pair@PADPAX@1@@Z 0094df60 f i FileSystem_borland.obj
 0001:0004cf70       ??$_Buynode_if_nil@AAU?$pair@$$CBV?$basic_string@DU?$char_traits@D@std@@V?$xalloc@D@@@std@@PAX@std@@@?$_Tree@V?$_Tmap_traits@V?$basic_string@DU?$char_traits@D@std@@V?$xalloc@D@@@std@@PAXU?$less@V?$basic_string@DU?$char_traits@D@std@@V?$xalloc@D@@@std@@@2@V?$xalloc@U?$pair@V?$basic_string@DU?$char_traits@D@std@@V?$xalloc@D@@@std@@PAX@std@@@@$0A@@std@@@std@@IAEPAU?$_Tree_node@U?$pair@$$CBV?$basic_string@DU?$char_traits@D@std@@V?$xalloc@D@@@std@@PAX@std@@PAX@1@PAU21@AAU?$pair@$$CBV?$basic_string@DU?$char_traits@D@std@@V?$xalloc@D@@@std@@PAX@1@@Z 0094df70 f i FileSystem_borland.obj
 0001:0004cf80       ??$forward@V?$_Tree_iterator@V?$_Tree_val@U?$_Tree_simple_types@U?$pair@$$CBV?$basic_string@DU?$char_traits@D@std@@V?$xalloc@D@@@std@@PAX@std@@@std@@@std@@@std@@@std@@YA$$QAV?$_Tree_iterator@V?$_Tree_val@U?$_Tree_simple_types@U?$pair@$$CBV?$basic_string@DU?$char_traits@D@std@@V?$xalloc@D@@@std@@PAX@std@@@std@@@std@@@0@AAV10@@Z 0094df80 f i FileSystem_borland.obj
 0001:0004cf90       ??$forward@_N@std@@YA$$QA_NAA_N@Z 0094df90 f i FileSystem_borland.obj
 0001:0004cfa0       ??$forward@AAV?$_Tree_iterator@V?$_Tree_val@U?$_Tree_simple_types@U?$pair@$$CBV?$basic_string@DU?$char_traits@D@std@@V?$xalloc@D@@@std@@PAX@std@@@std@@@std@@@std@@@std@@YAAAV?$_Tree_iterator@V?$_Tree_val@U?$_Tree_simple_types@U?$pair@$$CBV?$basic_string@DU?$char_traits@D@std@@V?$xalloc@D@@@std@@PAX@std@@@std@@@std@@@0@AAV10@@Z 0094dfa0 f i FileSystem_borland.obj
 0001:0004cfb0       ??$_Fn@V?$xalloc@U?$_Tree_node@U?$pair@$$CBV?$basic_string@DU?$char_traits@D@std@@V?$xalloc@D@@@std@@PAX@std@@PAX@std@@@@@_Alloc_max_size@std@@SAIHABV?$xalloc@U?$_Tree_node@U?$pair@$$CBV?$basic_string@DU?$char_traits@D@std@@V?$xalloc@D@@@std@@PAX@std@@PAX@std@@@@@Z 0094dfb0 f i FileSystem_borland.obj
 0001:0004cfc0       ?max_size@?$xalloc@U?$_Tree_node@U?$pair@$$CBV?$basic_string@DU?$char_traits@D@std@@V?$xalloc@D@@@std@@PAX@std@@PAX@std@@@@QBEIXZ 0094dfc0 f i FileSystem_borland.obj
 0001:0004cfd0       ??$_Fn@V?$xalloc@U?$_Tree_node@U?$pair@$$CBV?$basic_string@DU?$char_traits@D@std@@V?$xalloc@D@@@std@@PAX@std@@PAX@std@@@@U?$pair@$$CBV?$basic_string@DU?$char_traits@D@std@@V?$xalloc@D@@@std@@PAX@std@@U?$pair@PADPAX@3@@_Alloc_construct@std@@SAXU_Wrap_int@1@AAV?$xalloc@U?$_Tree_node@U?$pair@$$CBV?$basic_string@DU?$char_traits@D@std@@V?$xalloc@D@@@std@@PAX@std@@PAX@std@@@@PAU?$pair@$$CBV?$basic_string@DU?$char_traits@D@std@@V?$xalloc@D@@@std@@PAX@1@$$QAU?$pair@PADPAX@1@@Z 0094dfd0 f i FileSystem_borland.obj
 0001:0004d080       ??$?0PADPAXX@?$pair@$$CBV?$basic_string@DU?$char_traits@D@std@@V?$xalloc@D@@@std@@PAX@std@@QAE@$$QAU?$pair@PADPAX@1@@Z 0094e080 f i FileSystem_borland.obj
 0001:0004d110       ??$forward@PAX@std@@YA$$QAPAXAAPAX@Z 0094e110 f i FileSystem_borland.obj
 0001:0004d120       ??0CTempReader@@QAE@PAXH_J@Z 0094e120 f i FS.obj
 0001:0004d180       ??_GCTempReader@@UAEPAXI@Z 0094e180 f i FS.obj
 0001:0004d180       ??_ECTempReader@@UAEPAXI@Z 0094e180 f i * CIL library *:* CIL module *
 0001:0004d1b0       ??_ECPackReader@@UAEPAXI@Z 0094e1b0 f i * CIL library *:* CIL module *
 0001:0004d1b0       ??_GCPackReader@@UAEPAXI@Z 0094e1b0 f i FS.obj
 0001:0004d1e0       ??0_FIND_PERF_BLOCK@@QAE@XZ 0094e1e0 f i FS.obj
 0001:0004d200       ??_H@YGXPAXIHP6EPAX0@Z@Z   0094e200 f i FS.obj
 0001:0004d230       ?auto_size@@YAPBD_K@Z      0094e230 f   FS.obj
 0001:0004d2a0       ?fs_alloc@@YAPAXI@Z        0094e2a0 f   FS.obj
 0001:0004d340       ?fs_realloc@@YAPAXPAXI@Z   0094e340 f   FS.obj
 0001:0004d3f0       ?fs_free@@YAXPAX@Z         0094e3f0 f   FS.obj
 0001:0004d480       ?do_before_find@@YAPAXPBVIFileSystemResource@@I@Z 0094e480 f   FS.obj
 0001:0004d490       ?do_after_find@@YAXPAX@Z   0094e490 f   FS.obj
 0001:0004d4a0       ?VerifyPath@@YAXPBD@Z      0094e4a0 f   FS.obj
 0001:0004d520       ?FileDownload@@YAPAXPBDPA_K@Z 0094e520 f   FS.obj
 0001:0004d680       ?mk_mark@@YAXAAY08DPBD@Z   0094e680 f i FS.obj
 0001:0004d6a0       ?FileCompress@@YAXPBD0PAXI@Z 0094e6a0 f   FS.obj
 0001:0004d750       ?FileDecompress@@YAPAXPBD0PAI@Z 0094e750 f   FS.obj
 0001:0004d8a0       ??1CMemoryWriter@@UAE@XZ   0094e8a0 f   FS.obj
 0001:0004d900       ?w@CMemoryWriter@@UAEXPBXI@Z 0094e900 f   FS.obj
 0001:0004d9e0       ?save_to@CMemoryWriter@@QAE_NPBD@Z 0094e9e0 f   FS.obj
 0001:0004da40       ?open_chunk@IWriter@@QAEXI@Z 0094ea40 f   FS.obj
 0001:0004da90       ?close_chunk@IWriter@@QAEXXZ 0094ea90 f   FS.obj
 0001:0004db10       ?chunk_size@IWriter@@QAEIXZ 0094eb10 f   FS.obj
 0001:0004db60       ?w_compressed@IWriter@@QAEXPAXI@Z 0094eb60 f   FS.obj
 0001:0004dbe0       ?w_chunk@IWriter@@QAEXIPAXI@Z 0094ebe0 f   FS.obj
 0001:0004dc40       ?w_sdir@IWriter@@QAEXABU?$_vector3@M@@@Z 0094ec40 f   FS.obj
 0001:0004dd00       ?w_printf@IWriter@@QAAXPBDZZ 0094ed00 f   FS.obj
 0001:0004dd50       ?chunk_at@IReader@@QAE_NI_JI@Z 0094ed50 f   FS.obj
 0001:0004de90       ?remember_chunk@IReader@@QAEX_J@Z 0094ee90 f   FS.obj
 0001:0004ded0       ?open_chunk@IReader@@QAEPAV1@I_J@Z 0094eed0 f   FS.obj
 0001:0004e130       ?close@IReader@@QAEXXZ     0094f130 f   FS.obj
 0001:0004e150       ?open_chunk_iterator@IReader@@QAEPAV1@AAIPAV1@@Z 0094f150 f   FS.obj
 0001:0004e290       ?r@IReader@@QAEXPAX_J@Z    0094f290 f   FS.obj
 0001:0004e420       ?is_term@@YAHD@Z           0094f420 f i FS.obj
 0001:0004e450       ?advance_term_string@IReader@@IAEHXZ 0094f450 f i FS.obj
 0001:0004e570       ?r_string@IReader@@QAEXPADI@Z 0094f570 f   FS.obj
 0001:0004e640       ?r_string@IReader@@QAEXAAV?$basic_string@DU?$char_traits@D@std@@V?$xalloc@D@@@std@@@Z 0094f640 f   FS.obj
 0001:0004e6a0       ?r_stringZ@IReader@@QAEXPADI@Z 0094f6a0 f   FS.obj
 0001:0004e790       ?r_stringZ@IReader@@QAEXAAVshared_str@@@Z 0094f790 f   FS.obj
 0001:0004e7e0       ?r_stringZ@IReader@@QAEXAAV?$basic_string@DU?$char_traits@D@std@@V?$xalloc@D@@@std@@@Z 0094f7e0 f   FS.obj
 0001:0004e820       ?skip_stringZ@IReader@@QAEXXZ 0094f820 f   FS.obj
 0001:0004e8a0       ??1CTempReader@@UAE@XZ     0094f8a0 f   FS.obj
 0001:0004e900       ??1CPackReader@@UAE@XZ     0094f900 f   FS.obj
 0001:0004e970       ??0CFileReader@@QAE@PBD@Z  0094f970 f   FS.obj
 0001:0004e9f0       ??_GCFileReader@@UAEPAXI@Z 0094f9f0 f i FS.obj
 0001:0004e9f0       ??_ECFileReader@@UAEPAXI@Z 0094f9f0 f i * CIL library *:* CIL module *
 0001:0004ea20       ??1CFileReader@@UAE@XZ     0094fa20 f   FS.obj
 0001:0004ea80       ??0CCompressedReader@@QAE@PBD0@Z 0094fa80 f   FS.obj
 0001:0004eb00       ??_GCCompressedReader@@UAEPAXI@Z 0094fb00 f i FS.obj
 0001:0004eb00       ??_ECCompressedReader@@UAEPAXI@Z 0094fb00 f i * CIL library *:* CIL module *
 0001:0004eb30       ??1CCompressedReader@@UAE@XZ 0094fb30 f   FS.obj
 0001:0004eb90       ??0CVirtualFileRW@@QAE@PBD@Z 0094fb90 f   FS.obj
 0001:0004edc0       ??1CVirtualFileRW@@UAE@XZ  0094fdc0 f   FS.obj
 0001:0004ee50       ??0CVirtualFileReader@@QAE@PBD@Z 0094fe50 f   FS.obj
 0001:0004f140       ??_ECVirtualFileReader@@UAEPAXI@Z 00950140 f i * CIL library *:* CIL module *
 0001:0004f140       ??_GCVirtualFileReader@@UAEPAXI@Z 00950140 f i FS.obj
 0001:0004f170       ??1CVirtualFileReader@@UAE@XZ 00950170 f   FS.obj
 0001:0004f200       ?div@?$_vector3@M@@QAEAAU1@ABU1@M@Z 00950200 f i FS.obj
 0001:0004f250       ?magnitude@?$_vector3@M@@QBEMXZ 00950250 f i FS.obj
 0001:0004f280       ?top@?$xr_stack@IV?$xr_vector@IV?$xalloc@I@@@@@@QAEAAIXZ 00950280 f i FS.obj
 0001:0004f2a0       ?push@?$xr_stack@IV?$xr_vector@IV?$xalloc@I@@@@@@QAEXABI@Z 009502a0 f i FS.obj
 0001:0004f2c0       ?pop@?$xr_stack@IV?$xr_vector@IV?$xalloc@I@@@@@@QAEXXZ 009502c0 f i FS.obj
 0001:0004f2e0       ?back@?$vector@IV?$xalloc@I@@@std@@QAEAAIXZ 009502e0 f i FS.obj
 0001:0004f330       ?push_back@?$vector@IV?$xalloc@I@@@std@@QAEXABI@Z 00950330 f i FS.obj
 0001:0004f410       ?pop_back@?$vector@IV?$xalloc@I@@@std@@QAEXXZ 00950410 f i FS.obj
 0001:0004f450       ?end@?$vector@IV?$xalloc@I@@@std@@QAE?AV?$_Vector_iterator@V?$_Vector_val@U?$_Simple_types@I@std@@@std@@@2@XZ 00950450 f i FS.obj
 0001:0004f480       ?_Inside@?$vector@IV?$xalloc@I@@@std@@IBE_NPBI@Z 00950480 f i FS.obj
 0001:0004f4c0       ?_Reserve@?$vector@IV?$xalloc@I@@@std@@IAEXI@Z 009504c0 f i FS.obj
 0001:0004f530       ?_Orphan_range@?$vector@IV?$xalloc@I@@@std@@IBEXPAI0@Z 00950530 f i FS.obj
 0001:0004f540       ??D?$_Vector_iterator@V?$_Vector_val@U?$_Simple_types@I@std@@@std@@@std@@QBEAAIXZ 00950540 f i FS.obj
 0001:0004f560       ??G?$_Vector_iterator@V?$_Vector_val@U?$_Simple_types@I@std@@@std@@@std@@QBE?AV01@H@Z 00950560 f i FS.obj
 0001:0004f5a0       ?_Unused_capacity@?$vector@IV?$xalloc@I@@@std@@QBEIXZ 009505a0 f i FS.obj
 0001:0004f5c0       ?_Grow_to@?$vector@IV?$xalloc@I@@@std@@IBEII@Z 009505c0 f i FS.obj
 0001:0004f620       ?_Reallocate@?$vector@IV?$xalloc@I@@@std@@IAEXI@Z 00950620 f i FS.obj
 0001:0004f770       ??D?$_Vector_const_iterator@V?$_Vector_val@U?$_Simple_types@I@std@@@std@@@std@@QBEABIXZ 00950770 f i FS.obj
 0001:0004f780       ??Z?$_Vector_iterator@V?$_Vector_val@U?$_Simple_types@I@std@@@std@@@std@@QAEAAV01@H@Z 00950780 f i FS.obj
 0001:0004f7a0       ??$xr_new@VCTempReader@@PAEI_J@@YAPAVCTempReader@@ABQAEABIAB_J@Z 009507a0 f i FS.obj
 0001:0004f830       ??$xr_new@VIReader@@PAXI_J@@YAPAVIReader@@ABQAXABIAB_J@Z 00950830 f i FS.obj
 0001:0004f8d0       ??$xr_delete@VIReader@@@@YAXAAPAVIReader@@@Z 009508d0 f i FS.obj
 0001:0004f930       ??$xr_new@VCTempReader@@PAEII@@YAPAVCTempReader@@ABQAEABI1@Z 00950930 f i FS.obj
 0001:0004f9c0       ??$xr_new@VIReader@@PAXII@@YAPAVIReader@@ABQAXABI1@Z 009509c0 f i FS.obj
 0001:0004fa60       ??$addressof@$$CBI@std@@YAPBIABI@Z 00950a60 f i FS.obj
 0001:0004fa70       ??$_Umove@PAI@?$vector@IV?$xalloc@I@@@std@@IAEPAIPAI00@Z 00950a70 f i FS.obj
 0001:0004fab0       ??R?$xr_special_free@$00VIReader@@@@QAEXAAPAVIReader@@@Z 00950ab0 f i FS.obj
 0001:0004faf0       ??$_Uninitialized_move@PAIPAIU?$_Wrap_alloc@V?$xalloc@I@@@std@@@std@@YAPAIPAI00AAU?$_Wrap_alloc@V?$xalloc@I@@@0@@Z 00950af0 f i FS.obj
 0001:0004fb60       ??$_Uninit_move@PAIPAIU?$_Wrap_alloc@V?$xalloc@I@@@std@@@std@@YAPAIPAI00AAU?$_Wrap_alloc@V?$xalloc@I@@@0@@Z 00950b60 f i FS.obj
 0001:0004fba0       ??$_Val_type@PAI@std@@YAPAIPAI@Z 00950ba0 f i FS.obj
 0001:0004fbb0       ??$_Uninit_move@PAIPAIV?$xalloc@I@@I@std@@YAPAIPAI00AAU?$_Wrap_alloc@V?$xalloc@I@@@0@0U_Scalar_ptr_iterator_tag@0@@Z 00950bb0 f i FS.obj
 0001:0004fbe0       ??$_Uninit_move@PAIPAIV?$xalloc@I@@I@std@@YAPAIPAI00AAU?$_Wrap_alloc@V?$xalloc@I@@@0@0U_Nonscalar_ptr_iterator_tag@0@@Z 00950be0 f i FS.obj
 0001:0004fca0       ??$construct@II@?$_Wrap_alloc@V?$xalloc@I@@@std@@QAEXPAI$$QAI@Z 00950ca0 f i FS.obj
 0001:0004fcc0       ??$forward@I@std@@YA$$QAIAAI@Z 00950cc0 f i FS.obj
 0001:0004fcd0       ??$construct@II@?$allocator_traits@V?$xalloc@I@@@std@@SAXAAV?$xalloc@I@@PAI$$QAI@Z 00950cd0 f i FS.obj
 0001:0004fcf0       ??$_Fn@V?$xalloc@I@@II@_Alloc_construct@std@@SAXHAAV?$xalloc@I@@PAI$$QAI@Z 00950cf0 f i FS.obj
 0001:0004fd10       ??Y?$_Vector_const_iterator@V?$_Vector_val@U?$_Simple_types@I@std@@@std@@@std@@QAEAAV01@H@Z 00950d10 f i FS.obj
 0001:0004fd20       ??Y?$_Vector_iterator@V?$_Vector_val@U?$_Simple_types@I@std@@@std@@@std@@QAEAAV01@H@Z 00950d20 f i FS.obj
 0001:0004fd30       ??0?$_Vector_iterator@V?$_Vector_val@U?$_Simple_types@I@std@@@std@@@std@@QAE@PAIPBU_Container_base0@1@@Z 00950d30 f i FS.obj
 0001:0004fd40       ?InterlockedIncrement@@YAKPCK@Z 00950d40 f i FS.obj
 0001:0004fd50       ?HIDWORD@@YAI_K@Z          00950d50 f i LocatorAPI.obj
 0001:0004fd60       ?LODWORD@@YAI_K@Z          00950d60 f i LocatorAPI.obj
 0001:0004fd70       ??0CFileWriter@@QAE@PBD_N@Z 00950d70 f i LocatorAPI.obj
 0001:0004ff30       ??1CFileWriter@@UAE@XZ     00950f30 f i LocatorAPI.obj
 0001:0004ffd0       ?w@CFileWriter@@UAEXPBXI@Z 00950fd0 f i LocatorAPI.obj
 0001:000500f0       ?seek@CFileWriter@@UAEXI@Z 009510f0 f i LocatorAPI.obj
 0001:00050110       ?tell@CFileWriter@@UAEIXZ  00951110 f i LocatorAPI.obj
 0001:00050130       ?valid@CFileWriter@@UAE_NXZ 00951130 f i LocatorAPI.obj
 0001:00050140       ?flush@CFileWriter@@UAEHXZ 00951140 f i LocatorAPI.obj
 0001:00050150       ??_ECFileWriter@@UAEPAXI@Z 00951150 f i * CIL library *:* CIL module *
 0001:00050150       ??_GCFileWriter@@UAEPAXI@Z 00951150 f i LocatorAPI.obj
 0001:00050180       ??0CPackReader@@QAE@PAX0H@Z 00951180 f i LocatorAPI.obj
 0001:000501f0       ?elapsed@CStreamReader@@QBEIXZ 009511f0 f i LocatorAPI.obj
 0001:00050230       ?length@CStreamReader@@QBE?BIXZ 00951230 f i LocatorAPI.obj
 0001:00050250       ?seek@CStreamReader@@QAEXABH@Z 00951250 f i LocatorAPI.obj
 0001:000502a0       ?tell@CStreamReader@@QBEIXZ 009512a0 f i LocatorAPI.obj
 0001:000502d0       ?next_chunk@CStreamReader@@QAE_JXZ 009512d0 f i LocatorAPI.obj
 0001:000502e0       ?set_next_chunk@CStreamReader@@QAEX_J@Z 009512e0 f i LocatorAPI.obj
 0001:00050320       ??0?$IReaderBase@VCStreamReader@@@@QAE@ABV0@@Z 00951320 f i LocatorAPI.obj
 0001:00050380       ??0?$IReaderBase@VCStreamReader@@@@QAE@XZ 00951380 f i LocatorAPI.obj
 0001:000503d0       ??1?$IReaderBase@VCStreamReader@@@@UAE@XZ 009513d0 f i LocatorAPI.obj
 0001:00050440       ??4?$IReaderBase@VCStreamReader@@@@QAEAAV0@ABV0@@Z 00951440 f i LocatorAPI.obj
 0001:00050450       ??1CStreamReader@@UAE@XZ   00951450 f i LocatorAPI.obj
 0001:000504c0       ??_GCStreamReader@@UAEPAXI@Z 009514c0 f i LocatorAPI.obj
 0001:00050550       ??_ECStreamReader@@UAEPAXI@Z 00951550 f i LocatorAPI.obj
 0001:00050620       ??_G?$IReaderBase@VCStreamReader@@@@UAEPAXI@Z 00951620 f i LocatorAPI.obj
 0001:000506b0       ??_E?$IReaderBase@VCStreamReader@@@@UAEPAXI@Z 009516b0 f i LocatorAPI.obj
 0001:00050780       ??0CStreamReader@@QAE@XZ   00951780 f i LocatorAPI.obj
 0001:000507e0       ??0CStreamReader@@AAE@ABV0@@Z 009517e0 f i LocatorAPI.obj
 0001:00050870       ??4CStreamReader@@AAEAAV0@ABV0@@Z 00951870 f i LocatorAPI.obj
 0001:00050880       ?file_mapping_handle@CStreamReader@@QBEABQAXXZ 00951880 f i LocatorAPI.obj
 0001:00050890       ?unmap@CStreamReader@@AAEXXZ 00951890 f i LocatorAPI.obj
 0001:000508b0       ?remap@CStreamReader@@AAEXAB_K@Z 009518b0 f i LocatorAPI.obj
 0001:000508e0       ?elapsed64@CStreamReader@@QBE_KXZ 009518e0 f i LocatorAPI.obj
 0001:00050900       ?length64@CStreamReader@@QBEAB_KXZ 00951900 f i LocatorAPI.obj
 0001:00050910       ?seek64@CStreamReader@@QAEXAB_J@Z 00951910 f i LocatorAPI.obj
 0001:00050970       ?tell64@CStreamReader@@QBE_KXZ 00951970 f i LocatorAPI.obj
 0001:00050980       ?close@CStreamReader@@QAEXXZ 00951980 f i LocatorAPI.obj
 0001:000509a0       ??0?$eq_pointer@VIReader@@@@QAE@PAVIReader@@@Z 009519a0 f i LocatorAPI.obj
 0001:000509c0       ??R?$eq_pointer@VIReader@@@@QAE_NAAU_open_file@@@Z 009519c0 f i LocatorAPI.obj
 0001:000509f0       ??0?$eq_pointer@VCStreamReader@@@@QAE@PAVCStreamReader@@@Z 009519f0 f i LocatorAPI.obj
 0001:00050a10       ??R?$eq_pointer@VCStreamReader@@@@QAE_NAAU_open_file@@@Z 00951a10 f i LocatorAPI.obj
 0001:00050a40       ??0eq_fname_free@@QAE@Vshared_str@@@Z 00951a40 f i LocatorAPI.obj
 0001:00050aa0       ??Req_fname_free@@QAE_NAAU_open_file@@@Z 00951aa0 f i LocatorAPI.obj
 0001:00050ae0       ??0eq_fname_check@@QAE@Vshared_str@@@Z 00951ae0 f i LocatorAPI.obj
 0001:00050b40       ??Req_fname_check@@QAE_NAAU_open_file@@@Z 00951b40 f i LocatorAPI.obj
 0001:00050b80       ??1?$xr_vector@U_open_file@@V?$xalloc@U_open_file@@@@@@QAE@XZ 00951b80 f i LocatorAPI.obj
 0001:00050bc0       ?_check_open_file@@YAXABVshared_str@@@Z 00951bc0 f   LocatorAPI.obj
 0001:00050d30       ??1eq_fname_check@@QAE@XZ  00951d30 f i LocatorAPI.obj
 0001:00050d70       ??0eq_fname_check@@QAE@ABU0@@Z 00951d70 f i LocatorAPI.obj
 0001:00050dc0       ?find_free_item@@YAAAU_open_file@@ABVshared_str@@@Z 00951dc0 f   LocatorAPI.obj
 0001:00050f60       ??1eq_fname_free@@QAE@XZ   00951f60 f i LocatorAPI.obj
 0001:00050fa0       ??0eq_fname_free@@QAE@ABU0@@Z 00951fa0 f i LocatorAPI.obj
 0001:00050ff0       ?setup_reader@@YAXPAVCStreamReader@@AAU_open_file@@@Z 00951ff0 f   LocatorAPI.obj
 0001:00051000       ?setup_reader@@YAXPAVIReader@@AAU_open_file@@@Z 00952000 f   LocatorAPI.obj
 0001:00051010       ?GetFileInfo@@YA_NPBDAAUfile@CLocatorAPI@@@Z 00952010 f   LocatorAPI.obj
 0001:000510d0       ?GetFilePointer@@YA_KPAX@Z 009520d0 f   LocatorAPI.obj
 0001:00051130       ?_dump_open_files@@YAXH@Z  00952130 f   LocatorAPI.obj
 0001:000512f0       ?check_position@@YA_NPBVIFileSystemResource@@_K1PBD@Z 009522f0 f   LocatorAPI.obj
 0001:000513e0       ??0CArchiveChunkDesc@@QAE@PBX@Z 009523e0 f   LocatorAPI.obj
 0001:00051450       ??_ECArchiveChunkDesc@@UAEPAXI@Z 00952450 f i * CIL library *:* CIL module *
 0001:00051450       ??_GCArchiveChunkDesc@@UAEPAXI@Z 00952450 f i LocatorAPI.obj
 0001:000514b0       ??1CArchiveChunkDesc@@UAE@XZ 009524b0 f i LocatorAPI.obj
 0001:000514f0       ??0CFileResourceDesc@@QAE@PBX@Z 009524f0 f   LocatorAPI.obj
 0001:00051560       ??_ECFileResourceDesc@@UAEPAXI@Z 00952560 f i * CIL library *:* CIL module *
 0001:00051560       ??_GCFileResourceDesc@@UAEPAXI@Z 00952560 f i LocatorAPI.obj
 0001:00051590       ??1CFileResourceDesc@@UAE@XZ 00952590 f   LocatorAPI.obj
 0001:000515f0       ??0CLocatorAPI@@QAE@XZ     009525f0 f   LocatorAPI.obj
 0001:00051780       ??0?$xr_map@PBDPAVFS_Path@@Upred_str@@V?$xalloc@U?$pair@PBDPAVFS_Path@@@std@@@@@@QAE@XZ 00952780 f i LocatorAPI.obj
 0001:000517e0       ??0?$xr_set@Ufile@CLocatorAPI@@Ufile_pred@2@V?$xalloc@Ufile@CLocatorAPI@@@@@@QAE@XZ 009527e0 f i LocatorAPI.obj
 0001:00051840       ??0?$xr_map@Vshared_str@@U_FILE_ACCESS_STAT@@U?$less@Vshared_str@@@std@@V?$xalloc@U?$pair@Vshared_str@@U_FILE_ACCESS_STAT@@@std@@@@@@QAE@XZ 00952840 f i LocatorAPI.obj
 0001:000518a0       ??0?$xr_map@Vshared_str@@V?$xr_vector@PAVIReader@@V?$xalloc@PAVIReader@@@@@@U?$less@Vshared_str@@@std@@V?$xalloc@U?$pair@Vshared_str@@V?$xr_vector@PAVIReader@@V?$xalloc@PAVIReader@@@@@@@std@@@@@@QAE@XZ 009528a0 f i LocatorAPI.obj
 0001:00051900       ??1CLocatorAPI@@QAE@XZ     00952900 f   LocatorAPI.obj
 0001:000519b0       ?gather_file_stat@CLocatorAPI@@QAEPAU_FILE_ACCESS_STAT@@PBDD_KI@Z 009529b0 f   LocatorAPI.obj
 0001:00051ac0       ?gather_file_stat@CLocatorAPI@@QAEXPAU_FILE_ACCESS_STAT@@PBUfile@1@D_KI@Z 00952ac0 f   LocatorAPI.obj
 0001:00051ad0       ?gather_file_stat@CLocatorAPI@@QAEXPAVCStreamReader@@D_KI@Z 00952ad0 f   LocatorAPI.obj
 0001:00051ae0       ?gather_file_stat@CLocatorAPI@@QAEXPAVIReader@@D_KI@Z 00952ae0 f   LocatorAPI.obj
 0001:00051af0       ?Register@CLocatorAPI@@AAEXPBDII_K1I_J@Z 00952af0 f   LocatorAPI.obj
 0001:00051b90       ?Register@CLocatorAPI@@AAEXAAUfile@1@@Z 00952b90 f   LocatorAPI.obj
 0001:00051e10       ?CheckRead@@YAXPBDPAXHKK@Z 00952e10 f   LocatorAPI.obj
 0001:00051e90       ?open_chunk@@YAPAVIReader@@Vshared_str@@PAXIPA_K@Z 00952e90 f   LocatorAPI.obj
 0001:00052230       ?ProcessArchive@CLocatorAPI@@AAEXPBD0@Z 00953230 f   LocatorAPI.obj
 0001:00052b70       ??0archive@CLocatorAPI@@QAE@XZ 00953b70 f i LocatorAPI.obj
 0001:00052bc0       ??1?$xr_vector@Vshared_str@@V?$xalloc@Vshared_str@@@@@@QAE@XZ 00953bc0 f i LocatorAPI.obj
 0001:00052c00       ?ProcessOne@CLocatorAPI@@AAEXPBDPAX@Z 00953c00 f   LocatorAPI.obj
 0001:00052da0       ?pred_str_ff@@YA_NABU_finddata64i32_t@@0@Z 00953da0 f i LocatorAPI.obj
 0001:00052dd0       ?ignore_name@@YA_NPBD@Z    00953dd0 f   LocatorAPI.obj
 0001:00052e50       ?ignore_path@@YA_NPBD@Z    00953e50 f   LocatorAPI.obj
 0001:00052e90       ?Recurse@CLocatorAPI@@AAE_NPBD@Z 00953e90 f   LocatorAPI.obj
 0001:00053330       ?_initialize@CLocatorAPI@@QAEXIPBD0@Z 00954330 f   LocatorAPI.obj
 0001:00053df0       ?_destroy@CLocatorAPI@@QAEXXZ 00954df0 f   LocatorAPI.obj
 0001:00054110       ?exist@CLocatorAPI@@QAEPBUfile@1@PBD@Z 00955110 f   LocatorAPI.obj
 0001:00054170       ?exist@CLocatorAPI@@QAEPBUfile@1@PBD0@Z 00955170 f   LocatorAPI.obj
 0001:000541b0       ?exist@CLocatorAPI@@QAEPBUfile@1@AAY0CAI@DPBD1@Z 009551b0 f   LocatorAPI.obj
 0001:000541e0       ?exist@CLocatorAPI@@QAEPBUfile@1@AAY0CAI@DPBD11@Z 009551e0 f   LocatorAPI.obj
 0001:00054240       ?file_list_open@CLocatorAPI@@QAEPAV?$xr_vector@PADV?$xalloc@PAD@@@@PBD0I@Z 00955240 f   LocatorAPI.obj
 0001:000542d0       ?file_list_open@CLocatorAPI@@QAEPAV?$xr_vector@PADV?$xalloc@PAD@@@@PBDI@Z 009552d0 f   LocatorAPI.obj
 0001:00054540       ?file_list_close@CLocatorAPI@@QAEXAAPAV?$xr_vector@PADV?$xalloc@PAD@@@@@Z 00955540 f   LocatorAPI.obj
 0001:00054670       ?file_list@CLocatorAPI@@QAEHAAV?$xr_set@UFS_File@@U?$less@UFS_File@@@std@@V?$xalloc@UFS_File@@@@@@PBDI1@Z 00955670 f   LocatorAPI.obj
 0001:00054bb0       ??1?$xr_vector@V?$basic_string@DU?$char_traits@D@std@@V?$xalloc@D@@@std@@V?$xalloc@V?$basic_string@DU?$char_traits@D@std@@V?$xalloc@D@@@std@@@@@@QAE@XZ 00955bb0 f i LocatorAPI.obj
 0001:00054bf0       ?check_cached_files@CLocatorAPI@@AAEXPADABUfile@1@AAPBD@Z 00955bf0 f   LocatorAPI.obj
 0001:00054ec0       ?file_from_cache_impl@CLocatorAPI@@AAEXAAPAVIReader@@PADABUfile@1@@Z 00955ec0 f   LocatorAPI.obj
 0001:00054f10       ?file_from_cache_impl@CLocatorAPI@@AAEXAAPAVCStreamReader@@PADABUfile@1@@Z 00955f10 f   LocatorAPI.obj
 0001:00054f50       ?file_from_archive@CLocatorAPI@@AAEXAAPAVIReader@@PBDABUfile@1@@Z 00955f50 f   LocatorAPI.obj
 0001:00055240       ?file_from_archive@CLocatorAPI@@AAEXAAPAVCStreamReader@@PBDABUfile@1@@Z 00956240 f   LocatorAPI.obj
 0001:00055440       ?get_file_chunk@CLocatorAPI@@AAEPAVIReader@@PBDABUfile@1@@Z 00956440 f   LocatorAPI.obj
 0001:000556f0       ??4?$xr_vector@PAVIReader@@V?$xalloc@PAVIReader@@@@@@QAEAAV0@ABV0@@Z 009566f0 f i LocatorAPI.obj
 0001:00055710       ?copy_file_to_build@CLocatorAPI@@AAEXPAVIWriter@@PAVIReader@@@Z 00956710 f   LocatorAPI.obj
 0001:00055740       ?copy_file_to_build@CLocatorAPI@@AAEXPAVIWriter@@PAVCStreamReader@@@Z 00956740 f   LocatorAPI.obj
 0001:000557c0       ?check_for_file@CLocatorAPI@@AAE_NPBD0AAY0CAI@DAAPBUfile@1@@Z 009567c0 f   LocatorAPI.obj
 0001:00055910       ?rs_open@CLocatorAPI@@QAEPAVCStreamReader@@PBD0@Z 00956910 f   LocatorAPI.obj
 0001:00055930       ?r_open@CLocatorAPI@@QAEPAVIReader@@PBD0@Z 00956930 f   LocatorAPI.obj
 0001:000559c0       ?r_close@CLocatorAPI@@QAEXAAPAVIReader@@@Z 009569c0 f   LocatorAPI.obj
 0001:00055a00       ?r_close@CLocatorAPI@@QAEXAAPAVCStreamReader@@@Z 00956a00 f   LocatorAPI.obj
 0001:00055a40       ?w_open@CLocatorAPI@@QAEPAVIWriter@@PBD0@Z 00956a40 f   LocatorAPI.obj
 0001:00055ad0       ?w_open_ex@CLocatorAPI@@QAEPAVIWriter@@PBD0@Z 00956ad0 f   LocatorAPI.obj
 0001:00055b60       ?w_close@CLocatorAPI@@QAEXAAPAVIWriter@@@Z 00956b60 f   LocatorAPI.obj
 0001:00055c50       ?file_find_it@CLocatorAPI@@AAE?AV?$_Tree_const_iterator@V?$_Tree_val@U?$_Tree_simple_types@Ufile@CLocatorAPI@@@std@@@std@@@std@@PBD@Z 00956c50 f   LocatorAPI.obj
 0001:00055cc0       ?dir_delete@CLocatorAPI@@QAEHPBD0H@Z 00956cc0 f   LocatorAPI.obj
 0001:00055ff0       ?file_delete@CLocatorAPI@@QAEXPBD0@Z 00956ff0 f   LocatorAPI.obj
 0001:000560d0       ?file_copy@CLocatorAPI@@QAEXPBD0@Z 009570d0 f   LocatorAPI.obj
 0001:00056150       ?file_rename@CLocatorAPI@@QAEXPBD0_N@Z 00957150 f   LocatorAPI.obj
 0001:000562b0       ?file_length@CLocatorAPI@@QAE_KPBD@Z 009572b0 f   LocatorAPI.obj
 0001:00056320       ?path_exist@CLocatorAPI@@QAE_NPBD@Z 00957320 f   LocatorAPI.obj
 0001:00056360       ?append_path@CLocatorAPI@@QAEPAVFS_Path@@PBD00H@Z 00957360 f   LocatorAPI.obj
 0001:000564a0       ?get_path@CLocatorAPI@@QAEPAVFS_Path@@PBD@Z 009574a0 f   LocatorAPI.obj
 0001:000565d0       ?update_path@CLocatorAPI@@QAEPBDAAY0CAI@DPBD1@Z 009575d0 f   LocatorAPI.obj
 0001:00056600       ?get_file_age@CLocatorAPI@@QAE_JPBD@Z 00957600 f   LocatorAPI.obj
 0001:00056680       ?set_file_age@CLocatorAPI@@QAEXPBD_J@Z 00957680 f   LocatorAPI.obj
 0001:00056740       ?rescan_path@CLocatorAPI@@AAEXPBDH@Z 00957740 f   LocatorAPI.obj
 0001:000568a0       ?rescan_pathes@CLocatorAPI@@QAEXXZ 009578a0 f   LocatorAPI.obj
 0001:000569c0       ?lock_rescan@CLocatorAPI@@QAEXXZ 009579c0 f   LocatorAPI.obj
 0001:000569e0       ?unlock_rescan@CLocatorAPI@@QAEXXZ 009579e0 f   LocatorAPI.obj
 0001:00056a40       ?check_pathes@CLocatorAPI@@AAEXXZ 00957a40 f   LocatorAPI.obj
 0001:00056a90       ?register_archieve@CLocatorAPI@@QAEXPBD@Z 00957a90 f   LocatorAPI.obj
 0001:00056ab0       ?can_write_to_folder@CLocatorAPI@@QAEHPBD@Z 00957ab0 f   LocatorAPI.obj
 0001:00056b80       ?can_write_to_alias@CLocatorAPI@@QAEHPBD@Z 00957b80 f   LocatorAPI.obj
 0001:00056bc0       ?can_modify_file@CLocatorAPI@@QAEHPBD@Z 00957bc0 f   LocatorAPI.obj
 0001:00056c10       ?can_modify_file@CLocatorAPI@@QAEHPBD0@Z 00957c10 f   LocatorAPI.obj
 0001:00056c50       ?ProcessExternalArch@CLocatorAPI@@AAEXXZ 00957c50 f   LocatorAPI.obj
 0001:00056e10       ??0?$xr_set@UFS_File@@U?$less@UFS_File@@@std@@V?$xalloc@UFS_File@@@@@@QAE@XZ 00957e10 f i LocatorAPI.obj
 0001:00056e90       ??1?$xr_set@UFS_File@@U?$less@UFS_File@@@std@@V?$xalloc@UFS_File@@@@@@QAE@XZ 00957e90 f i LocatorAPI.obj
 0001:00056f00       ??1?$set@UFS_File@@U?$less@UFS_File@@@std@@V?$xalloc@UFS_File@@@@@std@@QAE@XZ 00957f00 f i LocatorAPI.obj
 0001:00056f70       ?begin@?$vector@PADV?$xalloc@PAD@@@std@@QAE?AV?$_Vector_iterator@V?$_Vector_val@U?$_Simple_types@PAD@std@@@std@@@2@XZ 00957f70 f i LocatorAPI.obj
 0001:00056fa0       ?end@?$vector@PADV?$xalloc@PAD@@@std@@QAE?AV?$_Vector_iterator@V?$_Vector_val@U?$_Simple_types@PAD@std@@@std@@@2@XZ 00957fa0 f i LocatorAPI.obj
 0001:00056fd0       ?back@?$vector@PADV?$xalloc@PAD@@@std@@QAEAAPADXZ 00957fd0 f i LocatorAPI.obj
 0001:00057020       ??0?$xr_vector@V?$basic_string@DU?$char_traits@D@std@@V?$xalloc@D@@@std@@V?$xalloc@V?$basic_string@DU?$char_traits@D@std@@V?$xalloc@D@@@std@@@@@@QAE@XZ 00958020 f i LocatorAPI.obj
 0001:00057090       ??1?$vector@V?$basic_string@DU?$char_traits@D@std@@V?$xalloc@D@@@std@@V?$xalloc@V?$basic_string@DU?$char_traits@D@std@@V?$xalloc@D@@@std@@@@@std@@QAE@XZ 00958090 f i LocatorAPI.obj
 0001:000570b0       ?begin@?$vector@V?$basic_string@DU?$char_traits@D@std@@V?$xalloc@D@@@std@@V?$xalloc@V?$basic_string@DU?$char_traits@D@std@@V?$xalloc@D@@@std@@@@@std@@QAE?AV?$_Vector_iterator@V?$_Vector_val@U?$_Simple_types@V?$basic_string@DU?$char_traits@D@std@@V?$xalloc@D@@@std@@@std@@@std@@@2@XZ 009580b0 f i LocatorAPI.obj
 0001:000570e0       ?end@?$vector@V?$basic_string@DU?$char_traits@D@std@@V?$xalloc@D@@@std@@V?$xalloc@V?$basic_string@DU?$char_traits@D@std@@V?$xalloc@D@@@std@@@@@std@@QAE?AV?$_Vector_iterator@V?$_Vector_val@U?$_Simple_types@V?$basic_string@DU?$char_traits@D@std@@V?$xalloc@D@@@std@@@std@@@std@@@2@XZ 009580e0 f i LocatorAPI.obj
 0001:00057110       ?empty@?$vector@V?$basic_string@DU?$char_traits@D@std@@V?$xalloc@D@@@std@@V?$xalloc@V?$basic_string@DU?$char_traits@D@std@@V?$xalloc@D@@@std@@@@@std@@QBE_NXZ 00958110 f i LocatorAPI.obj
 0001:00057140       ??4?$basic_string@DU?$char_traits@D@std@@V?$xalloc@D@@@std@@QAEAAV01@$$QAV01@@Z 00958140 f i LocatorAPI.obj
 0001:00057220       ??0?$xr_vector@Vshared_str@@V?$xalloc@Vshared_str@@@@@@QAE@XZ 00958220 f i LocatorAPI.obj
 0001:00057290       ??1?$vector@Vshared_str@@V?$xalloc@Vshared_str@@@@@std@@QAE@XZ 00958290 f i LocatorAPI.obj
 0001:000572b0       ?zero@?$_flags@I@@QAEAAU1@XZ 009582b0 f i LocatorAPI.obj
 0001:000572d0       ?set@?$_flags@I@@QAEAAU1@IH@Z 009582d0 f i LocatorAPI.obj
 0001:00057310       ?is@?$_flags@I@@QBEHI@Z    00958310 f i LocatorAPI.obj
 0001:00057340       ?test@?$_flags@I@@QBEHI@Z  00958340 f i LocatorAPI.obj
 0001:00057360       ?size@?$xr_set@UFS_File@@U?$less@UFS_File@@@std@@V?$xalloc@UFS_File@@@@@@QBEIXZ 00958360 f i LocatorAPI.obj
 0001:00057380       ??0?$set@UFS_File@@U?$less@UFS_File@@@std@@V?$xalloc@UFS_File@@@@@std@@QAE@XZ 00958380 f i LocatorAPI.obj
 0001:000573f0       ?insert@?$set@UFS_File@@U?$less@UFS_File@@@std@@V?$xalloc@UFS_File@@@@@std@@QAE?AU?$pair@V?$_Tree_const_iterator@V?$_Tree_val@U?$_Tree_simple_types@UFS_File@@@std@@@std@@@std@@_N@2@$$QAUFS_File@@@Z 009583f0 f i LocatorAPI.obj
 0001:00057420       ??1?$_Tree@V?$_Tset_traits@UFS_File@@U?$less@UFS_File@@@std@@V?$xalloc@UFS_File@@@@$0A@@std@@@std@@QAE@XZ 00958420 f i LocatorAPI.obj
 0001:00057480       ?begin@?$_Tree@V?$_Tset_traits@UFS_File@@U?$less@UFS_File@@@std@@V?$xalloc@UFS_File@@@@$0A@@std@@@std@@QAE?AV?$_Tree_const_iterator@V?$_Tree_val@U?$_Tree_simple_types@UFS_File@@@std@@@std@@@2@XZ 00958480 f i LocatorAPI.obj
 0001:000574b0       ?end@?$_Tree@V?$_Tset_traits@UFS_File@@U?$less@UFS_File@@@std@@V?$xalloc@UFS_File@@@@$0A@@std@@@std@@QAE?AV?$_Tree_const_iterator@V?$_Tree_val@U?$_Tree_simple_types@UFS_File@@@std@@@std@@@2@XZ 009584b0 f i LocatorAPI.obj
 0001:000574e0       ?size@?$xr_map@PBDPAVFS_Path@@Upred_str@@V?$xalloc@U?$pair@PBDPAVFS_Path@@@std@@@@@@QBEIXZ 009584e0 f i LocatorAPI.obj
 0001:00057500       ??0?$map@PBDPAVFS_Path@@Upred_str@@V?$xalloc@U?$pair@PBDPAVFS_Path@@@std@@@@@std@@QAE@XZ 00958500 f i LocatorAPI.obj
 0001:00057560       ?find@?$_Tree@V?$_Tmap_traits@PBDPAVFS_Path@@Upred_str@@V?$xalloc@U?$pair@PBDPAVFS_Path@@@std@@@@$0A@@std@@@std@@QAE?AV?$_Tree_iterator@V?$_Tree_val@U?$_Tree_simple_types@U?$pair@QBDPAVFS_Path@@@std@@@std@@@std@@@2@ABQBD@Z 00958560 f i LocatorAPI.obj
 0001:00057610       ?size@?$xr_set@Ufile@CLocatorAPI@@Ufile_pred@2@V?$xalloc@Ufile@CLocatorAPI@@@@@@QBEIXZ 00958610 f i LocatorAPI.obj
 0001:00057630       ??0?$set@Ufile@CLocatorAPI@@Ufile_pred@2@V?$xalloc@Ufile@CLocatorAPI@@@@@std@@QAE@XZ 00958630 f i LocatorAPI.obj
 0001:00057690       ?insert@?$set@Ufile@CLocatorAPI@@Ufile_pred@2@V?$xalloc@Ufile@CLocatorAPI@@@@@std@@QAE?AU?$pair@V?$_Tree_const_iterator@V?$_Tree_val@U?$_Tree_simple_types@Ufile@CLocatorAPI@@@std@@@std@@@std@@_N@2@ABUfile@CLocatorAPI@@@Z 00958690 f i LocatorAPI.obj
 0001:000576c0       ?rbegin@?$_Tree@V?$_Tset_traits@Ufile@CLocatorAPI@@Ufile_pred@2@V?$xalloc@Ufile@CLocatorAPI@@@@$0A@@std@@@std@@QAE?AV?$reverse_iterator@V?$_Tree_const_iterator@V?$_Tree_val@U?$_Tree_simple_types@Ufile@CLocatorAPI@@@std@@@std@@@std@@@2@XZ 009586c0 f i LocatorAPI.obj
 0001:000576f0       ?rend@?$_Tree@V?$_Tset_traits@Ufile@CLocatorAPI@@Ufile_pred@2@V?$xalloc@Ufile@CLocatorAPI@@@@$0A@@std@@@std@@QAE?AV?$reverse_iterator@V?$_Tree_const_iterator@V?$_Tree_val@U?$_Tree_simple_types@Ufile@CLocatorAPI@@@std@@@std@@@std@@@2@XZ 009586f0 f i LocatorAPI.obj
 0001:00057720       ?erase@?$_Tree@V?$_Tset_traits@Ufile@CLocatorAPI@@Ufile_pred@2@V?$xalloc@Ufile@CLocatorAPI@@@@$0A@@std@@@std@@QAEIABUfile@CLocatorAPI@@@Z 00958720 f i LocatorAPI.obj
 0001:000577b0       ?find@?$_Tree@V?$_Tset_traits@Ufile@CLocatorAPI@@Ufile_pred@2@V?$xalloc@Ufile@CLocatorAPI@@@@$0A@@std@@@std@@QAE?AV?$_Tree_const_iterator@V?$_Tree_val@U?$_Tree_simple_types@Ufile@CLocatorAPI@@@std@@@std@@@2@ABUfile@CLocatorAPI@@@Z 009587b0 f i LocatorAPI.obj
 0001:00057860       ?lower_bound@?$_Tree@V?$_Tset_traits@Ufile@CLocatorAPI@@Ufile_pred@2@V?$xalloc@Ufile@CLocatorAPI@@@@$0A@@std@@@std@@QAE?AV?$_Tree_const_iterator@V?$_Tree_val@U?$_Tree_simple_types@Ufile@CLocatorAPI@@@std@@@std@@@2@ABUfile@CLocatorAPI@@@Z 00958860 f i LocatorAPI.obj
 0001:00057890       ??0?$xr_vector@Uarchive@CLocatorAPI@@V?$xalloc@Uarchive@CLocatorAPI@@@@@@QAE@XZ 00958890 f i LocatorAPI.obj
 0001:000578e0       ?size@?$xr_vector@Uarchive@CLocatorAPI@@V?$xalloc@Uarchive@CLocatorAPI@@@@@@QBEIXZ 009588e0 f i LocatorAPI.obj
 0001:00057900       ?clear@?$xr_vector@Uarchive@CLocatorAPI@@V?$xalloc@Uarchive@CLocatorAPI@@@@@@QAEXXZ 00958900 f i LocatorAPI.obj
 0001:00057920       ??A?$xr_vector@Uarchive@CLocatorAPI@@V?$xalloc@Uarchive@CLocatorAPI@@@@@@QAEAAUarchive@CLocatorAPI@@I@Z 00958920 f i LocatorAPI.obj
 0001:00057970       ?push_back@?$vector@Uarchive@CLocatorAPI@@V?$xalloc@Uarchive@CLocatorAPI@@@@@std@@QAEX$$QAUarchive@CLocatorAPI@@@Z 00958970 f i LocatorAPI.obj
 0001:00057a70       ?begin@?$vector@Uarchive@CLocatorAPI@@V?$xalloc@Uarchive@CLocatorAPI@@@@@std@@QAE?AV?$_Vector_iterator@V?$_Vector_val@U?$_Simple_types@Uarchive@CLocatorAPI@@@std@@@std@@@2@XZ 00958a70 f i LocatorAPI.obj
 0001:00057aa0       ?end@?$vector@Uarchive@CLocatorAPI@@V?$xalloc@Uarchive@CLocatorAPI@@@@@std@@QAE?AV?$_Vector_iterator@V?$_Vector_val@U?$_Simple_types@Uarchive@CLocatorAPI@@@std@@@std@@@2@XZ 00958aa0 f i LocatorAPI.obj
 0001:00057ad0       ?back@?$vector@Uarchive@CLocatorAPI@@V?$xalloc@Uarchive@CLocatorAPI@@@@@std@@QAEAAUarchive@CLocatorAPI@@XZ 00958ad0 f i LocatorAPI.obj
 0001:00057b20       ??0?$xr_vector@U_finddata64i32_t@@V?$xalloc@U_finddata64i32_t@@@@@@QAE@XZ 00958b20 f i LocatorAPI.obj
 0001:00057b70       ?size@?$xr_vector@U_finddata64i32_t@@V?$xalloc@U_finddata64i32_t@@@@@@QBEIXZ 00958b70 f i LocatorAPI.obj
 0001:00057b90       ?clear_not_free@?$xr_vector@U_finddata64i32_t@@V?$xalloc@U_finddata64i32_t@@@@@@QAEXXZ 00958b90 f i LocatorAPI.obj
 0001:00057bf0       ?clear@?$xr_vector@U_finddata64i32_t@@V?$xalloc@U_finddata64i32_t@@@@@@QAEXXZ 00958bf0 f i LocatorAPI.obj
 0001:00057c10       ?reserve@?$vector@U_finddata64i32_t@@V?$xalloc@U_finddata64i32_t@@@@@std@@QAEXI@Z 00958c10 f i LocatorAPI.obj
 0001:00057c50       ?begin@?$vector@U_finddata64i32_t@@V?$xalloc@U_finddata64i32_t@@@@@std@@QAE?AV?$_Vector_iterator@V?$_Vector_val@U?$_Simple_types@U_finddata64i32_t@@@std@@@std@@@2@XZ 00958c50 f i LocatorAPI.obj
 0001:00057c80       ?push_back@?$vector@U_finddata64i32_t@@V?$xalloc@U_finddata64i32_t@@@@@std@@QAEXABU_finddata64i32_t@@@Z 00958c80 f i LocatorAPI.obj
 0001:00057d70       ??0?$map@Vshared_str@@U_FILE_ACCESS_STAT@@U?$less@Vshared_str@@@std@@V?$xalloc@U?$pair@Vshared_str@@U_FILE_ACCESS_STAT@@@std@@@@@std@@QAE@XZ 00958d70 f i LocatorAPI.obj
 0001:00057dd0       ??A?$map@Vshared_str@@U_FILE_ACCESS_STAT@@U?$less@Vshared_str@@@std@@V?$xalloc@U?$pair@Vshared_str@@U_FILE_ACCESS_STAT@@@std@@@@@std@@QAEAAU_FILE_ACCESS_STAT@@ABVshared_str@@@Z 00958dd0 f i LocatorAPI.obj
 0001:00057ee0       ?find@?$_Tree@V?$_Tmap_traits@Vshared_str@@U_FILE_ACCESS_STAT@@U?$less@Vshared_str@@@std@@V?$xalloc@U?$pair@Vshared_str@@U_FILE_ACCESS_STAT@@@std@@@@$0A@@std@@@std@@QAE?AV?$_Tree_iterator@V?$_Tree_val@U?$_Tree_simple_types@U?$pair@$$CBVshared_str@@U_FILE_ACCESS_STAT@@@std@@@std@@@std@@@2@ABVshared_str@@@Z 00958ee0 f i LocatorAPI.obj
 0001:00057f90       ??0?$map@Vshared_str@@V?$xr_vector@PAVIReader@@V?$xalloc@PAVIReader@@@@@@U?$less@Vshared_str@@@std@@V?$xalloc@U?$pair@Vshared_str@@V?$xr_vector@PAVIReader@@V?$xalloc@PAVIReader@@@@@@@std@@@@@std@@QAE@XZ 00958f90 f i LocatorAPI.obj
 0001:00057ff0       ??A?$map@Vshared_str@@V?$xr_vector@PAVIReader@@V?$xalloc@PAVIReader@@@@@@U?$less@Vshared_str@@@std@@V?$xalloc@U?$pair@Vshared_str@@V?$xr_vector@PAVIReader@@V?$xalloc@PAVIReader@@@@@@@std@@@@@std@@QAEAAV?$xr_vector@PAVIReader@@V?$xalloc@PAVIReader@@@@@@ABVshared_str@@@Z 00958ff0 f i LocatorAPI.obj
 0001:00058100       ?find@?$_Tree@V?$_Tmap_traits@Vshared_str@@V?$xr_vector@PAVIReader@@V?$xalloc@PAVIReader@@@@@@U?$less@Vshared_str@@@std@@V?$xalloc@U?$pair@Vshared_str@@V?$xr_vector@PAVIReader@@V?$xalloc@PAVIReader@@@@@@@std@@@@$0A@@std@@@std@@QAE?AV?$_Tree_iterator@V?$_Tree_val@U?$_Tree_simple_types@U?$pair@$$CBVshared_str@@V?$xr_vector@PAVIReader@@V?$xalloc@PAVIReader@@@@@@@std@@@std@@@std@@@2@ABVshared_str@@@Z 00959100 f i LocatorAPI.obj
 0001:000581b0       ??9?$_Vector_const_iterator@V?$_Vector_val@U?$_Simple_types@Uarchive@CLocatorAPI@@@std@@@std@@@std@@QBE_NABV01@@Z 009591b0 f i LocatorAPI.obj
 0001:00058200       ??C?$_Tree_iterator@V?$_Tree_val@U?$_Tree_simple_types@U?$pair@QBDPAVFS_Path@@@std@@@std@@@std@@@std@@QBEPAU?$pair@QBDPAVFS_Path@@@1@XZ 00959200 f i LocatorAPI.obj
 0001:00058230       ??E?$_Tree_iterator@V?$_Tree_val@U?$_Tree_simple_types@U?$pair@QBDPAVFS_Path@@@std@@@std@@@std@@@std@@QAE?AV01@H@Z 00959230 f i LocatorAPI.obj
 0001:00058260       ??0?$_Tree_const_iterator@V?$_Tree_val@U?$_Tree_simple_types@Ufile@CLocatorAPI@@@std@@@std@@@std@@QAE@XZ 00959260 f i LocatorAPI.obj
 0001:00058280       ??D?$_Tree_const_iterator@V?$_Tree_val@U?$_Tree_simple_types@Ufile@CLocatorAPI@@@std@@@std@@@std@@QBEABUfile@CLocatorAPI@@XZ 00959280 f i LocatorAPI.obj
 0001:000582a0       ??C?$_Tree_const_iterator@V?$_Tree_val@U?$_Tree_simple_types@Ufile@CLocatorAPI@@@std@@@std@@@std@@QBEPBUfile@CLocatorAPI@@XZ 009592a0 f i LocatorAPI.obj
 0001:000582c0       ??C?$_Tree_iterator@V?$_Tree_val@U?$_Tree_simple_types@U?$pair@$$CBVshared_str@@U_FILE_ACCESS_STAT@@@std@@@std@@@std@@@std@@QBEPAU?$pair@$$CBVshared_str@@U_FILE_ACCESS_STAT@@@1@XZ 009592c0 f i LocatorAPI.obj
 0001:000582f0       ??C?$_Tree_iterator@V?$_Tree_val@U?$_Tree_simple_types@U?$pair@$$CBVshared_str@@V?$xr_vector@PAVIReader@@V?$xalloc@PAVIReader@@@@@@@std@@@std@@@std@@@std@@QBEPAU?$pair@$$CBVshared_str@@V?$xr_vector@PAVIReader@@V?$xalloc@PAVIReader@@@@@@@1@XZ 009592f0 f i LocatorAPI.obj
 0001:00058320       ??E?$_Tree_iterator@V?$_Tree_val@U?$_Tree_simple_types@U?$pair@$$CBVshared_str@@V?$xr_vector@PAVIReader@@V?$xalloc@PAVIReader@@@@@@@std@@@std@@@std@@@std@@QAE?AV01@H@Z 00959320 f i LocatorAPI.obj
 0001:00058350       ?size@?$xr_vector@PAVIReader@@V?$xalloc@PAVIReader@@@@@@QBEIXZ 00959350 f i LocatorAPI.obj
 0001:00058370       ?clear@?$xr_vector@PAVIReader@@V?$xalloc@PAVIReader@@@@@@QAEXXZ 00959370 f i LocatorAPI.obj
 0001:000583b0       ??A?$xr_vector@PAVIReader@@V?$xalloc@PAVIReader@@@@@@QAEAAPAVIReader@@I@Z 009593b0 f i LocatorAPI.obj
 0001:00058400       ??4?$vector@PAVIReader@@V?$xalloc@PAVIReader@@@@@std@@QAEAAV01@ABV01@@Z 00959400 f i LocatorAPI.obj
 0001:000586f0       ?begin@?$vector@PAVIReader@@V?$xalloc@PAVIReader@@@@@std@@QAE?AV?$_Vector_iterator@V?$_Vector_val@U?$_Simple_types@PAVIReader@@@std@@@std@@@2@XZ 009596f0 f i LocatorAPI.obj
 0001:00058720       ?end@?$vector@PAVIReader@@V?$xalloc@PAVIReader@@@@@std@@QAE?AV?$_Vector_iterator@V?$_Vector_val@U?$_Simple_types@PAVIReader@@@std@@@std@@@2@XZ 00959720 f i LocatorAPI.obj
 0001:00058750       ?resize@?$vector@PAVIReader@@V?$xalloc@PAVIReader@@@@@std@@QAEXI@Z 00959750 f i LocatorAPI.obj
 0001:000588a0       ??9?$_Vector_const_iterator@V?$_Vector_val@U?$_Simple_types@PAVIReader@@@std@@@std@@@std@@QBE_NABV01@@Z 009598a0 f i LocatorAPI.obj
 0001:000588f0       ?impl@?$IReaderBase@VCStreamReader@@@@QAEAAVCStreamReader@@XZ 009598f0 f i LocatorAPI.obj
 0001:00058900       ?impl@?$IReaderBase@VCStreamReader@@@@QBEABVCStreamReader@@XZ 00959900 f i LocatorAPI.obj
 0001:00058910       ?eof@?$IReaderBase@VCStreamReader@@@@QBEHXZ 00959910 f i LocatorAPI.obj
 0001:00058950       ?r@?$IReaderBase@VCStreamReader@@@@QAEXPAXH@Z 00959950 f i LocatorAPI.obj
 0001:00058970       ?r_vec3@?$IReaderBase@VCStreamReader@@@@QAE?AU?$_vector3@M@@XZ 00959970 f i LocatorAPI.obj
 0001:000589b0       ?r_vec4@?$IReaderBase@VCStreamReader@@@@QAE?AU?$_vector4@M@@XZ 009599b0 f i LocatorAPI.obj
 0001:000589f0       ?r_u64@?$IReaderBase@VCStreamReader@@@@QAE_KXZ 009599f0 f i LocatorAPI.obj
 0001:00058a20       ?r_u32@?$IReaderBase@VCStreamReader@@@@QAEIXZ 00959a20 f i LocatorAPI.obj
 0001:00058a40       ?r_u16@?$IReaderBase@VCStreamReader@@@@QAEGXZ 00959a40 f i LocatorAPI.obj
 0001:00058a60       ?r_u8@?$IReaderBase@VCStreamReader@@@@QAEEXZ 00959a60 f i LocatorAPI.obj
 0001:00058a80       ?r_s64@?$IReaderBase@VCStreamReader@@@@QAE_JXZ 00959a80 f i LocatorAPI.obj
 0001:00058ab0       ?r_s32@?$IReaderBase@VCStreamReader@@@@QAEHXZ 00959ab0 f i LocatorAPI.obj
 0001:00058ad0       ?r_s16@?$IReaderBase@VCStreamReader@@@@QAEFXZ 00959ad0 f i LocatorAPI.obj
 0001:00058af0       ?r_s8@?$IReaderBase@VCStreamReader@@@@QAECXZ 00959af0 f i LocatorAPI.obj
 0001:00058b10       ?r_float@?$IReaderBase@VCStreamReader@@@@QAEMXZ 00959b10 f i LocatorAPI.obj
 0001:00058b30       ?r_fvector4@?$IReaderBase@VCStreamReader@@@@QAEXAAU?$_vector4@M@@@Z 00959b30 f i LocatorAPI.obj
 0001:00058b50       ?r_fvector3@?$IReaderBase@VCStreamReader@@@@QAEXAAU?$_vector3@M@@@Z 00959b50 f i LocatorAPI.obj
 0001:00058b70       ?r_fvector2@?$IReaderBase@VCStreamReader@@@@QAEXAAU?$_vector2@M@@@Z 00959b70 f i LocatorAPI.obj
 0001:00058b90       ?r_ivector4@?$IReaderBase@VCStreamReader@@@@QAEXAAU?$_vector4@H@@@Z 00959b90 f i LocatorAPI.obj
 0001:00058bb0       ?r_ivector4@?$IReaderBase@VCStreamReader@@@@QAEXAAU?$_vector3@H@@@Z 00959bb0 f i LocatorAPI.obj
 0001:00058bd0       ?r_ivector4@?$IReaderBase@VCStreamReader@@@@QAEXAAU?$_vector2@H@@@Z 00959bd0 f i LocatorAPI.obj
 0001:00058bf0       ?r_fcolor@?$IReaderBase@VCStreamReader@@@@QAEXAAU?$_color@M@@@Z 00959bf0 f i LocatorAPI.obj
 0001:00058c10       ?r_float_q16@?$IReaderBase@VCStreamReader@@@@QAEMMM@Z 00959c10 f i LocatorAPI.obj
 0001:00058c70       ?r_float_q8@?$IReaderBase@VCStreamReader@@@@QAEMMM@Z 00959c70 f i LocatorAPI.obj
 0001:00058cd0       ?r_angle16@?$IReaderBase@VCStreamReader@@@@QAEMXZ 00959cd0 f i LocatorAPI.obj
 0001:00058d40       ?r_angle8@?$IReaderBase@VCStreamReader@@@@QAEMXZ 00959d40 f i LocatorAPI.obj
 0001:00058db0       ?r_dir@?$IReaderBase@VCStreamReader@@@@QAEXAAU?$_vector3@M@@@Z 00959db0 f i LocatorAPI.obj
 0001:00058df0       ?r_sdir@?$IReaderBase@VCStreamReader@@@@QAEXAAU?$_vector3@M@@@Z 00959df0 f i LocatorAPI.obj
 0001:00058e80       ?rewind@?$IReaderBase@VCStreamReader@@@@QAEXXZ 00959e80 f i LocatorAPI.obj
 0001:00058ea0       ?find_chunk@?$IReaderBase@VCStreamReader@@@@QAEIIPAH@Z 00959ea0 f i LocatorAPI.obj
 0001:00059170       ?r_chunk@?$IReaderBase@VCStreamReader@@@@QAEHIPAX@Z 0095a170 f i LocatorAPI.obj
 0001:000591c0       ?r_chunk_safe@?$IReaderBase@VCStreamReader@@@@QAEHIPAXI@Z 0095a1c0 f i LocatorAPI.obj
 0001:00059240       ??0?$xr_vector@U_open_file@@V?$xalloc@U_open_file@@@@@@QAE@XZ 0095a240 f i LocatorAPI.obj
 0001:000592a0       ?size@?$xr_vector@U_open_file@@V?$xalloc@U_open_file@@@@@@QBEIXZ 0095a2a0 f i LocatorAPI.obj
 0001:000592c0       ??1?$vector@U_open_file@@V?$xalloc@U_open_file@@@@@std@@QAE@XZ 0095a2c0 f i LocatorAPI.obj
 0001:000592e0       ?begin@?$vector@U_open_file@@V?$xalloc@U_open_file@@@@@std@@QAE?AV?$_Vector_iterator@V?$_Vector_val@U?$_Simple_types@U_open_file@@@std@@@std@@@2@XZ 0095a2e0 f i LocatorAPI.obj
 0001:00059310       ?end@?$vector@U_open_file@@V?$xalloc@U_open_file@@@@@std@@QAE?AV?$_Vector_iterator@V?$_Vector_val@U?$_Simple_types@U_open_file@@@std@@@std@@@2@XZ 0095a310 f i LocatorAPI.obj
 0001:00059340       ?resize@?$vector@U_open_file@@V?$xalloc@U_open_file@@@@@std@@QAEXI@Z 0095a340 f i LocatorAPI.obj
 0001:000594c0       ?back@?$vector@U_open_file@@V?$xalloc@U_open_file@@@@@std@@QAEAAU_open_file@@XZ 0095a4c0 f i LocatorAPI.obj
 0001:00059510       ??D?$_Vector_iterator@V?$_Vector_val@U?$_Simple_types@U_open_file@@@std@@@std@@@std@@QBEAAU_open_file@@XZ 0095a510 f i LocatorAPI.obj
 0001:00059530       ??E?$_Vector_iterator@V?$_Vector_val@U?$_Simple_types@U_open_file@@@std@@@std@@@std@@QAEAAV01@XZ 0095a530 f i LocatorAPI.obj
 0001:00059550       ??8?$_Vector_const_iterator@V?$_Vector_val@U?$_Simple_types@U_open_file@@@std@@@std@@@std@@QBE_NABV01@@Z 0095a550 f i LocatorAPI.obj
 0001:00059580       ??9?$_Vector_const_iterator@V?$_Vector_val@U?$_Simple_types@U_open_file@@@std@@@std@@@std@@QBE_NABV01@@Z 0095a580 f i LocatorAPI.obj
 0001:000595d0       ??C?$_Vector_iterator@V?$_Vector_val@U?$_Simple_types@Uarchive@CLocatorAPI@@@std@@@std@@@std@@QBEPAUarchive@CLocatorAPI@@XZ 0095a5d0 f i LocatorAPI.obj
 0001:000595f0       ??E?$_Vector_iterator@V?$_Vector_val@U?$_Simple_types@Uarchive@CLocatorAPI@@@std@@@std@@@std@@QAEAAV01@XZ 0095a5f0 f i LocatorAPI.obj
 0001:00059610       ??E?$_Vector_iterator@V?$_Vector_val@U?$_Simple_types@Uarchive@CLocatorAPI@@@std@@@std@@@std@@QAE?AV01@H@Z 0095a610 f i LocatorAPI.obj
 0001:00059640       ??D?$_Vector_iterator@V?$_Vector_val@U?$_Simple_types@U_finddata64i32_t@@@std@@@std@@@std@@QBEAAU_finddata64i32_t@@XZ 0095a640 f i LocatorAPI.obj
 0001:00059660       ??0?$pair@V?$_Tree_iterator@V?$_Tree_val@U?$_Tree_simple_types@U?$pair@QBDPAVFS_Path@@@std@@@std@@@std@@@std@@_N@std@@QAE@XZ 0095a660 f i LocatorAPI.obj
 0001:00059690       ??4?$pair@V?$_Tree_iterator@V?$_Tree_val@U?$_Tree_simple_types@U?$pair@QBDPAVFS_Path@@@std@@@std@@@std@@@std@@_N@std@@QAEAAU01@$$QAU01@@Z 0095a690 f i LocatorAPI.obj
 0001:000596c0       ??D?$_Vector_iterator@V?$_Vector_val@U?$_Simple_types@PAVIReader@@@std@@@std@@@std@@QBEAAPAVIReader@@XZ 0095a6c0 f i LocatorAPI.obj
 0001:000596e0       ??E?$_Vector_iterator@V?$_Vector_val@U?$_Simple_types@PAVIReader@@@std@@@std@@@std@@QAE?AV01@H@Z 0095a6e0 f i LocatorAPI.obj
 0001:00059710       ??D?$_Vector_iterator@V?$_Vector_val@U?$_Simple_types@PAD@std@@@std@@@std@@QBEAAPADXZ 0095a710 f i LocatorAPI.obj
 0001:00059730       ??E?$_Vector_iterator@V?$_Vector_val@U?$_Simple_types@PAD@std@@@std@@@std@@QAE?AV01@H@Z 0095a730 f i LocatorAPI.obj
 0001:00059760       ??9?$_Vector_const_iterator@V?$_Vector_val@U?$_Simple_types@PAD@std@@@std@@@std@@QBE_NABV01@@Z 0095a760 f i LocatorAPI.obj
 0001:000597b0       ??C?$_Vector_iterator@V?$_Vector_val@U?$_Simple_types@V?$basic_string@DU?$char_traits@D@std@@V?$xalloc@D@@@std@@@std@@@std@@@std@@QBEPAV?$basic_string@DU?$char_traits@D@std@@V?$xalloc@D@@@1@XZ 0095a7b0 f i LocatorAPI.obj
 0001:000597d0       ??E?$_Vector_iterator@V?$_Vector_val@U?$_Simple_types@V?$basic_string@DU?$char_traits@D@std@@V?$xalloc@D@@@std@@@std@@@std@@@std@@QAE?AV01@H@Z 0095a7d0 f i LocatorAPI.obj
 0001:00059800       ??D?$_Tree_const_iterator@V?$_Tree_val@U?$_Tree_simple_types@UFS_File@@@std@@@std@@@std@@QBEABUFS_File@@XZ 0095a800 f i LocatorAPI.obj
 0001:00059820       ??E?$_Tree_const_iterator@V?$_Tree_val@U?$_Tree_simple_types@UFS_File@@@std@@@std@@@std@@QAEAAV01@XZ 0095a820 f i LocatorAPI.obj
 0001:00059840       ??9?$_Tree_const_iterator@V?$_Tree_val@U?$_Tree_simple_types@UFS_File@@@std@@@std@@@std@@QBE_NABV01@@Z 0095a840 f i LocatorAPI.obj
 0001:00059890       ??E?$reverse_iterator@V?$_Tree_const_iterator@V?$_Tree_val@U?$_Tree_simple_types@Ufile@CLocatorAPI@@@std@@@std@@@std@@@std@@QAE?AV01@H@Z 0095a890 f i LocatorAPI.obj
 0001:000598c0       ??D?$_Revranit@V?$_Tree_const_iterator@V?$_Tree_val@U?$_Tree_simple_types@Ufile@CLocatorAPI@@@std@@@std@@@std@@U?$iterator@Ubidirectional_iterator_tag@std@@Ufile@CLocatorAPI@@HPBU34@ABU34@@2@@std@@QBEABUfile@CLocatorAPI@@XZ 0095a8c0 f i LocatorAPI.obj
 0001:000598f0       ??C?$_Revranit@V?$_Tree_const_iterator@V?$_Tree_val@U?$_Tree_simple_types@Ufile@CLocatorAPI@@@std@@@std@@@std@@U?$iterator@Ubidirectional_iterator_tag@std@@Ufile@CLocatorAPI@@HPBU34@ABU34@@2@@std@@QBEPBUfile@CLocatorAPI@@XZ 0095a8f0 f i LocatorAPI.obj
 0001:00059920       ??1?$_Tree_comp@$0A@V?$_Tset_traits@UFS_File@@U?$less@UFS_File@@@std@@V?$xalloc@UFS_File@@@@$0A@@std@@@std@@QAE@XZ 0095a920 f i LocatorAPI.obj
 0001:00059970       ??1?$_Tree_buy@UFS_File@@V?$xalloc@UFS_File@@@@@std@@QAE@XZ 0095a970 f i LocatorAPI.obj
 0001:000599c0       ??0?$vector@V?$basic_string@DU?$char_traits@D@std@@V?$xalloc@D@@@std@@V?$xalloc@V?$basic_string@DU?$char_traits@D@std@@V?$xalloc@D@@@std@@@@@std@@QAE@XZ 0095a9c0 f i LocatorAPI.obj
 0001:00059a00       ?_Tidy@?$vector@V?$basic_string@DU?$char_traits@D@std@@V?$xalloc@D@@@std@@V?$xalloc@V?$basic_string@DU?$char_traits@D@std@@V?$xalloc@D@@@std@@@@@std@@IAEXXZ 0095aa00 f i LocatorAPI.obj
 0001:00059a80       ?pointer_to@?$pointer_traits@PAV?$basic_string@DU?$char_traits@D@std@@V?$xalloc@D@@@std@@@std@@SAPAV?$basic_string@DU?$char_traits@D@std@@V?$xalloc@D@@@2@AAV32@@Z 0095aa80 f i LocatorAPI.obj
 0001:00059a90       ??0?$vector@Vshared_str@@V?$xalloc@Vshared_str@@@@@std@@QAE@XZ 0095aa90 f i LocatorAPI.obj
 0001:00059ad0       ?_Tidy@?$vector@Vshared_str@@V?$xalloc@Vshared_str@@@@@std@@IAEXXZ 0095aad0 f i LocatorAPI.obj
 0001:00059b50       ??R?$less@Vshared_str@@@std@@QBE_NABVshared_str@@0@Z 0095ab50 f i LocatorAPI.obj
 0001:00059b70       ??0?$_Tree@V?$_Tset_traits@UFS_File@@U?$less@UFS_File@@@std@@V?$xalloc@UFS_File@@@@$0A@@std@@@std@@QAE@ABU?$less@UFS_File@@@1@ABV?$xalloc@UFS_File@@@@@Z 0095ab70 f i LocatorAPI.obj
 0001:00059be0       ?insert@?$_Tree@V?$_Tset_traits@UFS_File@@U?$less@UFS_File@@@std@@V?$xalloc@UFS_File@@@@$0A@@std@@@std@@QAE?AU?$pair@V?$_Tree_const_iterator@V?$_Tree_val@U?$_Tree_simple_types@UFS_File@@@std@@@std@@@std@@_N@2@$$QAUFS_File@@@Z 0095abe0 f i LocatorAPI.obj
 0001:00059c10       ?size@?$_Tree@V?$_Tset_traits@UFS_File@@U?$less@UFS_File@@@std@@V?$xalloc@UFS_File@@@@$0A@@std@@@std@@QBEIXZ 0095ac10 f i LocatorAPI.obj
 0001:00059c30       ?_Lmost@?$_Tree@V?$_Tset_traits@UFS_File@@U?$less@UFS_File@@@std@@V?$xalloc@UFS_File@@@@$0A@@std@@@std@@IBEAAPAU?$_Tree_node@UFS_File@@PAX@2@XZ 0095ac30 f i LocatorAPI.obj
 0001:00059c40       ?_Tidy@?$_Tree@V?$_Tset_traits@UFS_File@@U?$less@UFS_File@@@std@@V?$xalloc@UFS_File@@@@$0A@@std@@@std@@IAEXXZ 0095ac40 f i LocatorAPI.obj
 0001:00059ca0       ??0?$xalloc@UFS_File@@@@QAE@XZ 0095aca0 f i LocatorAPI.obj
 0001:00059cb0       ??1?$_Tree_alloc@$0A@U?$_Tree_base_types@UFS_File@@V?$xalloc@UFS_File@@@@@std@@@std@@QAE@XZ 0095acb0 f i LocatorAPI.obj
 0001:00059cd0       ?_Myval@?$_Tree_val@U?$_Tree_simple_types@UFS_File@@@std@@@std@@SAAAUFS_File@@PAU?$_Tree_node@UFS_File@@PAX@2@@Z 0095acd0 f i LocatorAPI.obj
 0001:00059ce0       ??0?$_Tree@V?$_Tmap_traits@PBDPAVFS_Path@@Upred_str@@V?$xalloc@U?$pair@PBDPAVFS_Path@@@std@@@@$0A@@std@@@std@@QAE@ABUpred_str@@ABV?$xalloc@U?$pair@PBDPAVFS_Path@@@std@@@@@Z 0095ace0 f i LocatorAPI.obj
 0001:00059d30       ?lower_bound@?$_Tree@V?$_Tmap_traits@PBDPAVFS_Path@@Upred_str@@V?$xalloc@U?$pair@PBDPAVFS_Path@@@std@@@@$0A@@std@@@std@@QAE?AV?$_Tree_iterator@V?$_Tree_val@U?$_Tree_simple_types@U?$pair@QBDPAVFS_Path@@@std@@@std@@@std@@@2@ABQBD@Z 0095ad30 f i LocatorAPI.obj
 0001:00059d60       ?_Key@?$_Tree@V?$_Tmap_traits@PBDPAVFS_Path@@Upred_str@@V?$xalloc@U?$pair@PBDPAVFS_Path@@@std@@@@$0A@@std@@@std@@IBEABQBDPAU?$_Tree_node@U?$pair@QBDPAVFS_Path@@@std@@PAX@2@@Z 0095ad60 f i LocatorAPI.obj
 0001:00059d80       ??0?$xalloc@U?$pair@PBDPAVFS_Path@@@std@@@@QAE@XZ 0095ad80 f i LocatorAPI.obj
 0001:00059d90       ?pointer_to@?$pointer_traits@PAU?$pair@QBDPAVFS_Path@@@std@@@std@@SAPAU?$pair@QBDPAVFS_Path@@@2@AAU32@@Z 0095ad90 f i LocatorAPI.obj
 0001:00059da0       ??0?$_Tree@V?$_Tset_traits@Ufile@CLocatorAPI@@Ufile_pred@2@V?$xalloc@Ufile@CLocatorAPI@@@@$0A@@std@@@std@@QAE@ABUfile_pred@CLocatorAPI@@ABV?$xalloc@Ufile@CLocatorAPI@@@@@Z 0095ada0 f i LocatorAPI.obj
 0001:00059df0       ?insert@?$_Tree@V?$_Tset_traits@Ufile@CLocatorAPI@@Ufile_pred@2@V?$xalloc@Ufile@CLocatorAPI@@@@$0A@@std@@@std@@QAE?AU?$pair@V?$_Tree_const_iterator@V?$_Tree_val@U?$_Tree_simple_types@Ufile@CLocatorAPI@@@std@@@std@@@std@@_N@2@ABUfile@CLocatorAPI@@@Z 0095adf0 f i LocatorAPI.obj
 0001:00059e20       ?equal_range@?$_Tree@V?$_Tset_traits@Ufile@CLocatorAPI@@Ufile_pred@2@V?$xalloc@Ufile@CLocatorAPI@@@@$0A@@std@@@std@@QAE?AU?$pair@V?$_Tree_const_iterator@V?$_Tree_val@U?$_Tree_simple_types@Ufile@CLocatorAPI@@@std@@@std@@@std@@V12@@2@ABUfile@CLocatorAPI@@@Z 0095ae20 f i LocatorAPI.obj
 0001:00059e40       ?_Lbound@?$_Tree@V?$_Tset_traits@Ufile@CLocatorAPI@@Ufile_pred@2@V?$xalloc@Ufile@CLocatorAPI@@@@$0A@@std@@@std@@IAEPAU?$_Tree_node@Ufile@CLocatorAPI@@PAX@2@ABUfile@CLocatorAPI@@@Z 0095ae40 f i LocatorAPI.obj
 0001:00059ed0       ?_Key@?$_Tree@V?$_Tset_traits@Ufile@CLocatorAPI@@Ufile_pred@2@V?$xalloc@Ufile@CLocatorAPI@@@@$0A@@std@@@std@@IBEABUfile@CLocatorAPI@@PAU?$_Tree_node@Ufile@CLocatorAPI@@PAX@2@@Z 0095aed0 f i LocatorAPI.obj
 0001:00059ef0       ??0?$xalloc@Ufile@CLocatorAPI@@@@QAE@XZ 0095aef0 f i LocatorAPI.obj
 0001:00059f00       ?clear_and_free@?$xr_vector@Uarchive@CLocatorAPI@@V?$xalloc@Uarchive@CLocatorAPI@@@@@@QAEXXZ 0095af00 f i LocatorAPI.obj
 0001:00059f20       ??0?$vector@Uarchive@CLocatorAPI@@V?$xalloc@Uarchive@CLocatorAPI@@@@@std@@QAE@XZ 0095af20 f i LocatorAPI.obj
 0001:00059f50       ?_Inside@?$vector@Uarchive@CLocatorAPI@@V?$xalloc@Uarchive@CLocatorAPI@@@@@std@@IBE_NPBUarchive@CLocatorAPI@@@Z 0095af50 f i LocatorAPI.obj
 0001:00059f90       ?_Reserve@?$vector@Uarchive@CLocatorAPI@@V?$xalloc@Uarchive@CLocatorAPI@@@@@std@@IAEXI@Z 0095af90 f i LocatorAPI.obj
 0001:0005a000       ?_Orphan_range@?$vector@Uarchive@CLocatorAPI@@V?$xalloc@Uarchive@CLocatorAPI@@@@@std@@IBEXPAUarchive@CLocatorAPI@@0@Z 0095b000 f i LocatorAPI.obj
 0001:0005a010       ?pointer_to@?$pointer_traits@PAUarchive@CLocatorAPI@@@std@@SAPAUarchive@CLocatorAPI@@AAU34@@Z 0095b010 f i LocatorAPI.obj
 0001:0005a020       ?clear_and_free@?$xr_vector@U_finddata64i32_t@@V?$xalloc@U_finddata64i32_t@@@@@@QAEXXZ 0095b020 f i LocatorAPI.obj
 0001:0005a040       ??0?$vector@U_finddata64i32_t@@V?$xalloc@U_finddata64i32_t@@@@@std@@QAE@XZ 0095b040 f i LocatorAPI.obj
 0001:0005a070       ?end@?$vector@U_finddata64i32_t@@V?$xalloc@U_finddata64i32_t@@@@@std@@QAE?AV?$_Vector_iterator@V?$_Vector_val@U?$_Simple_types@U_finddata64i32_t@@@std@@@std@@@2@XZ 0095b070 f i LocatorAPI.obj
 0001:0005a0a0       ?erase@?$vector@U_finddata64i32_t@@V?$xalloc@U_finddata64i32_t@@@@@std@@QAE?AV?$_Vector_iterator@V?$_Vector_val@U?$_Simple_types@U_finddata64i32_t@@@std@@@std@@@2@V?$_Vector_const_iterator@V?$_Vector_val@U?$_Simple_types@U_finddata64i32_t@@@std@@@std@@@2@0@Z 0095b0a0 f i LocatorAPI.obj
 0001:0005a270       ?_Inside@?$vector@U_finddata64i32_t@@V?$xalloc@U_finddata64i32_t@@@@@std@@IBE_NPBU_finddata64i32_t@@@Z 0095b270 f i LocatorAPI.obj
 0001:0005a2b0       ?_Reallocate@?$vector@U_finddata64i32_t@@V?$xalloc@U_finddata64i32_t@@@@@std@@IAEXI@Z 0095b2b0 f i LocatorAPI.obj
 0001:0005a400       ?_Reserve@?$vector@U_finddata64i32_t@@V?$xalloc@U_finddata64i32_t@@@@@std@@IAEXI@Z 0095b400 f i LocatorAPI.obj
 0001:0005a470       ?_Orphan_range@?$vector@U_finddata64i32_t@@V?$xalloc@U_finddata64i32_t@@@@@std@@IBEXPAU_finddata64i32_t@@0@Z 0095b470 f i LocatorAPI.obj
 0001:0005a480       ??0?$_Tree@V?$_Tmap_traits@Vshared_str@@U_FILE_ACCESS_STAT@@U?$less@Vshared_str@@@std@@V?$xalloc@U?$pair@Vshared_str@@U_FILE_ACCESS_STAT@@@std@@@@$0A@@std@@@std@@QAE@ABU?$less@Vshared_str@@@1@ABV?$xalloc@U?$pair@Vshared_str@@U_FILE_ACCESS_STAT@@@std@@@@@Z 0095b480 f i LocatorAPI.obj
 0001:0005a4d0       ?lower_bound@?$_Tree@V?$_Tmap_traits@Vshared_str@@U_FILE_ACCESS_STAT@@U?$less@Vshared_str@@@std@@V?$xalloc@U?$pair@Vshared_str@@U_FILE_ACCESS_STAT@@@std@@@@$0A@@std@@@std@@QAE?AV?$_Tree_iterator@V?$_Tree_val@U?$_Tree_simple_types@U?$pair@$$CBVshared_str@@U_FILE_ACCESS_STAT@@@std@@@std@@@std@@@2@ABVshared_str@@@Z 0095b4d0 f i LocatorAPI.obj
 0001:0005a500       ?_Key@?$_Tree@V?$_Tmap_traits@Vshared_str@@U_FILE_ACCESS_STAT@@U?$less@Vshared_str@@@std@@V?$xalloc@U?$pair@Vshared_str@@U_FILE_ACCESS_STAT@@@std@@@@$0A@@std@@@std@@IBEABVshared_str@@PAU?$_Tree_node@U?$pair@$$CBVshared_str@@U_FILE_ACCESS_STAT@@@std@@PAX@2@@Z 0095b500 f i LocatorAPI.obj
 0001:0005a520       ??0?$xalloc@U?$pair@Vshared_str@@U_FILE_ACCESS_STAT@@@std@@@@QAE@XZ 0095b520 f i LocatorAPI.obj
 0001:0005a530       ?pointer_to@?$pointer_traits@PAU?$pair@$$CBVshared_str@@U_FILE_ACCESS_STAT@@@std@@@std@@SAPAU?$pair@$$CBVshared_str@@U_FILE_ACCESS_STAT@@@2@AAU32@@Z 0095b530 f i LocatorAPI.obj
 0001:0005a540       ??0?$_Tree@V?$_Tmap_traits@Vshared_str@@V?$xr_vector@PAVIReader@@V?$xalloc@PAVIReader@@@@@@U?$less@Vshared_str@@@std@@V?$xalloc@U?$pair@Vshared_str@@V?$xr_vector@PAVIReader@@V?$xalloc@PAVIReader@@@@@@@std@@@@$0A@@std@@@std@@QAE@ABU?$less@Vshared_str@@@1@ABV?$xalloc@U?$pair@Vshared_str@@V?$xr_vector@PAVIReader@@V?$xalloc@PAVIReader@@@@@@@std@@@@@Z 0095b540 f i LocatorAPI.obj
 0001:0005a590       ?lower_bound@?$_Tree@V?$_Tmap_traits@Vshared_str@@V?$xr_vector@PAVIReader@@V?$xalloc@PAVIReader@@@@@@U?$less@Vshared_str@@@std@@V?$xalloc@U?$pair@Vshared_str@@V?$xr_vector@PAVIReader@@V?$xalloc@PAVIReader@@@@@@@std@@@@$0A@@std@@@std@@QAE?AV?$_Tree_iterator@V?$_Tree_val@U?$_Tree_simple_types@U?$pair@$$CBVshared_str@@V?$xr_vector@PAVIReader@@V?$xalloc@PAVIReader@@@@@@@std@@@std@@@std@@@2@ABVshared_str@@@Z 0095b590 f i LocatorAPI.obj
 0001:0005a5c0       ?_Key@?$_Tree@V?$_Tmap_traits@Vshared_str@@V?$xr_vector@PAVIReader@@V?$xalloc@PAVIReader@@@@@@U?$less@Vshared_str@@@std@@V?$xalloc@U?$pair@Vshared_str@@V?$xr_vector@PAVIReader@@V?$xalloc@PAVIReader@@@@@@@std@@@@$0A@@std@@@std@@IBEABVshared_str@@PAU?$_Tree_node@U?$pair@$$CBVshared_str@@V?$xr_vector@PAVIReader@@V?$xalloc@PAVIReader@@@@@@@std@@PAX@2@@Z 0095b5c0 f i LocatorAPI.obj
 0001:0005a5e0       ??0?$xalloc@U?$pair@Vshared_str@@V?$xr_vector@PAVIReader@@V?$xalloc@PAVIReader@@@@@@@std@@@@QAE@XZ 0095b5e0 f i LocatorAPI.obj
 0001:0005a5f0       ?pointer_to@?$pointer_traits@PAU?$pair@$$CBVshared_str@@V?$xr_vector@PAVIReader@@V?$xalloc@PAVIReader@@@@@@@std@@@std@@SAPAU?$pair@$$CBVshared_str@@V?$xr_vector@PAVIReader@@V?$xalloc@PAVIReader@@@@@@@2@AAU32@@Z 0095b5f0 f i LocatorAPI.obj
 0001:0005a600       ??E?$_Vector_const_iterator@V?$_Vector_val@U?$_Simple_types@Uarchive@CLocatorAPI@@@std@@@std@@@std@@QAEAAV01@XZ 0095b600 f i LocatorAPI.obj
 0001:0005a620       ??8?$_Vector_const_iterator@V?$_Vector_val@U?$_Simple_types@Uarchive@CLocatorAPI@@@std@@@std@@@std@@QBE_NABV01@@Z 0095b620 f i LocatorAPI.obj
 0001:0005a650       ??D?$_Vector_const_iterator@V?$_Vector_val@U?$_Simple_types@U_finddata64i32_t@@@std@@@std@@@std@@QBEABU_finddata64i32_t@@XZ 0095b650 f i LocatorAPI.obj
 0001:0005a660       ??0?$_Tree_iterator@V?$_Tree_val@U?$_Tree_simple_types@U?$pair@QBDPAVFS_Path@@@std@@@std@@@std@@@std@@QAE@XZ 0095b660 f i LocatorAPI.obj
 0001:0005a680       ??D?$_Tree_iterator@V?$_Tree_val@U?$_Tree_simple_types@U?$pair@QBDPAVFS_Path@@@std@@@std@@@std@@@std@@QBEAAU?$pair@QBDPAVFS_Path@@@1@XZ 0095b680 f i LocatorAPI.obj
 0001:0005a6a0       ??E?$_Tree_iterator@V?$_Tree_val@U?$_Tree_simple_types@U?$pair@QBDPAVFS_Path@@@std@@@std@@@std@@@std@@QAEAAV01@XZ 0095b6a0 f i LocatorAPI.obj
 0001:0005a6c0       ??F?$_Tree_const_iterator@V?$_Tree_val@U?$_Tree_simple_types@Ufile@CLocatorAPI@@@std@@@std@@@std@@QAEAAV01@XZ 0095b6c0 f i LocatorAPI.obj
 0001:0005a6e0       ??0?$_Tree_unchecked_const_iterator@V?$_Tree_val@U?$_Tree_simple_types@Ufile@CLocatorAPI@@@std@@@std@@U_Iterator_base0@2@@std@@QAE@XZ 0095b6e0 f i LocatorAPI.obj
 0001:0005a700       ??D?$_Tree_iterator@V?$_Tree_val@U?$_Tree_simple_types@U?$pair@$$CBVshared_str@@U_FILE_ACCESS_STAT@@@std@@@std@@@std@@@std@@QBEAAU?$pair@$$CBVshared_str@@U_FILE_ACCESS_STAT@@@1@XZ 0095b700 f i LocatorAPI.obj
 0001:0005a720       ??D?$_Tree_iterator@V?$_Tree_val@U?$_Tree_simple_types@U?$pair@$$CBVshared_str@@V?$xr_vector@PAVIReader@@V?$xalloc@PAVIReader@@@@@@@std@@@std@@@std@@@std@@QBEAAU?$pair@$$CBVshared_str@@V?$xr_vector@PAVIReader@@V?$xalloc@PAVIReader@@@@@@@1@XZ 0095b720 f i LocatorAPI.obj
 0001:0005a740       ??E?$_Tree_iterator@V?$_Tree_val@U?$_Tree_simple_types@U?$pair@$$CBVshared_str@@V?$xr_vector@PAVIReader@@V?$xalloc@PAVIReader@@@@@@@std@@@std@@@std@@@std@@QAEAAV01@XZ 0095b740 f i LocatorAPI.obj
 0001:0005a760       ?clear_and_free@?$xr_vector@PAVIReader@@V?$xalloc@PAVIReader@@@@@@QAEXXZ 0095b760 f i LocatorAPI.obj
 0001:0005a7a0       ?capacity@?$vector@PAVIReader@@V?$xalloc@PAVIReader@@@@@std@@QBEIXZ 0095b7a0 f i LocatorAPI.obj
 0001:0005a7c0       ?empty@?$vector@PAVIReader@@V?$xalloc@PAVIReader@@@@@std@@QBE_NXZ 0095b7c0 f i LocatorAPI.obj
 0001:0005a7f0       ?_Pop_back_n@?$vector@PAVIReader@@V?$xalloc@PAVIReader@@@@@std@@QAEXI@Z 0095b7f0 f i LocatorAPI.obj
 0001:0005a830       ?clear@?$vector@PAVIReader@@V?$xalloc@PAVIReader@@@@@std@@QAEXXZ 0095b830 f i LocatorAPI.obj
 0001:0005a870       ?_Reserve@?$vector@PAVIReader@@V?$xalloc@PAVIReader@@@@@std@@IAEXI@Z 0095b870 f i LocatorAPI.obj
 0001:0005a8e0       ?_Change_alloc@?$_Vector_alloc@$0A@U?$_Vec_base_types@PAVIReader@@V?$xalloc@PAVIReader@@@@@std@@@std@@QAEXABU?$_Wrap_alloc@V?$xalloc@PAVIReader@@@@@2@@Z 0095b8e0 f i LocatorAPI.obj
 0001:0005a8f0       ??D?$_Vector_const_iterator@V?$_Vector_val@U?$_Simple_types@PAVIReader@@@std@@@std@@@std@@QBEABQAVIReader@@XZ 0095b8f0 f i LocatorAPI.obj
 0001:0005a900       ??8?$_Vector_const_iterator@V?$_Vector_val@U?$_Simple_types@PAVIReader@@@std@@@std@@@std@@QBE_NABV01@@Z 0095b900 f i LocatorAPI.obj
 0001:0005a930       ??0?$vector@U_open_file@@V?$xalloc@U_open_file@@@@@std@@QAE@XZ 0095b930 f i LocatorAPI.obj
 0001:0005a960       ?size@?$vector@U_open_file@@V?$xalloc@U_open_file@@@@@std@@QBEIXZ 0095b960 f i LocatorAPI.obj
 0001:0005a980       ?_Pop_back_n@?$vector@U_open_file@@V?$xalloc@U_open_file@@@@@std@@QAEXI@Z 0095b980 f i LocatorAPI.obj
 0001:0005a9c0       ?_Reserve@?$vector@U_open_file@@V?$xalloc@U_open_file@@@@@std@@IAEXI@Z 0095b9c0 f i LocatorAPI.obj
 0001:0005aa60       ?_Tidy@?$vector@U_open_file@@V?$xalloc@U_open_file@@@@@std@@IAEXXZ 0095ba60 f i LocatorAPI.obj
 0001:0005ab00       ?_Getal@?$_Vector_alloc@$0A@U?$_Vec_base_types@U_open_file@@V?$xalloc@U_open_file@@@@@std@@@std@@QBE?AU?$_Wrap_alloc@V?$xalloc@U_open_file@@@@@2@XZ 0095bb00 f i LocatorAPI.obj
 0001:0005ab10       ??0?$_Vector_iterator@V?$_Vector_val@U?$_Simple_types@U_open_file@@@std@@@std@@@std@@QAE@PAU_open_file@@PBU_Container_base0@1@@Z 0095bb10 f i LocatorAPI.obj
 0001:0005ab40       ??G?$_Vector_iterator@V?$_Vector_val@U?$_Simple_types@U_open_file@@@std@@@std@@@std@@QBE?AV01@H@Z 0095bb40 f i LocatorAPI.obj
 0001:0005ab70       ??D?$_Vector_const_iterator@V?$_Vector_val@U?$_Simple_types@U_open_file@@@std@@@std@@@std@@QBEABU_open_file@@XZ 0095bb70 f i LocatorAPI.obj
 0001:0005ab80       ??E?$_Vector_const_iterator@V?$_Vector_val@U?$_Simple_types@U_open_file@@@std@@@std@@@std@@QAEAAV01@XZ 0095bb80 f i LocatorAPI.obj
 0001:0005aba0       ?_Compat@?$_Vector_const_iterator@V?$_Vector_val@U?$_Simple_types@U_open_file@@@std@@@std@@@std@@QBEXABV12@@Z 0095bba0 f i LocatorAPI.obj
 0001:0005abb0       ??0?$_Vector_iterator@V?$_Vector_val@U?$_Simple_types@Uarchive@CLocatorAPI@@@std@@@std@@@std@@QAE@PAUarchive@CLocatorAPI@@PBU_Container_base0@1@@Z 0095bbb0 f i LocatorAPI.obj
 0001:0005abd0       ??D?$_Vector_iterator@V?$_Vector_val@U?$_Simple_types@Uarchive@CLocatorAPI@@@std@@@std@@@std@@QBEAAUarchive@CLocatorAPI@@XZ 0095bbd0 f i LocatorAPI.obj
 0001:0005abf0       ??H?$_Vector_iterator@V?$_Vector_val@U?$_Simple_types@Uarchive@CLocatorAPI@@@std@@@std@@@std@@QBE?AV01@H@Z 0095bbf0 f i LocatorAPI.obj
 0001:0005ac20       ??G?$_Vector_iterator@V?$_Vector_val@U?$_Simple_types@Uarchive@CLocatorAPI@@@std@@@std@@@std@@QBE?AV01@H@Z 0095bc20 f i LocatorAPI.obj
 0001:0005ac50       ??0?$_Vector_iterator@V?$_Vector_val@U?$_Simple_types@U_finddata64i32_t@@@std@@@std@@@std@@QAE@PAU_finddata64i32_t@@PBU_Container_base0@1@@Z 0095bc50 f i LocatorAPI.obj
 0001:0005ac70       ??0?$_Vector_iterator@V?$_Vector_val@U?$_Simple_types@PAVIReader@@@std@@@std@@@std@@QAE@PAPAVIReader@@PBU_Container_base0@1@@Z 0095bc70 f i LocatorAPI.obj
 0001:0005ac90       ??E?$_Vector_iterator@V?$_Vector_val@U?$_Simple_types@PAVIReader@@@std@@@std@@@std@@QAEAAV01@XZ 0095bc90 f i LocatorAPI.obj
 0001:0005acb0       ??H?$_Vector_iterator@V?$_Vector_val@U?$_Simple_types@PAVIReader@@@std@@@std@@@std@@QBE?AV01@H@Z 0095bcb0 f i LocatorAPI.obj
 0001:0005ace0       ??0?$_Vector_iterator@V?$_Vector_val@U?$_Simple_types@PAD@std@@@std@@@std@@QAE@PAPADPBU_Container_base0@1@@Z 0095bce0 f i LocatorAPI.obj
 0001:0005ad10       ??E?$_Vector_iterator@V?$_Vector_val@U?$_Simple_types@PAD@std@@@std@@@std@@QAEAAV01@XZ 0095bd10 f i LocatorAPI.obj
 0001:0005ad30       ??G?$_Vector_iterator@V?$_Vector_val@U?$_Simple_types@PAD@std@@@std@@@std@@QBE?AV01@H@Z 0095bd30 f i LocatorAPI.obj
 0001:0005ad60       ??D?$_Vector_const_iterator@V?$_Vector_val@U?$_Simple_types@PAD@std@@@std@@@std@@QBEABQADXZ 0095bd60 f i LocatorAPI.obj
 0001:0005ad70       ??8?$_Vector_const_iterator@V?$_Vector_val@U?$_Simple_types@PAD@std@@@std@@@std@@QBE_NABV01@@Z 0095bd70 f i LocatorAPI.obj
 0001:0005ada0       ??0?$_Vector_iterator@V?$_Vector_val@U?$_Simple_types@V?$basic_string@DU?$char_traits@D@std@@V?$xalloc@D@@@std@@@std@@@std@@@std@@QAE@PAV?$basic_string@DU?$char_traits@D@std@@V?$xalloc@D@@@1@PBU_Container_base0@1@@Z 0095bda0 f i LocatorAPI.obj
 0001:0005adc0       ??D?$_Vector_iterator@V?$_Vector_val@U?$_Simple_types@V?$basic_string@DU?$char_traits@D@std@@V?$xalloc@D@@@std@@@std@@@std@@@std@@QBEAAV?$basic_string@DU?$char_traits@D@std@@V?$xalloc@D@@@1@XZ 0095bdc0 f i LocatorAPI.obj
 0001:0005ade0       ??E?$_Vector_iterator@V?$_Vector_val@U?$_Simple_types@V?$basic_string@DU?$char_traits@D@std@@V?$xalloc@D@@@std@@@std@@@std@@@std@@QAEAAV01@XZ 0095bde0 f i LocatorAPI.obj
 0001:0005ae00       ??0?$_Tree_const_iterator@V?$_Tree_val@U?$_Tree_simple_types@UFS_File@@@std@@@std@@@std@@QAE@PAU?$_Tree_node@UFS_File@@PAX@1@PBV?$_Tree_val@U?$_Tree_simple_types@UFS_File@@@std@@@1@@Z 0095be00 f i LocatorAPI.obj
 0001:0005ae30       ??8?$_Tree_const_iterator@V?$_Tree_val@U?$_Tree_simple_types@UFS_File@@@std@@@std@@@std@@QBE_NABV01@@Z 0095be30 f i LocatorAPI.obj
 0001:0005ae60       ??E?$_Tree_unchecked_const_iterator@V?$_Tree_val@U?$_Tree_simple_types@UFS_File@@@std@@@std@@U_Iterator_base0@2@@std@@QAEAAV01@XZ 0095be60 f i LocatorAPI.obj
 0001:0005af10       ??0?$reverse_iterator@V?$_Tree_const_iterator@V?$_Tree_val@U?$_Tree_simple_types@Ufile@CLocatorAPI@@@std@@@std@@@std@@@std@@QAE@V?$_Tree_const_iterator@V?$_Tree_val@U?$_Tree_simple_types@Ufile@CLocatorAPI@@@std@@@std@@@1@@Z 0095bf10 f i LocatorAPI.obj
 0001:0005af30       ??E?$reverse_iterator@V?$_Tree_const_iterator@V?$_Tree_val@U?$_Tree_simple_types@Ufile@CLocatorAPI@@@std@@@std@@@std@@@std@@QAEAAV01@XZ 0095bf30 f i LocatorAPI.obj
 0001:0005af50       ?pointer_to@?$pointer_traits@PBUfile@CLocatorAPI@@@std@@SAPBUfile@CLocatorAPI@@ABU34@@Z 0095bf50 f i LocatorAPI.obj
 0001:0005af60       ??0?$_Vector_alloc@$0A@U?$_Vec_base_types@V?$basic_string@DU?$char_traits@D@std@@V?$xalloc@D@@@std@@V?$xalloc@V?$basic_string@DU?$char_traits@D@std@@V?$xalloc@D@@@std@@@@@std@@@std@@QAE@ABV?$xalloc@V?$basic_string@DU?$char_traits@D@std@@V?$xalloc@D@@@std@@@@@Z 0095bf60 f i LocatorAPI.obj
 0001:0005af90       ??0?$_Vector_alloc@$0A@U?$_Vec_base_types@Vshared_str@@V?$xalloc@Vshared_str@@@@@std@@@std@@QAE@ABV?$xalloc@Vshared_str@@@@@Z 0095bf90 f i LocatorAPI.obj
 0001:0005afc0       ?erase@?$_Tree@V?$_Tset_traits@UFS_File@@U?$less@UFS_File@@@std@@V?$xalloc@UFS_File@@@@$0A@@std@@@std@@QAE?AV?$_Tree_const_iterator@V?$_Tree_val@U?$_Tree_simple_types@UFS_File@@@std@@@std@@@2@V32@0@Z 0095bfc0 f i LocatorAPI.obj
 0001:0005b0f0       ??0?$_Tree_comp@$0A@V?$_Tset_traits@UFS_File@@U?$less@UFS_File@@@std@@V?$xalloc@UFS_File@@@@$0A@@std@@@std@@QAE@ABU?$less@UFS_File@@@1@ABV?$xalloc@UFS_File@@@@@Z 0095c0f0 f i LocatorAPI.obj
 0001:0005b160       ?_Freeheadnode@?$_Tree_alloc@$0A@U?$_Tree_base_types@UFS_File@@V?$xalloc@UFS_File@@@@@std@@@std@@QAEXPAU?$_Tree_node@UFS_File@@PAX@2@@Z 0095c160 f i LocatorAPI.obj
 0001:0005b1b0       ?_Isnil@?$_Tree_val@U?$_Tree_simple_types@UFS_File@@@std@@@std@@SAAADPAU?$_Tree_node@UFS_File@@PAX@2@@Z 0095c1b0 f i LocatorAPI.obj
 0001:0005b1c0       ?_Left@?$_Tree_val@U?$_Tree_simple_types@UFS_File@@@std@@@std@@SAAAPAU?$_Tree_node@UFS_File@@PAX@2@PAU32@@Z 0095c1c0 f i LocatorAPI.obj
 0001:0005b1d0       ?_Parent@?$_Tree_val@U?$_Tree_simple_types@UFS_File@@@std@@@std@@SAAAPAU?$_Tree_node@UFS_File@@PAX@2@PAU32@@Z 0095c1d0 f i LocatorAPI.obj
 0001:0005b1e0       ?_Right@?$_Tree_val@U?$_Tree_simple_types@UFS_File@@@std@@@std@@SAAAPAU?$_Tree_node@UFS_File@@PAX@2@PAU32@@Z 0095c1e0 f i LocatorAPI.obj
 0001:0005b1f0       ?_Min@?$_Tree_val@U?$_Tree_simple_types@UFS_File@@@std@@@std@@SAPAU?$_Tree_node@UFS_File@@PAX@2@PAU32@@Z 0095c1f0 f i LocatorAPI.obj
 0001:0005b210       ?_Lbound@?$_Tree@V?$_Tmap_traits@PBDPAVFS_Path@@Upred_str@@V?$xalloc@U?$pair@PBDPAVFS_Path@@@std@@@@$0A@@std@@@std@@IAEPAU?$_Tree_node@U?$pair@QBDPAVFS_Path@@@std@@PAX@2@ABQBD@Z 0095c210 f i LocatorAPI.obj
 0001:0005b2a0       ?_Kfn@?$_Tree@V?$_Tmap_traits@PBDPAVFS_Path@@Upred_str@@V?$xalloc@U?$pair@PBDPAVFS_Path@@@std@@@@$0A@@std@@@std@@IBEABQBDABU?$pair@QBDPAVFS_Path@@@2@@Z 0095c2a0 f i LocatorAPI.obj
 0001:0005b2b0       ?_Eqrange@?$_Tree@V?$_Tset_traits@Ufile@CLocatorAPI@@Ufile_pred@2@V?$xalloc@Ufile@CLocatorAPI@@@@$0A@@std@@@std@@IAE?AU?$pair@V?$_Tree_const_iterator@V?$_Tree_val@U?$_Tree_simple_types@Ufile@CLocatorAPI@@@std@@@std@@@std@@V12@@2@ABUfile@CLocatorAPI@@@Z 0095c2b0 f i LocatorAPI.obj
 0001:0005b450       ?_Kfn@?$_Tree@V?$_Tset_traits@Ufile@CLocatorAPI@@Ufile_pred@2@V?$xalloc@Ufile@CLocatorAPI@@@@$0A@@std@@@std@@IBEABUfile@CLocatorAPI@@ABU34@@Z 0095c450 f i LocatorAPI.obj
 0001:0005b460       ?_Unused_capacity@?$vector@Uarchive@CLocatorAPI@@V?$xalloc@Uarchive@CLocatorAPI@@@@@std@@QBEIXZ 0095c460 f i LocatorAPI.obj
 0001:0005b480       ?_Grow_to@?$vector@Uarchive@CLocatorAPI@@V?$xalloc@Uarchive@CLocatorAPI@@@@@std@@IBEII@Z 0095c480 f i LocatorAPI.obj
 0001:0005b4e0       ?_Reallocate@?$vector@Uarchive@CLocatorAPI@@V?$xalloc@Uarchive@CLocatorAPI@@@@@std@@IAEXI@Z 0095c4e0 f i LocatorAPI.obj
 0001:0005b630       ?_Unused_capacity@?$vector@U_finddata64i32_t@@V?$xalloc@U_finddata64i32_t@@@@@std@@QBEIXZ 0095c630 f i LocatorAPI.obj
 0001:0005b650       ?_Make_iter@?$vector@U_finddata64i32_t@@V?$xalloc@U_finddata64i32_t@@@@@std@@QBE?AV?$_Vector_iterator@V?$_Vector_val@U?$_Simple_types@U_finddata64i32_t@@@std@@@std@@@2@V?$_Vector_const_iterator@V?$_Vector_val@U?$_Simple_types@U_finddata64i32_t@@@std@@@std@@@2@@Z 0095c650 f i LocatorAPI.obj
 0001:0005b670       ?_Grow_to@?$vector@U_finddata64i32_t@@V?$xalloc@U_finddata64i32_t@@@@@std@@IBEII@Z 0095c670 f i LocatorAPI.obj
 0001:0005b6d0       ?_Lbound@?$_Tree@V?$_Tmap_traits@Vshared_str@@U_FILE_ACCESS_STAT@@U?$less@Vshared_str@@@std@@V?$xalloc@U?$pair@Vshared_str@@U_FILE_ACCESS_STAT@@@std@@@@$0A@@std@@@std@@IAEPAU?$_Tree_node@U?$pair@$$CBVshared_str@@U_FILE_ACCESS_STAT@@@std@@PAX@2@ABVshared_str@@@Z 0095c6d0 f i LocatorAPI.obj
 0001:0005b760       ?_Kfn@?$_Tree@V?$_Tmap_traits@Vshared_str@@U_FILE_ACCESS_STAT@@U?$less@Vshared_str@@@std@@V?$xalloc@U?$pair@Vshared_str@@U_FILE_ACCESS_STAT@@@std@@@@$0A@@std@@@std@@IBEABVshared_str@@ABU?$pair@$$CBVshared_str@@U_FILE_ACCESS_STAT@@@2@@Z 0095c760 f i LocatorAPI.obj
 0001:0005b770       ?_Lbound@?$_Tree@V?$_Tmap_traits@Vshared_str@@V?$xr_vector@PAVIReader@@V?$xalloc@PAVIReader@@@@@@U?$less@Vshared_str@@@std@@V?$xalloc@U?$pair@Vshared_str@@V?$xr_vector@PAVIReader@@V?$xalloc@PAVIReader@@@@@@@std@@@@$0A@@std@@@std@@IAEPAU?$_Tree_node@U?$pair@$$CBVshared_str@@V?$xr_vector@PAVIReader@@V?$xalloc@PAVIReader@@@@@@@std@@PAX@2@ABVshared_str@@@Z 0095c770 f i LocatorAPI.obj
 0001:0005b800       ?_Kfn@?$_Tree@V?$_Tmap_traits@Vshared_str@@V?$xr_vector@PAVIReader@@V?$xalloc@PAVIReader@@@@@@U?$less@Vshared_str@@@std@@V?$xalloc@U?$pair@Vshared_str@@V?$xr_vector@PAVIReader@@V?$xalloc@PAVIReader@@@@@@@std@@@@$0A@@std@@@std@@IBEABVshared_str@@ABU?$pair@$$CBVshared_str@@V?$xr_vector@PAVIReader@@V?$xalloc@PAVIReader@@@@@@@2@@Z 0095c800 f i LocatorAPI.obj
 0001:0005b810       ??D?$_Vector_const_iterator@V?$_Vector_val@U?$_Simple_types@Uarchive@CLocatorAPI@@@std@@@std@@@std@@QBEABUarchive@CLocatorAPI@@XZ 0095c810 f i LocatorAPI.obj
 0001:0005b820       ?_Compat@?$_Vector_const_iterator@V?$_Vector_val@U?$_Simple_types@Uarchive@CLocatorAPI@@@std@@@std@@@std@@QBEXABV12@@Z 0095c820 f i LocatorAPI.obj
 0001:0005b830       ??8?$_Vector_const_iterator@V?$_Vector_val@U?$_Simple_types@U_finddata64i32_t@@@std@@@std@@@std@@QBE_NABV01@@Z 0095c830 f i LocatorAPI.obj
 0001:0005b860       ??9?$_Vector_const_iterator@V?$_Vector_val@U?$_Simple_types@U_finddata64i32_t@@@std@@@std@@@std@@QBE_NABV01@@Z 0095c860 f i LocatorAPI.obj
 0001:0005b8b0       ??0?$_Tree_const_iterator@V?$_Tree_val@U?$_Tree_simple_types@U?$pair@QBDPAVFS_Path@@@std@@@std@@@std@@@std@@QAE@XZ 0095c8b0 f i LocatorAPI.obj
 0001:0005b8d0       ??D?$_Tree_const_iterator@V?$_Tree_val@U?$_Tree_simple_types@U?$pair@QBDPAVFS_Path@@@std@@@std@@@std@@@std@@QBEABU?$pair@QBDPAVFS_Path@@@1@XZ 0095c8d0 f i LocatorAPI.obj
 0001:0005b8f0       ??F?$_Tree_unchecked_const_iterator@V?$_Tree_val@U?$_Tree_simple_types@Ufile@CLocatorAPI@@@std@@@std@@U_Iterator_base0@2@@std@@QAEAAV01@XZ 0095c8f0 f i LocatorAPI.obj
 0001:0005b9b0       ??D?$_Tree_const_iterator@V?$_Tree_val@U?$_Tree_simple_types@U?$pair@$$CBVshared_str@@U_FILE_ACCESS_STAT@@@std@@@std@@@std@@@std@@QBEABU?$pair@$$CBVshared_str@@U_FILE_ACCESS_STAT@@@1@XZ 0095c9b0 f i LocatorAPI.obj
 0001:0005b9d0       ??D?$_Tree_const_iterator@V?$_Tree_val@U?$_Tree_simple_types@U?$pair@$$CBVshared_str@@V?$xr_vector@PAVIReader@@V?$xalloc@PAVIReader@@@@@@@std@@@std@@@std@@@std@@QBEABU?$pair@$$CBVshared_str@@V?$xr_vector@PAVIReader@@V?$xalloc@PAVIReader@@@@@@@1@XZ 0095c9d0 f i LocatorAPI.obj
 0001:0005b9f0       ?_Unused_capacity@?$vector@PAVIReader@@V?$xalloc@PAVIReader@@@@@std@@QBEIXZ 0095c9f0 f i LocatorAPI.obj
 0001:0005ba10       ?_Grow_to@?$vector@PAVIReader@@V?$xalloc@PAVIReader@@@@@std@@IBEII@Z 0095ca10 f i LocatorAPI.obj
 0001:0005ba70       ?_Reallocate@?$vector@PAVIReader@@V?$xalloc@PAVIReader@@@@@std@@IAEXI@Z 0095ca70 f i LocatorAPI.obj
 0001:0005bbc0       ??E?$_Vector_const_iterator@V?$_Vector_val@U?$_Simple_types@PAVIReader@@@std@@@std@@@std@@QAEAAV01@XZ 0095cbc0 f i LocatorAPI.obj
 0001:0005bbe0       ?_Compat@?$_Vector_const_iterator@V?$_Vector_val@U?$_Simple_types@PAVIReader@@@std@@@std@@@std@@QBEXABV12@@Z 0095cbe0 f i LocatorAPI.obj
 0001:0005bbf0       ?_Unused_capacity@?$vector@U_open_file@@V?$xalloc@U_open_file@@@@@std@@QBEIXZ 0095cbf0 f i LocatorAPI.obj
 0001:0005bc10       ?max_size@?$vector@U_open_file@@V?$xalloc@U_open_file@@@@@std@@QBEIXZ 0095cc10 f i LocatorAPI.obj
 0001:0005bc40       ?_Destroy@?$vector@U_open_file@@V?$xalloc@U_open_file@@@@@std@@IAEXPAU_open_file@@0@Z 0095cc40 f i LocatorAPI.obj
 0001:0005bcc0       ?_Grow_to@?$vector@U_open_file@@V?$xalloc@U_open_file@@@@@std@@IBEII@Z 0095ccc0 f i LocatorAPI.obj
 0001:0005bd40       ?_Reallocate@?$vector@U_open_file@@V?$xalloc@U_open_file@@@@@std@@IAEXI@Z 0095cd40 f i LocatorAPI.obj
 0001:0005bec0       ?_Xlen@?$vector@U_open_file@@V?$xalloc@U_open_file@@@@@std@@IBEXXZ 0095cec0 f i LocatorAPI.obj
 0001:0005bee0       ??0?$xalloc@U_open_file@@@@QAE@XZ 0095cee0 f i LocatorAPI.obj
 0001:0005bef0       ??0?$_Vector_alloc@$0A@U?$_Vec_base_types@U_open_file@@V?$xalloc@U_open_file@@@@@std@@@std@@QAE@ABV?$xalloc@U_open_file@@@@@Z 0095cef0 f i LocatorAPI.obj
 0001:0005bf20       ??0?$_Wrap_alloc@V?$xalloc@U_open_file@@@@@std@@QAE@XZ 0095cf20 f i LocatorAPI.obj
 0001:0005bf30       ?deallocate@?$_Wrap_alloc@V?$xalloc@U_open_file@@@@@std@@QAEXPAU_open_file@@I@Z 0095cf30 f i LocatorAPI.obj
 0001:0005bf60       ??Z?$_Vector_iterator@V?$_Vector_val@U?$_Simple_types@U_open_file@@@std@@@std@@@std@@QAEAAV01@H@Z 0095cf60 f i LocatorAPI.obj
 0001:0005bf90       ??0?$_Vector_const_iterator@V?$_Vector_val@U?$_Simple_types@U_open_file@@@std@@@std@@@std@@QAE@PAU_open_file@@PBU_Container_base0@1@@Z 0095cf90 f i LocatorAPI.obj
 0001:0005bfc0       ??Y?$_Vector_iterator@V?$_Vector_val@U?$_Simple_types@Uarchive@CLocatorAPI@@@std@@@std@@@std@@QAEAAV01@H@Z 0095cfc0 f i LocatorAPI.obj
 0001:0005bfe0       ??Z?$_Vector_iterator@V?$_Vector_val@U?$_Simple_types@Uarchive@CLocatorAPI@@@std@@@std@@@std@@QAEAAV01@H@Z 0095cfe0 f i LocatorAPI.obj
 0001:0005c010       ??Y?$_Vector_iterator@V?$_Vector_val@U?$_Simple_types@PAVIReader@@@std@@@std@@@std@@QAEAAV01@H@Z 0095d010 f i LocatorAPI.obj
 0001:0005c030       ??Z?$_Vector_iterator@V?$_Vector_val@U?$_Simple_types@PAD@std@@@std@@@std@@QAEAAV01@H@Z 0095d030 f i LocatorAPI.obj
 0001:0005c060       ??0?$_Vector_const_iterator@V?$_Vector_val@U?$_Simple_types@PAD@std@@@std@@@std@@QAE@PAPADPBU_Container_base0@1@@Z 0095d060 f i LocatorAPI.obj
 0001:0005c090       ??E?$_Vector_const_iterator@V?$_Vector_val@U?$_Simple_types@PAD@std@@@std@@@std@@QAEAAV01@XZ 0095d090 f i LocatorAPI.obj
 0001:0005c0b0       ?_Compat@?$_Vector_const_iterator@V?$_Vector_val@U?$_Simple_types@PAD@std@@@std@@@std@@QBEXABV12@@Z 0095d0b0 f i LocatorAPI.obj
 0001:0005c0c0       ??0?$_Tree_unchecked_const_iterator@V?$_Tree_val@U?$_Tree_simple_types@UFS_File@@@std@@@std@@U_Iterator_base0@2@@std@@QAE@PAU?$_Tree_node@UFS_File@@PAX@1@PBV?$_Tree_val@U?$_Tree_simple_types@UFS_File@@@std@@@1@@Z 0095d0c0 f i LocatorAPI.obj
 0001:0005c0f0       ??0?$_Revranit@V?$_Tree_const_iterator@V?$_Tree_val@U?$_Tree_simple_types@Ufile@CLocatorAPI@@@std@@@std@@@std@@U?$iterator@Ubidirectional_iterator_tag@std@@Ufile@CLocatorAPI@@HPBU34@ABU34@@2@@std@@QAE@V?$_Tree_const_iterator@V?$_Tree_val@U?$_Tree_simple_types@Ufile@CLocatorAPI@@@std@@@std@@@1@@Z 0095d0f0 f i LocatorAPI.obj
 0001:0005c110       ??E?$_Revranit@V?$_Tree_const_iterator@V?$_Tree_val@U?$_Tree_simple_types@Ufile@CLocatorAPI@@@std@@@std@@@std@@U?$iterator@Ubidirectional_iterator_tag@std@@Ufile@CLocatorAPI@@HPBU34@ABU34@@2@@std@@QAEAAV01@XZ 0095d110 f i LocatorAPI.obj
 0001:0005c130       ??0?$_Vector_val@U?$_Simple_types@V?$basic_string@DU?$char_traits@D@std@@V?$xalloc@D@@@std@@@std@@@std@@QAE@XZ 0095d130 f i LocatorAPI.obj
 0001:0005c160       ??0?$_Vector_val@U?$_Simple_types@Vshared_str@@@std@@@std@@QAE@XZ 0095d160 f i LocatorAPI.obj
 0001:0005c190       ?erase@?$_Tree@V?$_Tset_traits@UFS_File@@U?$less@UFS_File@@@std@@V?$xalloc@UFS_File@@@@$0A@@std@@@std@@QAE?AV?$_Tree_const_iterator@V?$_Tree_val@U?$_Tree_simple_types@UFS_File@@@std@@@std@@@2@V32@@Z 0095d190 f i LocatorAPI.obj
 0001:0005c650       ?clear@?$_Tree@V?$_Tset_traits@UFS_File@@U?$less@UFS_File@@@std@@V?$xalloc@UFS_File@@@@$0A@@std@@@std@@QAEXXZ 0095d650 f i LocatorAPI.obj
 0001:0005c6a0       ??0?$_Tree_buy@UFS_File@@V?$xalloc@UFS_File@@@@@std@@QAE@ABV?$xalloc@UFS_File@@@@@Z 0095d6a0 f i LocatorAPI.obj
 0001:0005c700       ?_Getal@?$_Tree_alloc@$0A@U?$_Tree_base_types@UFS_File@@V?$xalloc@UFS_File@@@@@std@@@std@@QBE?AU?$_Wrap_alloc@V?$xalloc@U?$_Tree_node@UFS_File@@PAX@std@@@@@2@XZ 0095d700 f i LocatorAPI.obj
 0001:0005c710       ?deallocate@?$_Wrap_alloc@V?$xalloc@U?$_Tree_node@UFS_File@@PAX@std@@@@@std@@QAEXPAU?$_Tree_node@UFS_File@@PAX@2@I@Z 0095d710 f i LocatorAPI.obj
 0001:0005c740       ?_Kfn@?$_Tset_traits@Ufile@CLocatorAPI@@Ufile_pred@2@V?$xalloc@Ufile@CLocatorAPI@@@@$0A@@std@@SAABUfile@CLocatorAPI@@ABU34@@Z 0095d740 f i LocatorAPI.obj
 0001:0005c750       ??Y?$_Vector_const_iterator@V?$_Vector_val@U?$_Simple_types@Uarchive@CLocatorAPI@@@std@@@std@@@std@@QAEAAV01@H@Z 0095d750 f i LocatorAPI.obj
 0001:0005c770       ?_Compat@?$_Vector_const_iterator@V?$_Vector_val@U?$_Simple_types@U_finddata64i32_t@@@std@@@std@@@std@@QBEXABV12@@Z 0095d770 f i LocatorAPI.obj
 0001:0005c780       ??0?$_Tree_unchecked_const_iterator@V?$_Tree_val@U?$_Tree_simple_types@U?$pair@QBDPAVFS_Path@@@std@@@std@@@std@@U_Iterator_base0@2@@std@@QAE@XZ 0095d780 f i LocatorAPI.obj
 0001:0005c7a0       ??Y?$_Vector_const_iterator@V?$_Vector_val@U?$_Simple_types@PAVIReader@@@std@@@std@@@std@@QAEAAV01@H@Z 0095d7a0 f i LocatorAPI.obj
 0001:0005c7c0       ?capacity@?$vector@U_open_file@@V?$xalloc@U_open_file@@@@@std@@QBEIXZ 0095d7c0 f i LocatorAPI.obj
 0001:0005c7e0       ?deallocate@?$xalloc@U_open_file@@@@QBEXPAU_open_file@@I@Z 0095d7e0 f i LocatorAPI.obj
 0001:0005c810       ?allocate@?$_Wrap_alloc@V?$xalloc@U_open_file@@@@@std@@QAEPAU_open_file@@I@Z 0095d810 f i LocatorAPI.obj
 0001:0005c830       ?max_size@?$_Wrap_alloc@V?$xalloc@U_open_file@@@@@std@@QBEIXZ 0095d830 f i LocatorAPI.obj
 0001:0005c860       ??0?$_Vector_val@U?$_Simple_types@U_open_file@@@std@@@std@@QAE@XZ 0095d860 f i LocatorAPI.obj
 0001:0005c890       ??Y?$_Vector_iterator@V?$_Vector_val@U?$_Simple_types@U_open_file@@@std@@@std@@@std@@QAEAAV01@H@Z 0095d890 f i LocatorAPI.obj
 0001:0005c8b0       ??Y?$_Vector_iterator@V?$_Vector_val@U?$_Simple_types@PAD@std@@@std@@@std@@QAEAAV01@H@Z 0095d8b0 f i LocatorAPI.obj
 0001:0005c8d0       ??E?$_Tree_const_iterator@V?$_Tree_val@U?$_Tree_simple_types@UFS_File@@@std@@@std@@@std@@QAE?AV01@H@Z 0095d8d0 f i LocatorAPI.obj
 0001:0005c900       ?_Erase@?$_Tree@V?$_Tset_traits@UFS_File@@U?$less@UFS_File@@@std@@V?$xalloc@UFS_File@@@@$0A@@std@@@std@@IAEXPAU?$_Tree_node@UFS_File@@PAX@2@@Z 0095d900 f i LocatorAPI.obj
 0001:0005c990       ?_Lrotate@?$_Tree@V?$_Tset_traits@UFS_File@@U?$less@UFS_File@@@std@@V?$xalloc@UFS_File@@@@$0A@@std@@@std@@IAEXPAU?$_Tree_node@UFS_File@@PAX@2@@Z 0095d990 f i LocatorAPI.obj
 0001:0005ca30       ?_Rmost@?$_Tree@V?$_Tset_traits@UFS_File@@U?$less@UFS_File@@@std@@V?$xalloc@UFS_File@@@@$0A@@std@@@std@@IBEAAPAU?$_Tree_node@UFS_File@@PAX@2@XZ 0095da30 f i LocatorAPI.obj
 0001:0005ca50       ?_Root@?$_Tree@V?$_Tset_traits@UFS_File@@U?$less@UFS_File@@@std@@V?$xalloc@UFS_File@@@@$0A@@std@@@std@@IBEAAPAU?$_Tree_node@UFS_File@@PAX@2@XZ 0095da50 f i LocatorAPI.obj
 0001:0005ca70       ?_Rrotate@?$_Tree@V?$_Tset_traits@UFS_File@@U?$less@UFS_File@@@std@@V?$xalloc@UFS_File@@@@$0A@@std@@@std@@IAEXPAU?$_Tree_node@UFS_File@@PAX@2@@Z 0095da70 f i LocatorAPI.obj
 0001:0005cb10       ??0?$_Tree_alloc@$0A@U?$_Tree_base_types@UFS_File@@V?$xalloc@UFS_File@@@@@std@@@std@@QAE@ABV?$xalloc@UFS_File@@@@@Z 0095db10 f i LocatorAPI.obj
 0001:0005cb40       ??0?$_Wrap_alloc@V?$xalloc@U?$_Tree_node@UFS_File@@PAX@std@@@@@std@@QAE@XZ 0095db40 f i LocatorAPI.obj
 0001:0005cb50       ?deallocate@?$xalloc@U?$_Tree_node@UFS_File@@PAX@std@@@@QBEXPAU?$_Tree_node@UFS_File@@PAX@std@@I@Z 0095db50 f i LocatorAPI.obj
 0001:0005cb80       ?_Color@?$_Tree_val@U?$_Tree_simple_types@UFS_File@@@std@@@std@@SAAADPAU?$_Tree_node@UFS_File@@PAX@2@@Z 0095db80 f i LocatorAPI.obj
 0001:0005cb90       ?_Max@?$_Tree_val@U?$_Tree_simple_types@UFS_File@@@std@@@std@@SAPAU?$_Tree_node@UFS_File@@PAX@2@PAU32@@Z 0095db90 f i LocatorAPI.obj
 0001:0005cbc0       ?allocate@?$xalloc@U_open_file@@@@QBEPAU_open_file@@IPBX@Z 0095dbc0 f i LocatorAPI.obj
 0001:0005cbe0       ?max_size@?$allocator_traits@V?$xalloc@U_open_file@@@@@std@@SAIABV?$xalloc@U_open_file@@@@@Z 0095dbe0 f i LocatorAPI.obj
 0001:0005cc10       ??Y?$_Vector_const_iterator@V?$_Vector_val@U?$_Simple_types@U_open_file@@@std@@@std@@@std@@QAEAAV01@H@Z 0095dc10 f i LocatorAPI.obj
 0001:0005cc30       ??Y?$_Vector_const_iterator@V?$_Vector_val@U?$_Simple_types@PAD@std@@@std@@@std@@QAEAAV01@H@Z 0095dc30 f i LocatorAPI.obj
 0001:0005cc50       ?_Mynode@?$_Tree_unchecked_const_iterator@V?$_Tree_val@U?$_Tree_simple_types@UFS_File@@@std@@@std@@U_Iterator_base0@2@@std@@QBEPAU?$_Tree_node@UFS_File@@PAX@2@XZ 0095dc50 f i LocatorAPI.obj
 0001:0005cc60       ?_Buyheadnode@?$_Tree_alloc@$0A@U?$_Tree_base_types@UFS_File@@V?$xalloc@UFS_File@@@@@std@@@std@@QAEPAU?$_Tree_node@UFS_File@@PAX@2@XZ 0095dc60 f i LocatorAPI.obj
 0001:0005cd60       ??0?$xalloc@U?$_Tree_node@UFS_File@@PAX@std@@@@QAE@XZ 0095dd60 f i LocatorAPI.obj
 0001:0005cd70       ??0?$_Tree_val@U?$_Tree_simple_types@UFS_File@@@std@@@std@@QAE@XZ 0095dd70 f i LocatorAPI.obj
 0001:0005cda0       ?allocate@?$_Wrap_alloc@V?$xalloc@U?$_Tree_node@UFS_File@@PAX@std@@@@@std@@QAEPAU?$_Tree_node@UFS_File@@PAX@2@I@Z 0095dda0 f i LocatorAPI.obj
 0001:0005cdc0       ?allocate@?$xalloc@U?$_Tree_node@UFS_File@@PAX@std@@@@QBEPAU?$_Tree_node@UFS_File@@PAX@std@@IPBX@Z 0095ddc0 f i LocatorAPI.obj
 0001:0005cde0       ??$xr_delete@VCStreamReader@@@@YAXAAPAVCStreamReader@@@Z 0095dde0 f i LocatorAPI.obj
 0001:0005ce40       ??$find_if@V?$_Vector_iterator@V?$_Vector_val@U?$_Simple_types@U_open_file@@@std@@@std@@@std@@Ueq_fname_check@@@std@@YA?AV?$_Vector_iterator@V?$_Vector_val@U?$_Simple_types@U_open_file@@@std@@@std@@@0@V10@0Ueq_fname_check@@@Z 0095de40 f i LocatorAPI.obj
 0001:0005cef0       ??$find_if@V?$_Vector_iterator@V?$_Vector_val@U?$_Simple_types@U_open_file@@@std@@@std@@@std@@Ueq_fname_free@@@std@@YA?AV?$_Vector_iterator@V?$_Vector_val@U?$_Simple_types@U_open_file@@@std@@@std@@@0@V10@0Ueq_fname_free@@@Z 0095def0 f i LocatorAPI.obj
 0001:0005cfa0       ??$xr_new@VCTempReader@@PAEIH@@YAPAVCTempReader@@ABQAEABIABH@Z 0095dfa0 f i LocatorAPI.obj
 0001:0005d030       ??$xr_new@VCFileResourceDesc@@PAVCTempReader@@@@YAPAVCFileResourceDesc@@ABQAVCTempReader@@@Z 0095e030 f i LocatorAPI.obj
 0001:0005d0b0       ??$strcat_s@$0CAI@@@YAHAAY0CAI@DPBD@Z 0095e0b0 f i LocatorAPI.obj
 0001:0005d0d0       ??$copy@PAU_finddata64i32_t@@PAU1@@std@@YAPAU_finddata64i32_t@@PAU1@00@Z 0095e0d0 f i LocatorAPI.obj
 0001:0005d110       ??$sort@PAU_finddata64i32_t@@P6A_NABU1@0@Z@std@@YAXPAU_finddata64i32_t@@0P6A_NABU1@1@Z@Z 0095e110 f i LocatorAPI.obj
 0001:0005d150       ??$xr_new@VFS_Path@@PADPBDPBDPBDI@@YAPAVFS_Path@@ABQADABQBD11ABI@Z 0095e150 f i LocatorAPI.obj
 0001:0005d1f0       ??$mk_pair@PADPAVFS_Path@@@@YA?AU?$pair@PADPAVFS_Path@@@std@@PADPAVFS_Path@@@Z 0095e1f0 f i LocatorAPI.obj
 0001:0005d210       ??$insert@U?$pair@PADPAVFS_Path@@@std@@@?$_Tree@V?$_Tmap_traits@PBDPAVFS_Path@@Upred_str@@V?$xalloc@U?$pair@PBDPAVFS_Path@@@std@@@@$0A@@std@@@std@@QAE?AU?$pair@V?$_Tree_iterator@V?$_Tree_val@U?$_Tree_simple_types@U?$pair@QBDPAVFS_Path@@@std@@@std@@@std@@@std@@_N@1@$$QAU?$pair@PADPAVFS_Path@@@1@@Z 0095e210 f i LocatorAPI.obj
 0001:0005d250       ??$xr_delete@VFS_Path@@@@YAXAAPAVFS_Path@@@Z 0095e250 f i LocatorAPI.obj
 0001:0005d2b0       ??$xr_new@V?$xr_vector@PADV?$xalloc@PAD@@@@@@YAPAV?$xr_vector@PADV?$xalloc@PAD@@@@XZ 0095e2b0 f i LocatorAPI.obj
 0001:0005d360       ??$xr_delete@V?$xr_vector@PADV?$xalloc@PAD@@@@@@YAXAAPAV?$xr_vector@PADV?$xalloc@PAD@@@@@Z 0095e360 f i LocatorAPI.obj
 0001:0005d3e0       ??$xr_new@VCFileReader@@PAD@@YAPAVCFileReader@@ABQAD@Z 0095e3e0 f i LocatorAPI.obj
 0001:0005d460       ??$xr_new@VCVirtualFileReader@@PAD@@YAPAVCVirtualFileReader@@ABQAD@Z 0095e460 f i LocatorAPI.obj
 0001:0005d4e0       ??$xr_new@VCFileWriter@@$$BY0CAI@D_N@@YAPAVCFileWriter@@AAY0CAI@$$CBDAB_N@Z 0095e4e0 f i LocatorAPI.obj
 0001:0005d570       ??$xr_delete@VIWriter@@@@YAXAAPAVIWriter@@@Z 0095e570 f i LocatorAPI.obj
 0001:0005d5d0       ??$xr_new@VCFileStreamReader@@@@YAPAVCFileStreamReader@@XZ 0095e5d0 f i LocatorAPI.obj
 0001:0005d660       ??$xr_new@VIReader@@PAX_K@@YAPAVIReader@@ABQAXAB_K@Z 0095e660 f i LocatorAPI.obj
 0001:0005d6f0       ??$xr_new@VCPackReader@@PAEPAEI@@YAPAVCPackReader@@ABQAE0ABI@Z 0095e6f0 f i LocatorAPI.obj
 0001:0005d780       ??$xr_new@VCStreamReader@@@@YAPAVCStreamReader@@XZ 0095e780 f i LocatorAPI.obj
 0001:0005d800       ??$xr_new@V?$xr_vector@PAVIReader@@V?$xalloc@PAVIReader@@@@@@@@YAPAV?$xr_vector@PAVIReader@@V?$xalloc@PAVIReader@@@@@@XZ 0095e800 f i LocatorAPI.obj
 0001:0005d890       ??$xr_delete@V?$xr_vector@PAVIReader@@V?$xalloc@PAVIReader@@@@@@@@YAXAAPAV?$xr_vector@PAVIReader@@V?$xalloc@PAVIReader@@@@@@@Z 0095e890 f i LocatorAPI.obj
 0001:0005d8f0       ??$xr_new@VCArchiveChunkDesc@@PAVIReader@@@@YAPAVCArchiveChunkDesc@@ABQAVIReader@@@Z 0095e8f0 f i LocatorAPI.obj
 0001:0005d970       ??$xr_alloc@E@@YAPAEI@Z    0095e970 f i LocatorAPI.obj
 0001:0005d990       ??$xr_free@E@@YAXAAPAE@Z   0095e990 f i LocatorAPI.obj
 0001:0005d9c0       ??$strcpy_s@$0CAI@@@YAHAAY0CAI@DPBD@Z 0095e9c0 f i LocatorAPI.obj
 0001:0005d9e0       ??$r_open_impl@VCStreamReader@@@CLocatorAPI@@AAEPAVCStreamReader@@PBD0@Z 0095e9e0 f i LocatorAPI.obj
 0001:0005dae0       ??$r_open_impl@VIReader@@@CLocatorAPI@@AAEPAVIReader@@PBD0@Z 0095eae0 f i LocatorAPI.obj
 0001:0005dbe0       ??$_unregister_open_file@VIReader@@@@YAXPAVIReader@@@Z 0095ebe0 f i LocatorAPI.obj
 0001:0005dd00       ??$_unregister_open_file@VCStreamReader@@@@YAXPAVCStreamReader@@@Z 0095ed00 f i LocatorAPI.obj
 0001:0005de20       ??$?9V?$_Tree_const_iterator@V?$_Tree_val@U?$_Tree_simple_types@Ufile@CLocatorAPI@@@std@@@std@@@std@@V01@@std@@YA_NABV?$reverse_iterator@V?$_Tree_const_iterator@V?$_Tree_val@U?$_Tree_simple_types@Ufile@CLocatorAPI@@@std@@@std@@@std@@@0@0@Z 0095ee20 f i LocatorAPI.obj
 0001:0005de60       ??$xr_new@VFS_Path@@PBDPBDPBDPBDH@@YAPAVFS_Path@@ABQBD000ABH@Z 0095ee60 f i LocatorAPI.obj
 0001:0005df00       ??$assign@V?$_String_iterator@V?$_String_val@U?$_Simple_types@D@std@@@std@@@std@@@?$basic_string@DU?$char_traits@D@std@@V?$xalloc@D@@@std@@QAEAAV01@V?$_String_iterator@V?$_String_val@U?$_Simple_types@D@std@@@std@@@1@0@Z 0095ef00 f i LocatorAPI.obj
 0001:0005df50       ??$forward@UFS_File@@@std@@YA$$QAUFS_File@@AAU1@@Z 0095ef50 f i LocatorAPI.obj
 0001:0005df60       ??$_Distance@V?$_Tree_const_iterator@V?$_Tree_val@U?$_Tree_simple_types@Ufile@CLocatorAPI@@@std@@@std@@@std@@I@std@@YAXV?$_Tree_const_iterator@V?$_Tree_val@U?$_Tree_simple_types@Ufile@CLocatorAPI@@@std@@@std@@@0@0AAI@Z 0095ef60 f i LocatorAPI.obj
 0001:0005dfb0       ??$addressof@Uarchive@CLocatorAPI@@@std@@YAPAUarchive@CLocatorAPI@@AAU12@@Z 0095efb0 f i LocatorAPI.obj
 0001:0005dfc0       ??$forward@Uarchive@CLocatorAPI@@@std@@YA$$QAUarchive@CLocatorAPI@@AAU12@@Z 0095efc0 f i LocatorAPI.obj
 0001:0005dfd0       ??$construct@Uarchive@CLocatorAPI@@U12@@?$_Wrap_alloc@V?$xalloc@Uarchive@CLocatorAPI@@@@@std@@QAEXPAUarchive@CLocatorAPI@@$$QAU23@@Z 0095efd0 f i LocatorAPI.obj
 0001:0005dff0       ??$addressof@$$CBU_finddata64i32_t@@@std@@YAPBU_finddata64i32_t@@ABU1@@Z 0095eff0 f i LocatorAPI.obj
 0001:0005e000       ??$forward_as_tuple@ABVshared_str@@@std@@YA?AV?$tuple@ABVshared_str@@@0@ABVshared_str@@@Z 0095f000 f i LocatorAPI.obj
 0001:0005e040       ??$emplace_hint@ABUpiecewise_construct_t@std@@V?$tuple@ABVshared_str@@@2@V?$tuple@$$$V@2@@?$_Tree@V?$_Tmap_traits@Vshared_str@@U_FILE_ACCESS_STAT@@U?$less@Vshared_str@@@std@@V?$xalloc@U?$pair@Vshared_str@@U_FILE_ACCESS_STAT@@@std@@@@$0A@@std@@@std@@QAE?AV?$_Tree_iterator@V?$_Tree_val@U?$_Tree_simple_types@U?$pair@$$CBVshared_str@@U_FILE_ACCESS_STAT@@@std@@@std@@@std@@@1@V?$_Tree_const_iterator@V?$_Tree_val@U?$_Tree_simple_types@U?$pair@$$CBVshared_str@@U_FILE_ACCESS_STAT@@@std@@@std@@@std@@@1@ABUpiecewise_construct_t@1@$$QAV?$tuple@ABVshared_str@@@1@$$QAV?$tuple@$$$V@1@@Z 0095f040 f i LocatorAPI.obj
 0001:0005e090       ??$emplace_hint@ABUpiecewise_construct_t@std@@V?$tuple@ABVshared_str@@@2@V?$tuple@$$$V@2@@?$_Tree@V?$_Tmap_traits@Vshared_str@@V?$xr_vector@PAVIReader@@V?$xalloc@PAVIReader@@@@@@U?$less@Vshared_str@@@std@@V?$xalloc@U?$pair@Vshared_str@@V?$xr_vector@PAVIReader@@V?$xalloc@PAVIReader@@@@@@@std@@@@$0A@@std@@@std@@QAE?AV?$_Tree_iterator@V?$_Tree_val@U?$_Tree_simple_types@U?$pair@$$CBVshared_str@@V?$xr_vector@PAVIReader@@V?$xalloc@PAVIReader@@@@@@@std@@@std@@@std@@@1@V?$_Tree_const_iterator@V?$_Tree_val@U?$_Tree_simple_types@U?$pair@$$CBVshared_str@@V?$xr_vector@PAVIReader@@V?$xalloc@PAVIReader@@@@@@@std@@@std@@@std@@@1@ABUpiecewise_construct_t@1@$$QAV?$tuple@ABVshared_str@@@1@$$QAV?$tuple@$$$V@1@@Z 0095f090 f i LocatorAPI.obj
 0001:0005e0e0       ??$?9V?$xalloc@PAVIReader@@@@V0@@std@@YA_NABU?$_Wrap_alloc@V?$xalloc@PAVIReader@@@@@0@0@Z 0095f0e0 f i LocatorAPI.obj
 0001:0005e130       ??$_Copy_impl@PAPAVIReader@@PAPAV1@@std@@YAPAPAVIReader@@PAPAV1@00@Z 0095f130 f i LocatorAPI.obj
 0001:0005e180       ??$_Ucopy@PAPAVIReader@@@?$vector@PAVIReader@@V?$xalloc@PAVIReader@@@@@std@@IAEPAPAVIReader@@PAPAV2@00@Z 0095f180 f i LocatorAPI.obj
 0001:0005e1c0       ??$_Uninitialized_default_fill_n@PAPAVIReader@@IU?$_Wrap_alloc@V?$xalloc@PAVIReader@@@@@std@@@std@@YAXPAPAVIReader@@IAAU?$_Wrap_alloc@V?$xalloc@PAVIReader@@@@@0@@Z 0095f1c0 f i LocatorAPI.obj
 0001:0005e200       ??$_Uninitialized_default_fill_n@PAU_open_file@@IU?$_Wrap_alloc@V?$xalloc@U_open_file@@@@@std@@@std@@YAXPAU_open_file@@IAAU?$_Wrap_alloc@V?$xalloc@U_open_file@@@@@0@@Z 0095f200 f i LocatorAPI.obj
 0001:0005e230       ??$forward@V?$_Tree_iterator@V?$_Tree_val@U?$_Tree_simple_types@U?$pair@QBDPAVFS_Path@@@std@@@std@@@std@@@std@@@std@@YA$$QAV?$_Tree_iterator@V?$_Tree_val@U?$_Tree_simple_types@U?$pair@QBDPAVFS_Path@@@std@@@std@@@std@@@0@AAV10@@Z 0095f230 f i LocatorAPI.obj
 0001:0005e240       ??$_Insert_nohint@UFS_File@@U_Nil@std@@@?$_Tree@V?$_Tset_traits@UFS_File@@U?$less@UFS_File@@@std@@V?$xalloc@UFS_File@@@@$0A@@std@@@std@@IAE?AU?$pair@V?$_Tree_const_iterator@V?$_Tree_val@U?$_Tree_simple_types@UFS_File@@@std@@@std@@@std@@_N@1@_N$$QAUFS_File@@U_Nil@1@@Z 0095f240 f i LocatorAPI.obj
 0001:0005e4b0       ??$_Insert_nohint@ABUfile@CLocatorAPI@@U_Nil@std@@@?$_Tree@V?$_Tset_traits@Ufile@CLocatorAPI@@Ufile_pred@2@V?$xalloc@Ufile@CLocatorAPI@@@@$0A@@std@@@std@@IAE?AU?$pair@V?$_Tree_const_iterator@V?$_Tree_val@U?$_Tree_simple_types@Ufile@CLocatorAPI@@@std@@@std@@@std@@_N@1@_NABUfile@CLocatorAPI@@U_Nil@1@@Z 0095f4b0 f i LocatorAPI.obj
 0001:0005e760       ??$_Move@PAU_finddata64i32_t@@PAU1@@std@@YAPAU_finddata64i32_t@@PAU1@00@Z 0095f760 f i LocatorAPI.obj
 0001:0005e7c0       ??$_Umove@PAU_finddata64i32_t@@@?$vector@U_finddata64i32_t@@V?$xalloc@U_finddata64i32_t@@@@@std@@IAEPAU_finddata64i32_t@@PAU2@00@Z 0095f7c0 f i LocatorAPI.obj
 0001:0005e800       ??$addressof@$$CBUfile@CLocatorAPI@@@std@@YAPBUfile@CLocatorAPI@@ABU12@@Z 0095f800 f i LocatorAPI.obj
 0001:0005e810       ??$addressof@PAU?$_Tree_node@UFS_File@@PAX@std@@@std@@YAPAPAU?$_Tree_node@UFS_File@@PAX@0@AAPAU10@@Z 0095f810 f i LocatorAPI.obj
 0001:0005e820       ??$destroy@PAU?$_Tree_node@UFS_File@@PAX@std@@@?$_Wrap_alloc@V?$xalloc@U?$_Tree_node@UFS_File@@PAX@std@@@@@std@@QAEXPAPAU?$_Tree_node@UFS_File@@PAX@1@@Z 0095f820 f i LocatorAPI.obj
 0001:0005e840       ??$_Kfn@QBDPAVFS_Path@@@?$_Tmap_traits@PBDPAVFS_Path@@Upred_str@@V?$xalloc@U?$pair@PBDPAVFS_Path@@@std@@@@$0A@@std@@SAABQBDABU?$pair@QBDPAVFS_Path@@@1@@Z 0095f840 f i LocatorAPI.obj
 0001:0005e850       ??$?0AAV?$_Tree_const_iterator@V?$_Tree_val@U?$_Tree_simple_types@Ufile@CLocatorAPI@@@std@@@std@@@std@@AAV01@X@?$pair@V?$_Tree_const_iterator@V?$_Tree_val@U?$_Tree_simple_types@Ufile@CLocatorAPI@@@std@@@std@@@std@@V12@@std@@QAE@AAV?$_Tree_const_iterator@V?$_Tree_val@U?$_Tree_simple_types@Ufile@CLocatorAPI@@@std@@@std@@@1@0@Z 0095f850 f i LocatorAPI.obj
 0001:0005e880       ??$_Umove@PAUarchive@CLocatorAPI@@@?$vector@Uarchive@CLocatorAPI@@V?$xalloc@Uarchive@CLocatorAPI@@@@@std@@IAEPAUarchive@CLocatorAPI@@PAU23@00@Z 0095f880 f i LocatorAPI.obj
 0001:0005e8c0       ??$_Kfn@$$CBVshared_str@@U_FILE_ACCESS_STAT@@@?$_Tmap_traits@Vshared_str@@U_FILE_ACCESS_STAT@@U?$less@Vshared_str@@@std@@V?$xalloc@U?$pair@Vshared_str@@U_FILE_ACCESS_STAT@@@std@@@@$0A@@std@@SAABVshared_str@@ABU?$pair@$$CBVshared_str@@U_FILE_ACCESS_STAT@@@1@@Z 0095f8c0 f i LocatorAPI.obj
 0001:0005e8d0       ??$_Kfn@$$CBVshared_str@@V?$xr_vector@PAVIReader@@V?$xalloc@PAVIReader@@@@@@@?$_Tmap_traits@Vshared_str@@V?$xr_vector@PAVIReader@@V?$xalloc@PAVIReader@@@@@@U?$less@Vshared_str@@@std@@V?$xalloc@U?$pair@Vshared_str@@V?$xr_vector@PAVIReader@@V?$xalloc@PAVIReader@@@@@@@std@@@@$0A@@std@@SAABVshared_str@@ABU?$pair@$$CBVshared_str@@V?$xr_vector@PAVIReader@@V?$xalloc@PAVIReader@@@@@@@1@@Z 0095f8d0 f i LocatorAPI.obj
 0001:0005e8e0       ??$_Umove@PAPAVIReader@@@?$vector@PAVIReader@@V?$xalloc@PAVIReader@@@@@std@@IAEPAPAVIReader@@PAPAV2@00@Z 0095f8e0 f i LocatorAPI.obj
 0001:0005e920       ??$_Destroy_range@U?$_Wrap_alloc@V?$xalloc@U_open_file@@@@@std@@@std@@YAXPAU_open_file@@0AAU?$_Wrap_alloc@V?$xalloc@U_open_file@@@@@0@@Z 0095f920 f i LocatorAPI.obj
 0001:0005e9a0       ??$_Umove@PAU_open_file@@@?$vector@U_open_file@@V?$xalloc@U_open_file@@@@@std@@IAEPAU_open_file@@PAU2@00@Z 0095f9a0 f i LocatorAPI.obj
 0001:0005e9f0       ??$addressof@UFS_File@@@std@@YAPAUFS_File@@AAU1@@Z 0095f9f0 f i LocatorAPI.obj
 0001:0005ea00       ??$destroy@UFS_File@@@?$_Wrap_alloc@V?$xalloc@U?$_Tree_node@UFS_File@@PAX@std@@@@@std@@QAEXPAUFS_File@@@Z 0095fa00 f i LocatorAPI.obj
 0001:0005ea40       ??$xr_free@U_open_file@@@@YAXAAPAU_open_file@@@Z 0095fa40 f i LocatorAPI.obj
 0001:0005ea70       ??$xr_free@U?$_Tree_node@UFS_File@@PAX@std@@@@YAXAAPAU?$_Tree_node@UFS_File@@PAX@std@@@Z 0095fa70 f i LocatorAPI.obj
 0001:0005eaa0       ??$xr_alloc@U_open_file@@@@YAPAU_open_file@@I@Z 0095faa0 f i LocatorAPI.obj
 0001:0005eac0       ??$_Fn@V?$xalloc@U_open_file@@@@@_Alloc_max_size@std@@SAIHABV?$xalloc@U_open_file@@@@@Z 0095fac0 f i LocatorAPI.obj
 0001:0005eaf0       ??$construct@PAU?$_Tree_node@UFS_File@@PAX@std@@AAPAU12@@?$_Wrap_alloc@V?$xalloc@U?$_Tree_node@UFS_File@@PAX@std@@@@@std@@QAEXPAPAU?$_Tree_node@UFS_File@@PAX@1@AAPAU21@@Z 0095faf0 f i LocatorAPI.obj
 0001:0005eb70       ??$xr_alloc@U?$_Tree_node@UFS_File@@PAX@std@@@@YAPAU?$_Tree_node@UFS_File@@PAX@std@@I@Z 0095fb70 f i LocatorAPI.obj
 0001:0005eb90       ??0CFileStreamReader@@QAE@XZ 0095fb90 f i LocatorAPI.obj
 0001:0005ebe0       ??_ECFileStreamReader@@UAEPAXI@Z 0095fbe0 f i * CIL library *:* CIL module *
 0001:0005ebe0       ??_GCFileStreamReader@@UAEPAXI@Z 0095fbe0 f i LocatorAPI.obj
 0001:0005ec40       ??1CFileStreamReader@@UAE@XZ 0095fc40 f i LocatorAPI.obj
 0001:0005ec80       ??0?$xr_vector@PADV?$xalloc@PAD@@@@QAE@XZ 0095fc80 f i LocatorAPI.obj
 0001:0005ecf0       ?replace@?$basic_string@DU?$char_traits@D@std@@V?$xalloc@D@@@std@@QAEAAV12@V?$_String_const_iterator@V?$_String_val@U?$_Simple_types@D@std@@@std@@@2@0V?$_String_iterator@V?$_String_val@U?$_Simple_types@D@std@@@std@@@2@1@Z 0095fcf0 f i LocatorAPI.obj
 0001:0005ee30       ?_Destroy_if_not_nil@?$_Tree@V?$_Tset_traits@UFS_File@@U?$less@UFS_File@@@std@@V?$xalloc@UFS_File@@@@$0A@@std@@@std@@IAEXU_Nil@2@@Z 0095fe30 f i LocatorAPI.obj
 0001:0005ee40       ?_Kfn@?$_Tree@V?$_Tset_traits@UFS_File@@U?$less@UFS_File@@@std@@V?$xalloc@UFS_File@@@@$0A@@std@@@std@@IBEABUFS_File@@ABU3@@Z 0095fe40 f i LocatorAPI.obj
 0001:0005ee50       ?_Key@?$_Tree@V?$_Tset_traits@UFS_File@@U?$less@UFS_File@@@std@@V?$xalloc@UFS_File@@@@$0A@@std@@@std@@IBEABUFS_File@@PAU?$_Tree_node@UFS_File@@PAX@2@@Z 0095fe50 f i LocatorAPI.obj
 0001:0005ee70       ??R?$less@UFS_File@@@std@@QBE_NABUFS_File@@0@Z 0095fe70 f i LocatorAPI.obj
 0001:0005ee90       ?_Getcomp@?$_Tree_comp@$0A@V?$_Tset_traits@UFS_File@@U?$less@UFS_File@@@std@@V?$xalloc@UFS_File@@@@$0A@@std@@@std@@QBE?AU?$less@UFS_File@@@2@XZ 0095fe90 f i LocatorAPI.obj
 0001:0005eea0       ?_Destroy_if_not_nil@?$_Tree@V?$_Tset_traits@Ufile@CLocatorAPI@@Ufile_pred@2@V?$xalloc@Ufile@CLocatorAPI@@@@$0A@@std@@@std@@IAEXU_Nil@2@@Z 0095fea0 f i LocatorAPI.obj
 0001:0005eeb0       ??0?$xr_vector@PAVIReader@@V?$xalloc@PAVIReader@@@@@@QAE@XZ 0095feb0 f i LocatorAPI.obj
 0001:0005ef00       ?max_size@?$xalloc@U_open_file@@@@QBEIXZ 0095ff00 f i LocatorAPI.obj
 0001:0005ef30       ??F?$_Tree_const_iterator@V?$_Tree_val@U?$_Tree_simple_types@UFS_File@@@std@@@std@@@std@@QAEAAV01@XZ 0095ff30 f i LocatorAPI.obj
 0001:0005ef50       ??0?$tuple@ABVshared_str@@@std@@QAE@ABVshared_str@@@Z 0095ff50 f i LocatorAPI.obj
 0001:0005ef80       ??R?$xr_special_free@$00VCStreamReader@@@@QAEXAAPAVCStreamReader@@@Z 0095ff80 f i LocatorAPI.obj
 0001:0005efc0       ??R?$xr_special_free@$0A@VFS_Path@@@@QAEXAAPAVFS_Path@@@Z 0095ffc0 f i LocatorAPI.obj
 0001:0005f010       ??R?$xr_special_free@$0A@V?$xr_vector@PADV?$xalloc@PAD@@@@@@QAEXAAPAV?$xr_vector@PADV?$xalloc@PAD@@@@@Z 00960010 f i LocatorAPI.obj
 0001:0005f080       ??R?$xr_special_free@$00VIWriter@@@@QAEXAAPAVIWriter@@@Z 00960080 f i LocatorAPI.obj
 0001:0005f0c0       ??R?$xr_special_free@$0A@V?$xr_vector@PAVIReader@@V?$xalloc@PAVIReader@@@@@@@@QAEXAAPAV?$xr_vector@PAVIReader@@V?$xalloc@PAVIReader@@@@@@@Z 009600c0 f i LocatorAPI.obj
 0001:0005f110       ??_GFS_Path@@QAEPAXI@Z     00960110 f i LocatorAPI.obj
 0001:0005f140       ??_G?$xr_vector@PADV?$xalloc@PAD@@@@QAEPAXI@Z 00960140 f i LocatorAPI.obj
 0001:0005f1a0       ??_G?$xr_vector@PAVIReader@@V?$xalloc@PAVIReader@@@@@@QAEPAXI@Z 009601a0 f i LocatorAPI.obj
 0001:0005f1d0       ??1?$xr_vector@PADV?$xalloc@PAD@@@@QAE@XZ 009601d0 f i LocatorAPI.obj
 0001:0005f210       ??0?$vector@PADV?$xalloc@PAD@@@std@@QAE@XZ 00960210 f i LocatorAPI.obj
 0001:0005f250       ??1?$vector@PADV?$xalloc@PAD@@@std@@QAE@XZ 00960250 f i LocatorAPI.obj
 0001:0005f270       ?replace@?$basic_string@DU?$char_traits@D@std@@V?$xalloc@D@@@std@@QAEAAV12@IIPBDI@Z 00960270 f i LocatorAPI.obj
 0001:0005f3f0       ?_Pdif@?$basic_string@DU?$char_traits@D@std@@V?$xalloc@D@@@std@@SAIV?$_String_const_iterator@V?$_String_val@U?$_Simple_types@D@std@@@std@@@2@0@Z 009603f0 f i LocatorAPI.obj
 0001:0005f420       ??G?$_String_iterator@V?$_String_val@U?$_Simple_types@D@std@@@std@@@std@@QBEHABV?$_String_const_iterator@V?$_String_val@U?$_Simple_types@D@std@@@std@@@1@@Z 00960420 f i LocatorAPI.obj
 0001:0005f450       ?_Kfn@?$_Tset_traits@UFS_File@@U?$less@UFS_File@@@std@@V?$xalloc@UFS_File@@@@$0A@@std@@SAABUFS_File@@ABU3@@Z 00960450 f i LocatorAPI.obj
 0001:0005f460       ??0?$vector@PAVIReader@@V?$xalloc@PAVIReader@@@@@std@@QAE@XZ 00960460 f i LocatorAPI.obj
 0001:0005f490       ??F?$_Tree_unchecked_const_iterator@V?$_Tree_val@U?$_Tree_simple_types@UFS_File@@@std@@@std@@U_Iterator_base0@2@@std@@QAEAAV01@XZ 00960490 f i LocatorAPI.obj
 0001:0005f550       ?_Tidy@?$vector@PADV?$xalloc@PAD@@@std@@IAEXXZ 00960550 f i LocatorAPI.obj
 0001:0005f5d0       ??0?$_Vector_alloc@$0A@U?$_Vec_base_types@PADV?$xalloc@PAD@@@std@@@std@@QAE@ABV?$xalloc@PAD@@@Z 009605d0 f i LocatorAPI.obj
 0001:0005f600       ?replace@?$basic_string@DU?$char_traits@D@std@@V?$xalloc@D@@@std@@QAEAAV12@IIABV12@II@Z 00960600 f i LocatorAPI.obj
 0001:0005f8f0       ??0?$_Vector_val@U?$_Simple_types@PAD@std@@@std@@QAE@XZ 009608f0 f i LocatorAPI.obj
